
addi.elf:     file format elf32-littleriscv


Disassembly of section .text.init:

00000000 <_start>:
   0:	00200193          	addi	x3,x0,2
   4:	00000093          	addi	x1,x0,0
   8:	00008713          	addi	x14,x1,0
   c:	00000393          	addi	x7,x0,0
  10:	26771c63          	bne	x14,x7,288 <fail>

00000014 <test_3>:
  14:	00300193          	addi	x3,x0,3
  18:	00100093          	addi	x1,x0,1
  1c:	00108713          	addi	x14,x1,1
  20:	00200393          	addi	x7,x0,2
  24:	26771263          	bne	x14,x7,288 <fail>

00000028 <test_4>:
  28:	00400193          	addi	x3,x0,4
  2c:	00300093          	addi	x1,x0,3
  30:	00708713          	addi	x14,x1,7
  34:	00a00393          	addi	x7,x0,10
  38:	24771863          	bne	x14,x7,288 <fail>

0000003c <test_5>:
  3c:	00500193          	addi	x3,x0,5
  40:	00000093          	addi	x1,x0,0
  44:	80008713          	addi	x14,x1,-2048
  48:	80000393          	addi	x7,x0,-2048
  4c:	22771e63          	bne	x14,x7,288 <fail>

00000050 <test_6>:
  50:	00600193          	addi	x3,x0,6
  54:	800000b7          	lui	x1,0x80000
  58:	00008713          	addi	x14,x1,0 # 80000000 <_end+0x7fffe000>
  5c:	800003b7          	lui	x7,0x80000
  60:	22771463          	bne	x14,x7,288 <fail>

00000064 <test_7>:
  64:	00700193          	addi	x3,x0,7
  68:	800000b7          	lui	x1,0x80000
  6c:	80008713          	addi	x14,x1,-2048 # 7ffff800 <_end+0x7fffd800>
  70:	800003b7          	lui	x7,0x80000
  74:	80038393          	addi	x7,x7,-2048 # 7ffff800 <_end+0x7fffd800>
  78:	20771863          	bne	x14,x7,288 <fail>

0000007c <test_8>:
  7c:	00800193          	addi	x3,x0,8
  80:	00000093          	addi	x1,x0,0
  84:	7ff08713          	addi	x14,x1,2047
  88:	7ff00393          	addi	x7,x0,2047
  8c:	1e771e63          	bne	x14,x7,288 <fail>

00000090 <test_9>:
  90:	00900193          	addi	x3,x0,9
  94:	800000b7          	lui	x1,0x80000
  98:	fff08093          	addi	x1,x1,-1 # 7fffffff <_end+0x7fffdfff>
  9c:	00008713          	addi	x14,x1,0
  a0:	800003b7          	lui	x7,0x80000
  a4:	fff38393          	addi	x7,x7,-1 # 7fffffff <_end+0x7fffdfff>
  a8:	1e771063          	bne	x14,x7,288 <fail>

000000ac <test_10>:
  ac:	00a00193          	addi	x3,x0,10
  b0:	800000b7          	lui	x1,0x80000
  b4:	fff08093          	addi	x1,x1,-1 # 7fffffff <_end+0x7fffdfff>
  b8:	7ff08713          	addi	x14,x1,2047
  bc:	800003b7          	lui	x7,0x80000
  c0:	7fe38393          	addi	x7,x7,2046 # 800007fe <_end+0x7fffe7fe>
  c4:	1c771263          	bne	x14,x7,288 <fail>

000000c8 <test_11>:
  c8:	00b00193          	addi	x3,x0,11
  cc:	800000b7          	lui	x1,0x80000
  d0:	7ff08713          	addi	x14,x1,2047 # 800007ff <_end+0x7fffe7ff>
  d4:	800003b7          	lui	x7,0x80000
  d8:	7ff38393          	addi	x7,x7,2047 # 800007ff <_end+0x7fffe7ff>
  dc:	1a771663          	bne	x14,x7,288 <fail>

000000e0 <test_12>:
  e0:	00c00193          	addi	x3,x0,12
  e4:	800000b7          	lui	x1,0x80000
  e8:	fff08093          	addi	x1,x1,-1 # 7fffffff <_end+0x7fffdfff>
  ec:	80008713          	addi	x14,x1,-2048
  f0:	7ffff3b7          	lui	x7,0x7ffff
  f4:	7ff38393          	addi	x7,x7,2047 # 7ffff7ff <_end+0x7fffd7ff>
  f8:	18771863          	bne	x14,x7,288 <fail>

000000fc <test_13>:
  fc:	00d00193          	addi	x3,x0,13
 100:	00000093          	addi	x1,x0,0
 104:	fff08713          	addi	x14,x1,-1
 108:	fff00393          	addi	x7,x0,-1
 10c:	16771e63          	bne	x14,x7,288 <fail>

00000110 <test_14>:
 110:	00e00193          	addi	x3,x0,14
 114:	fff00093          	addi	x1,x0,-1
 118:	00108713          	addi	x14,x1,1
 11c:	00000393          	addi	x7,x0,0
 120:	16771463          	bne	x14,x7,288 <fail>

00000124 <test_15>:
 124:	00f00193          	addi	x3,x0,15
 128:	fff00093          	addi	x1,x0,-1
 12c:	fff08713          	addi	x14,x1,-1
 130:	ffe00393          	addi	x7,x0,-2
 134:	14771a63          	bne	x14,x7,288 <fail>

00000138 <test_16>:
 138:	01000193          	addi	x3,x0,16
 13c:	800000b7          	lui	x1,0x80000
 140:	fff08093          	addi	x1,x1,-1 # 7fffffff <_end+0x7fffdfff>
 144:	00108713          	addi	x14,x1,1
 148:	800003b7          	lui	x7,0x80000
 14c:	12771e63          	bne	x14,x7,288 <fail>

00000150 <test_17>:
 150:	01100193          	addi	x3,x0,17
 154:	00d00093          	addi	x1,x0,13
 158:	00b08093          	addi	x1,x1,11
 15c:	01800393          	addi	x7,x0,24
 160:	12709463          	bne	x1,x7,288 <fail>

00000164 <test_18>:
 164:	01200193          	addi	x3,x0,18
 168:	00000213          	addi	x4,x0,0
 16c:	00d00093          	addi	x1,x0,13
 170:	00b08713          	addi	x14,x1,11
 174:	00070313          	addi	x6,x14,0
 178:	00120213          	addi	x4,x4,1 # 1 <_start+0x1>
 17c:	00200293          	addi	x5,x0,2
 180:	fe5216e3          	bne	x4,x5,16c <test_18+0x8>
 184:	01800393          	addi	x7,x0,24
 188:	10731063          	bne	x6,x7,288 <fail>

0000018c <test_19>:
 18c:	01300193          	addi	x3,x0,19
 190:	00000213          	addi	x4,x0,0
 194:	00d00093          	addi	x1,x0,13
 198:	00a08713          	addi	x14,x1,10
 19c:	00000013          	addi	x0,x0,0
 1a0:	00070313          	addi	x6,x14,0
 1a4:	00120213          	addi	x4,x4,1 # 1 <_start+0x1>
 1a8:	00200293          	addi	x5,x0,2
 1ac:	fe5214e3          	bne	x4,x5,194 <test_19+0x8>
 1b0:	01700393          	addi	x7,x0,23
 1b4:	0c731a63          	bne	x6,x7,288 <fail>

000001b8 <test_20>:
 1b8:	01400193          	addi	x3,x0,20
 1bc:	00000213          	addi	x4,x0,0
 1c0:	00d00093          	addi	x1,x0,13
 1c4:	00908713          	addi	x14,x1,9
 1c8:	00000013          	addi	x0,x0,0
 1cc:	00000013          	addi	x0,x0,0
 1d0:	00070313          	addi	x6,x14,0
 1d4:	00120213          	addi	x4,x4,1 # 1 <_start+0x1>
 1d8:	00200293          	addi	x5,x0,2
 1dc:	fe5212e3          	bne	x4,x5,1c0 <test_20+0x8>
 1e0:	01600393          	addi	x7,x0,22
 1e4:	0a731263          	bne	x6,x7,288 <fail>

000001e8 <test_21>:
 1e8:	01500193          	addi	x3,x0,21
 1ec:	00000213          	addi	x4,x0,0
 1f0:	00d00093          	addi	x1,x0,13
 1f4:	00b08713          	addi	x14,x1,11
 1f8:	00120213          	addi	x4,x4,1 # 1 <_start+0x1>
 1fc:	00200293          	addi	x5,x0,2
 200:	fe5218e3          	bne	x4,x5,1f0 <test_21+0x8>
 204:	01800393          	addi	x7,x0,24
 208:	08771063          	bne	x14,x7,288 <fail>

0000020c <test_22>:
 20c:	01600193          	addi	x3,x0,22
 210:	00000213          	addi	x4,x0,0
 214:	00d00093          	addi	x1,x0,13
 218:	00000013          	addi	x0,x0,0
 21c:	00a08713          	addi	x14,x1,10
 220:	00120213          	addi	x4,x4,1 # 1 <_start+0x1>
 224:	00200293          	addi	x5,x0,2
 228:	fe5216e3          	bne	x4,x5,214 <test_22+0x8>
 22c:	01700393          	addi	x7,x0,23
 230:	04771c63          	bne	x14,x7,288 <fail>

00000234 <test_23>:
 234:	01700193          	addi	x3,x0,23
 238:	00000213          	addi	x4,x0,0
 23c:	00d00093          	addi	x1,x0,13
 240:	00000013          	addi	x0,x0,0
 244:	00000013          	addi	x0,x0,0
 248:	00908713          	addi	x14,x1,9
 24c:	00120213          	addi	x4,x4,1 # 1 <_start+0x1>
 250:	00200293          	addi	x5,x0,2
 254:	fe5214e3          	bne	x4,x5,23c <test_23+0x8>
 258:	01600393          	addi	x7,x0,22
 25c:	02771663          	bne	x14,x7,288 <fail>

00000260 <test_24>:
 260:	01800193          	addi	x3,x0,24
 264:	02000093          	addi	x1,x0,32
 268:	02000393          	addi	x7,x0,32
 26c:	00709e63          	bne	x1,x7,288 <fail>

00000270 <test_25>:
 270:	01900193          	addi	x3,x0,25
 274:	02100093          	addi	x1,x0,33
 278:	03208013          	addi	x0,x1,50
 27c:	00000393          	addi	x7,x0,0
 280:	00701463          	bne	x0,x7,288 <fail>
 284:	02301063          	bne	x0,x3,2a4 <pass>

00000288 <fail>:
 288:	0ff0000f          	fence	iorw,iorw
 28c:	00018063          	beq	x3,x0,28c <fail+0x4>
 290:	00119193          	slli	x3,x3,0x1
 294:	0011e193          	ori	x3,x3,1
 298:	05d00893          	addi	x17,x0,93
 29c:	00018513          	addi	x10,x3,0
 2a0:	00000073          	ecall

000002a4 <pass>:
 2a4:	0ff0000f          	fence	iorw,iorw
 2a8:	00100193          	addi	x3,x0,1
 2ac:	05d00893          	addi	x17,x0,93
 2b0:	00000513          	addi	x10,x0,0
 2b4:	00000073          	ecall
 2b8:	c0001073          	unimp
	...

Disassembly of section .tohost:

00001000 <tohost>:
	...

00001040 <fromhost>:
	...
