
bge.elf:     file format elf32-littleriscv


Disassembly of section .text.init:

00000000 <_start>:
   0:	00200193          	addi	x3,x0,2
   4:	00000093          	addi	x1,x0,0
   8:	00000113          	addi	x2,x0,0
   c:	0020d663          	bge	x1,x2,18 <_start+0x18>
  10:	30301863          	bne	x0,x3,320 <fail>
  14:	00301663          	bne	x0,x3,20 <test_3>
  18:	fe20dee3          	bge	x1,x2,14 <_start+0x14>
  1c:	30301263          	bne	x0,x3,320 <fail>

00000020 <test_3>:
  20:	00300193          	addi	x3,x0,3
  24:	00100093          	addi	x1,x0,1
  28:	00100113          	addi	x2,x0,1
  2c:	0020d663          	bge	x1,x2,38 <test_3+0x18>
  30:	2e301863          	bne	x0,x3,320 <fail>
  34:	00301663          	bne	x0,x3,40 <test_4>
  38:	fe20dee3          	bge	x1,x2,34 <test_3+0x14>
  3c:	2e301263          	bne	x0,x3,320 <fail>

00000040 <test_4>:
  40:	00400193          	addi	x3,x0,4
  44:	fff00093          	addi	x1,x0,-1
  48:	fff00113          	addi	x2,x0,-1
  4c:	0020d663          	bge	x1,x2,58 <test_4+0x18>
  50:	2c301863          	bne	x0,x3,320 <fail>
  54:	00301663          	bne	x0,x3,60 <test_5>
  58:	fe20dee3          	bge	x1,x2,54 <test_4+0x14>
  5c:	2c301263          	bne	x0,x3,320 <fail>

00000060 <test_5>:
  60:	00500193          	addi	x3,x0,5
  64:	00100093          	addi	x1,x0,1
  68:	00000113          	addi	x2,x0,0
  6c:	0020d663          	bge	x1,x2,78 <test_5+0x18>
  70:	2a301863          	bne	x0,x3,320 <fail>
  74:	00301663          	bne	x0,x3,80 <test_6>
  78:	fe20dee3          	bge	x1,x2,74 <test_5+0x14>
  7c:	2a301263          	bne	x0,x3,320 <fail>

00000080 <test_6>:
  80:	00600193          	addi	x3,x0,6
  84:	00100093          	addi	x1,x0,1
  88:	fff00113          	addi	x2,x0,-1
  8c:	0020d663          	bge	x1,x2,98 <test_6+0x18>
  90:	28301863          	bne	x0,x3,320 <fail>
  94:	00301663          	bne	x0,x3,a0 <test_7>
  98:	fe20dee3          	bge	x1,x2,94 <test_6+0x14>
  9c:	28301263          	bne	x0,x3,320 <fail>

000000a0 <test_7>:
  a0:	00700193          	addi	x3,x0,7
  a4:	fff00093          	addi	x1,x0,-1
  a8:	ffe00113          	addi	x2,x0,-2
  ac:	0020d663          	bge	x1,x2,b8 <test_7+0x18>
  b0:	26301863          	bne	x0,x3,320 <fail>
  b4:	00301663          	bne	x0,x3,c0 <test_8>
  b8:	fe20dee3          	bge	x1,x2,b4 <test_7+0x14>
  bc:	26301263          	bne	x0,x3,320 <fail>

000000c0 <test_8>:
  c0:	00800193          	addi	x3,x0,8
  c4:	00000093          	addi	x1,x0,0
  c8:	00100113          	addi	x2,x0,1
  cc:	0020d463          	bge	x1,x2,d4 <test_8+0x14>
  d0:	00301463          	bne	x0,x3,d8 <test_8+0x18>
  d4:	24301663          	bne	x0,x3,320 <fail>
  d8:	fe20dee3          	bge	x1,x2,d4 <test_8+0x14>

000000dc <test_9>:
  dc:	00900193          	addi	x3,x0,9
  e0:	fff00093          	addi	x1,x0,-1
  e4:	00100113          	addi	x2,x0,1
  e8:	0020d463          	bge	x1,x2,f0 <test_9+0x14>
  ec:	00301463          	bne	x0,x3,f4 <test_9+0x18>
  f0:	22301863          	bne	x0,x3,320 <fail>
  f4:	fe20dee3          	bge	x1,x2,f0 <test_9+0x14>

000000f8 <test_10>:
  f8:	00a00193          	addi	x3,x0,10
  fc:	ffe00093          	addi	x1,x0,-2
 100:	fff00113          	addi	x2,x0,-1
 104:	0020d463          	bge	x1,x2,10c <test_10+0x14>
 108:	00301463          	bne	x0,x3,110 <test_10+0x18>
 10c:	20301a63          	bne	x0,x3,320 <fail>
 110:	fe20dee3          	bge	x1,x2,10c <test_10+0x14>

00000114 <test_11>:
 114:	00b00193          	addi	x3,x0,11
 118:	ffe00093          	addi	x1,x0,-2
 11c:	00100113          	addi	x2,x0,1
 120:	0020d463          	bge	x1,x2,128 <test_11+0x14>
 124:	00301463          	bne	x0,x3,12c <test_11+0x18>
 128:	1e301c63          	bne	x0,x3,320 <fail>
 12c:	fe20dee3          	bge	x1,x2,128 <test_11+0x14>

00000130 <test_12>:
 130:	00c00193          	addi	x3,x0,12
 134:	00000213          	addi	x4,x0,0
 138:	fff00093          	addi	x1,x0,-1
 13c:	00000113          	addi	x2,x0,0
 140:	1e20d063          	bge	x1,x2,320 <fail>
 144:	00120213          	addi	x4,x4,1 # 1 <_start+0x1>
 148:	00200293          	addi	x5,x0,2
 14c:	fe5216e3          	bne	x4,x5,138 <test_12+0x8>

00000150 <test_13>:
 150:	00d00193          	addi	x3,x0,13
 154:	00000213          	addi	x4,x0,0
 158:	fff00093          	addi	x1,x0,-1
 15c:	00000113          	addi	x2,x0,0
 160:	00000013          	addi	x0,x0,0
 164:	1a20de63          	bge	x1,x2,320 <fail>
 168:	00120213          	addi	x4,x4,1 # 1 <_start+0x1>
 16c:	00200293          	addi	x5,x0,2
 170:	fe5214e3          	bne	x4,x5,158 <test_13+0x8>

00000174 <test_14>:
 174:	00e00193          	addi	x3,x0,14
 178:	00000213          	addi	x4,x0,0
 17c:	fff00093          	addi	x1,x0,-1
 180:	00000113          	addi	x2,x0,0
 184:	00000013          	addi	x0,x0,0
 188:	00000013          	addi	x0,x0,0
 18c:	1820da63          	bge	x1,x2,320 <fail>
 190:	00120213          	addi	x4,x4,1 # 1 <_start+0x1>
 194:	00200293          	addi	x5,x0,2
 198:	fe5212e3          	bne	x4,x5,17c <test_14+0x8>

0000019c <test_15>:
 19c:	00f00193          	addi	x3,x0,15
 1a0:	00000213          	addi	x4,x0,0
 1a4:	fff00093          	addi	x1,x0,-1
 1a8:	00000013          	addi	x0,x0,0
 1ac:	00000113          	addi	x2,x0,0
 1b0:	1620d863          	bge	x1,x2,320 <fail>
 1b4:	00120213          	addi	x4,x4,1 # 1 <_start+0x1>
 1b8:	00200293          	addi	x5,x0,2
 1bc:	fe5214e3          	bne	x4,x5,1a4 <test_15+0x8>

000001c0 <test_16>:
 1c0:	01000193          	addi	x3,x0,16
 1c4:	00000213          	addi	x4,x0,0
 1c8:	fff00093          	addi	x1,x0,-1
 1cc:	00000013          	addi	x0,x0,0
 1d0:	00000113          	addi	x2,x0,0
 1d4:	00000013          	addi	x0,x0,0
 1d8:	1420d463          	bge	x1,x2,320 <fail>
 1dc:	00120213          	addi	x4,x4,1 # 1 <_start+0x1>
 1e0:	00200293          	addi	x5,x0,2
 1e4:	fe5212e3          	bne	x4,x5,1c8 <test_16+0x8>

000001e8 <test_17>:
 1e8:	01100193          	addi	x3,x0,17
 1ec:	00000213          	addi	x4,x0,0
 1f0:	fff00093          	addi	x1,x0,-1
 1f4:	00000013          	addi	x0,x0,0
 1f8:	00000013          	addi	x0,x0,0
 1fc:	00000113          	addi	x2,x0,0
 200:	1220d063          	bge	x1,x2,320 <fail>
 204:	00120213          	addi	x4,x4,1 # 1 <_start+0x1>
 208:	00200293          	addi	x5,x0,2
 20c:	fe5212e3          	bne	x4,x5,1f0 <test_17+0x8>

00000210 <test_18>:
 210:	01200193          	addi	x3,x0,18
 214:	00000213          	addi	x4,x0,0
 218:	fff00093          	addi	x1,x0,-1
 21c:	00000113          	addi	x2,x0,0
 220:	1020d063          	bge	x1,x2,320 <fail>
 224:	00120213          	addi	x4,x4,1 # 1 <_start+0x1>
 228:	00200293          	addi	x5,x0,2
 22c:	fe5216e3          	bne	x4,x5,218 <test_18+0x8>

00000230 <test_19>:
 230:	01300193          	addi	x3,x0,19
 234:	00000213          	addi	x4,x0,0
 238:	fff00093          	addi	x1,x0,-1
 23c:	00000113          	addi	x2,x0,0
 240:	00000013          	addi	x0,x0,0
 244:	0c20de63          	bge	x1,x2,320 <fail>
 248:	00120213          	addi	x4,x4,1 # 1 <_start+0x1>
 24c:	00200293          	addi	x5,x0,2
 250:	fe5214e3          	bne	x4,x5,238 <test_19+0x8>

00000254 <test_20>:
 254:	01400193          	addi	x3,x0,20
 258:	00000213          	addi	x4,x0,0
 25c:	fff00093          	addi	x1,x0,-1
 260:	00000113          	addi	x2,x0,0
 264:	00000013          	addi	x0,x0,0
 268:	00000013          	addi	x0,x0,0
 26c:	0a20da63          	bge	x1,x2,320 <fail>
 270:	00120213          	addi	x4,x4,1 # 1 <_start+0x1>
 274:	00200293          	addi	x5,x0,2
 278:	fe5212e3          	bne	x4,x5,25c <test_20+0x8>

0000027c <test_21>:
 27c:	01500193          	addi	x3,x0,21
 280:	00000213          	addi	x4,x0,0
 284:	fff00093          	addi	x1,x0,-1
 288:	00000013          	addi	x0,x0,0
 28c:	00000113          	addi	x2,x0,0
 290:	0820d863          	bge	x1,x2,320 <fail>
 294:	00120213          	addi	x4,x4,1 # 1 <_start+0x1>
 298:	00200293          	addi	x5,x0,2
 29c:	fe5214e3          	bne	x4,x5,284 <test_21+0x8>

000002a0 <test_22>:
 2a0:	01600193          	addi	x3,x0,22
 2a4:	00000213          	addi	x4,x0,0
 2a8:	fff00093          	addi	x1,x0,-1
 2ac:	00000013          	addi	x0,x0,0
 2b0:	00000113          	addi	x2,x0,0
 2b4:	00000013          	addi	x0,x0,0
 2b8:	0620d463          	bge	x1,x2,320 <fail>
 2bc:	00120213          	addi	x4,x4,1 # 1 <_start+0x1>
 2c0:	00200293          	addi	x5,x0,2
 2c4:	fe5212e3          	bne	x4,x5,2a8 <test_22+0x8>

000002c8 <test_23>:
 2c8:	01700193          	addi	x3,x0,23
 2cc:	00000213          	addi	x4,x0,0
 2d0:	fff00093          	addi	x1,x0,-1
 2d4:	00000013          	addi	x0,x0,0
 2d8:	00000013          	addi	x0,x0,0
 2dc:	00000113          	addi	x2,x0,0
 2e0:	0420d063          	bge	x1,x2,320 <fail>
 2e4:	00120213          	addi	x4,x4,1 # 1 <_start+0x1>
 2e8:	00200293          	addi	x5,x0,2
 2ec:	fe5212e3          	bne	x4,x5,2d0 <test_23+0x8>

000002f0 <test_24>:
 2f0:	01800193          	addi	x3,x0,24
 2f4:	00100093          	addi	x1,x0,1
 2f8:	0000da63          	bge	x1,x0,30c <test_24+0x1c>
 2fc:	00108093          	addi	x1,x1,1
 300:	00108093          	addi	x1,x1,1
 304:	00108093          	addi	x1,x1,1
 308:	00108093          	addi	x1,x1,1
 30c:	00108093          	addi	x1,x1,1
 310:	00108093          	addi	x1,x1,1
 314:	00300393          	addi	x7,x0,3
 318:	00709463          	bne	x1,x7,320 <fail>
 31c:	02301063          	bne	x0,x3,33c <pass>

00000320 <fail>:
 320:	0ff0000f          	fence	iorw,iorw
 324:	00018063          	beq	x3,x0,324 <fail+0x4>
 328:	00119193          	slli	x3,x3,0x1
 32c:	0011e193          	ori	x3,x3,1
 330:	05d00893          	addi	x17,x0,93
 334:	00018513          	addi	x10,x3,0
 338:	00000073          	ecall

0000033c <pass>:
 33c:	0ff0000f          	fence	iorw,iorw
 340:	00100193          	addi	x3,x0,1
 344:	05d00893          	addi	x17,x0,93
 348:	00000513          	addi	x10,x0,0
 34c:	00000073          	ecall
 350:	c0001073          	unimp
	...

Disassembly of section .tohost:

00001000 <tohost>:
	...

00001040 <fromhost>:
	...
