
bgeu.elf:     file format elf32-littleriscv


Disassembly of section .text.init:

00000000 <_start>:
   0:	00200193          	addi	x3,x0,2
   4:	00000093          	addi	x1,x0,0
   8:	00000113          	addi	x2,x0,0
   c:	0020f663          	bgeu	x1,x2,18 <_start+0x18>
  10:	34301263          	bne	x0,x3,354 <fail>
  14:	00301663          	bne	x0,x3,20 <test_3>
  18:	fe20fee3          	bgeu	x1,x2,14 <_start+0x14>
  1c:	32301c63          	bne	x0,x3,354 <fail>

00000020 <test_3>:
  20:	00300193          	addi	x3,x0,3
  24:	00100093          	addi	x1,x0,1
  28:	00100113          	addi	x2,x0,1
  2c:	0020f663          	bgeu	x1,x2,38 <test_3+0x18>
  30:	32301263          	bne	x0,x3,354 <fail>
  34:	00301663          	bne	x0,x3,40 <test_4>
  38:	fe20fee3          	bgeu	x1,x2,34 <test_3+0x14>
  3c:	30301c63          	bne	x0,x3,354 <fail>

00000040 <test_4>:
  40:	00400193          	addi	x3,x0,4
  44:	fff00093          	addi	x1,x0,-1
  48:	fff00113          	addi	x2,x0,-1
  4c:	0020f663          	bgeu	x1,x2,58 <test_4+0x18>
  50:	30301263          	bne	x0,x3,354 <fail>
  54:	00301663          	bne	x0,x3,60 <test_5>
  58:	fe20fee3          	bgeu	x1,x2,54 <test_4+0x14>
  5c:	2e301c63          	bne	x0,x3,354 <fail>

00000060 <test_5>:
  60:	00500193          	addi	x3,x0,5
  64:	00100093          	addi	x1,x0,1
  68:	00000113          	addi	x2,x0,0
  6c:	0020f663          	bgeu	x1,x2,78 <test_5+0x18>
  70:	2e301263          	bne	x0,x3,354 <fail>
  74:	00301663          	bne	x0,x3,80 <test_6>
  78:	fe20fee3          	bgeu	x1,x2,74 <test_5+0x14>
  7c:	2c301c63          	bne	x0,x3,354 <fail>

00000080 <test_6>:
  80:	00600193          	addi	x3,x0,6
  84:	fff00093          	addi	x1,x0,-1
  88:	ffe00113          	addi	x2,x0,-2
  8c:	0020f663          	bgeu	x1,x2,98 <test_6+0x18>
  90:	2c301263          	bne	x0,x3,354 <fail>
  94:	00301663          	bne	x0,x3,a0 <test_7>
  98:	fe20fee3          	bgeu	x1,x2,94 <test_6+0x14>
  9c:	2a301c63          	bne	x0,x3,354 <fail>

000000a0 <test_7>:
  a0:	00700193          	addi	x3,x0,7
  a4:	fff00093          	addi	x1,x0,-1
  a8:	00000113          	addi	x2,x0,0
  ac:	0020f663          	bgeu	x1,x2,b8 <test_7+0x18>
  b0:	2a301263          	bne	x0,x3,354 <fail>
  b4:	00301663          	bne	x0,x3,c0 <test_8>
  b8:	fe20fee3          	bgeu	x1,x2,b4 <test_7+0x14>
  bc:	28301c63          	bne	x0,x3,354 <fail>

000000c0 <test_8>:
  c0:	00800193          	addi	x3,x0,8
  c4:	00000093          	addi	x1,x0,0
  c8:	00100113          	addi	x2,x0,1
  cc:	0020f463          	bgeu	x1,x2,d4 <test_8+0x14>
  d0:	00301463          	bne	x0,x3,d8 <test_8+0x18>
  d4:	28301063          	bne	x0,x3,354 <fail>
  d8:	fe20fee3          	bgeu	x1,x2,d4 <test_8+0x14>

000000dc <test_9>:
  dc:	00900193          	addi	x3,x0,9
  e0:	ffe00093          	addi	x1,x0,-2
  e4:	fff00113          	addi	x2,x0,-1
  e8:	0020f463          	bgeu	x1,x2,f0 <test_9+0x14>
  ec:	00301463          	bne	x0,x3,f4 <test_9+0x18>
  f0:	26301263          	bne	x0,x3,354 <fail>
  f4:	fe20fee3          	bgeu	x1,x2,f0 <test_9+0x14>

000000f8 <test_10>:
  f8:	00a00193          	addi	x3,x0,10
  fc:	00000093          	addi	x1,x0,0
 100:	fff00113          	addi	x2,x0,-1
 104:	0020f463          	bgeu	x1,x2,10c <test_10+0x14>
 108:	00301463          	bne	x0,x3,110 <test_10+0x18>
 10c:	24301463          	bne	x0,x3,354 <fail>
 110:	fe20fee3          	bgeu	x1,x2,10c <test_10+0x14>

00000114 <test_11>:
 114:	00b00193          	addi	x3,x0,11
 118:	800000b7          	lui	x1,0x80000
 11c:	fff08093          	addi	x1,x1,-1 # 7fffffff <_end+0x7fffdfff>
 120:	80000137          	lui	x2,0x80000
 124:	0020f463          	bgeu	x1,x2,12c <test_11+0x18>
 128:	00301463          	bne	x0,x3,130 <test_11+0x1c>
 12c:	22301463          	bne	x0,x3,354 <fail>
 130:	fe20fee3          	bgeu	x1,x2,12c <test_11+0x18>

00000134 <test_12>:
 134:	00c00193          	addi	x3,x0,12
 138:	00000213          	addi	x4,x0,0
 13c:	f00000b7          	lui	x1,0xf0000
 140:	fff08093          	addi	x1,x1,-1 # efffffff <_end+0xefffdfff>
 144:	f0000137          	lui	x2,0xf0000
 148:	2020f663          	bgeu	x1,x2,354 <fail>
 14c:	00120213          	addi	x4,x4,1 # 1 <_start+0x1>
 150:	00200293          	addi	x5,x0,2
 154:	fe5214e3          	bne	x4,x5,13c <test_12+0x8>

00000158 <test_13>:
 158:	00d00193          	addi	x3,x0,13
 15c:	00000213          	addi	x4,x0,0
 160:	f00000b7          	lui	x1,0xf0000
 164:	fff08093          	addi	x1,x1,-1 # efffffff <_end+0xefffdfff>
 168:	f0000137          	lui	x2,0xf0000
 16c:	00000013          	addi	x0,x0,0
 170:	1e20f263          	bgeu	x1,x2,354 <fail>
 174:	00120213          	addi	x4,x4,1 # 1 <_start+0x1>
 178:	00200293          	addi	x5,x0,2
 17c:	fe5212e3          	bne	x4,x5,160 <test_13+0x8>

00000180 <test_14>:
 180:	00e00193          	addi	x3,x0,14
 184:	00000213          	addi	x4,x0,0
 188:	f00000b7          	lui	x1,0xf0000
 18c:	fff08093          	addi	x1,x1,-1 # efffffff <_end+0xefffdfff>
 190:	f0000137          	lui	x2,0xf0000
 194:	00000013          	addi	x0,x0,0
 198:	00000013          	addi	x0,x0,0
 19c:	1a20fc63          	bgeu	x1,x2,354 <fail>
 1a0:	00120213          	addi	x4,x4,1 # 1 <_start+0x1>
 1a4:	00200293          	addi	x5,x0,2
 1a8:	fe5210e3          	bne	x4,x5,188 <test_14+0x8>

000001ac <test_15>:
 1ac:	00f00193          	addi	x3,x0,15
 1b0:	00000213          	addi	x4,x0,0
 1b4:	f00000b7          	lui	x1,0xf0000
 1b8:	fff08093          	addi	x1,x1,-1 # efffffff <_end+0xefffdfff>
 1bc:	00000013          	addi	x0,x0,0
 1c0:	f0000137          	lui	x2,0xf0000
 1c4:	1820f863          	bgeu	x1,x2,354 <fail>
 1c8:	00120213          	addi	x4,x4,1 # 1 <_start+0x1>
 1cc:	00200293          	addi	x5,x0,2
 1d0:	fe5212e3          	bne	x4,x5,1b4 <test_15+0x8>

000001d4 <test_16>:
 1d4:	01000193          	addi	x3,x0,16
 1d8:	00000213          	addi	x4,x0,0
 1dc:	f00000b7          	lui	x1,0xf0000
 1e0:	fff08093          	addi	x1,x1,-1 # efffffff <_end+0xefffdfff>
 1e4:	00000013          	addi	x0,x0,0
 1e8:	f0000137          	lui	x2,0xf0000
 1ec:	00000013          	addi	x0,x0,0
 1f0:	1620f263          	bgeu	x1,x2,354 <fail>
 1f4:	00120213          	addi	x4,x4,1 # 1 <_start+0x1>
 1f8:	00200293          	addi	x5,x0,2
 1fc:	fe5210e3          	bne	x4,x5,1dc <test_16+0x8>

00000200 <test_17>:
 200:	01100193          	addi	x3,x0,17
 204:	00000213          	addi	x4,x0,0
 208:	f00000b7          	lui	x1,0xf0000
 20c:	fff08093          	addi	x1,x1,-1 # efffffff <_end+0xefffdfff>
 210:	00000013          	addi	x0,x0,0
 214:	00000013          	addi	x0,x0,0
 218:	f0000137          	lui	x2,0xf0000
 21c:	1220fc63          	bgeu	x1,x2,354 <fail>
 220:	00120213          	addi	x4,x4,1 # 1 <_start+0x1>
 224:	00200293          	addi	x5,x0,2
 228:	fe5210e3          	bne	x4,x5,208 <test_17+0x8>

0000022c <test_18>:
 22c:	01200193          	addi	x3,x0,18
 230:	00000213          	addi	x4,x0,0
 234:	f00000b7          	lui	x1,0xf0000
 238:	fff08093          	addi	x1,x1,-1 # efffffff <_end+0xefffdfff>
 23c:	f0000137          	lui	x2,0xf0000
 240:	1020fa63          	bgeu	x1,x2,354 <fail>
 244:	00120213          	addi	x4,x4,1 # 1 <_start+0x1>
 248:	00200293          	addi	x5,x0,2
 24c:	fe5214e3          	bne	x4,x5,234 <test_18+0x8>

00000250 <test_19>:
 250:	01300193          	addi	x3,x0,19
 254:	00000213          	addi	x4,x0,0
 258:	f00000b7          	lui	x1,0xf0000
 25c:	fff08093          	addi	x1,x1,-1 # efffffff <_end+0xefffdfff>
 260:	f0000137          	lui	x2,0xf0000
 264:	00000013          	addi	x0,x0,0
 268:	0e20f663          	bgeu	x1,x2,354 <fail>
 26c:	00120213          	addi	x4,x4,1 # 1 <_start+0x1>
 270:	00200293          	addi	x5,x0,2
 274:	fe5212e3          	bne	x4,x5,258 <test_19+0x8>

00000278 <test_20>:
 278:	01400193          	addi	x3,x0,20
 27c:	00000213          	addi	x4,x0,0
 280:	f00000b7          	lui	x1,0xf0000
 284:	fff08093          	addi	x1,x1,-1 # efffffff <_end+0xefffdfff>
 288:	f0000137          	lui	x2,0xf0000
 28c:	00000013          	addi	x0,x0,0
 290:	00000013          	addi	x0,x0,0
 294:	0c20f063          	bgeu	x1,x2,354 <fail>
 298:	00120213          	addi	x4,x4,1 # 1 <_start+0x1>
 29c:	00200293          	addi	x5,x0,2
 2a0:	fe5210e3          	bne	x4,x5,280 <test_20+0x8>

000002a4 <test_21>:
 2a4:	01500193          	addi	x3,x0,21
 2a8:	00000213          	addi	x4,x0,0
 2ac:	f00000b7          	lui	x1,0xf0000
 2b0:	fff08093          	addi	x1,x1,-1 # efffffff <_end+0xefffdfff>
 2b4:	00000013          	addi	x0,x0,0
 2b8:	f0000137          	lui	x2,0xf0000
 2bc:	0820fc63          	bgeu	x1,x2,354 <fail>
 2c0:	00120213          	addi	x4,x4,1 # 1 <_start+0x1>
 2c4:	00200293          	addi	x5,x0,2
 2c8:	fe5212e3          	bne	x4,x5,2ac <test_21+0x8>

000002cc <test_22>:
 2cc:	01600193          	addi	x3,x0,22
 2d0:	00000213          	addi	x4,x0,0
 2d4:	f00000b7          	lui	x1,0xf0000
 2d8:	fff08093          	addi	x1,x1,-1 # efffffff <_end+0xefffdfff>
 2dc:	00000013          	addi	x0,x0,0
 2e0:	f0000137          	lui	x2,0xf0000
 2e4:	00000013          	addi	x0,x0,0
 2e8:	0620f663          	bgeu	x1,x2,354 <fail>
 2ec:	00120213          	addi	x4,x4,1 # 1 <_start+0x1>
 2f0:	00200293          	addi	x5,x0,2
 2f4:	fe5210e3          	bne	x4,x5,2d4 <test_22+0x8>

000002f8 <test_23>:
 2f8:	01700193          	addi	x3,x0,23
 2fc:	00000213          	addi	x4,x0,0
 300:	f00000b7          	lui	x1,0xf0000
 304:	fff08093          	addi	x1,x1,-1 # efffffff <_end+0xefffdfff>
 308:	00000013          	addi	x0,x0,0
 30c:	00000013          	addi	x0,x0,0
 310:	f0000137          	lui	x2,0xf0000
 314:	0420f063          	bgeu	x1,x2,354 <fail>
 318:	00120213          	addi	x4,x4,1 # 1 <_start+0x1>
 31c:	00200293          	addi	x5,x0,2
 320:	fe5210e3          	bne	x4,x5,300 <test_23+0x8>

00000324 <test_24>:
 324:	01800193          	addi	x3,x0,24
 328:	00100093          	addi	x1,x0,1
 32c:	0000fa63          	bgeu	x1,x0,340 <test_24+0x1c>
 330:	00108093          	addi	x1,x1,1
 334:	00108093          	addi	x1,x1,1
 338:	00108093          	addi	x1,x1,1
 33c:	00108093          	addi	x1,x1,1
 340:	00108093          	addi	x1,x1,1
 344:	00108093          	addi	x1,x1,1
 348:	00300393          	addi	x7,x0,3
 34c:	00709463          	bne	x1,x7,354 <fail>
 350:	02301063          	bne	x0,x3,370 <pass>

00000354 <fail>:
 354:	0ff0000f          	fence	iorw,iorw
 358:	00018063          	beq	x3,x0,358 <fail+0x4>
 35c:	00119193          	slli	x3,x3,0x1
 360:	0011e193          	ori	x3,x3,1
 364:	05d00893          	addi	x17,x0,93
 368:	00018513          	addi	x10,x3,0
 36c:	00000073          	ecall

00000370 <pass>:
 370:	0ff0000f          	fence	iorw,iorw
 374:	00100193          	addi	x3,x0,1
 378:	05d00893          	addi	x17,x0,93
 37c:	00000513          	addi	x10,x0,0
 380:	00000073          	ecall
 384:	c0001073          	unimp
	...

Disassembly of section .tohost:

00001000 <tohost>:
	...

00001040 <fromhost>:
	...
