
bne.elf:     file format elf32-littleriscv


Disassembly of section .text.init:

00000000 <_start>:
   0:	00200193          	addi	x3,x0,2
   4:	00000093          	addi	x1,x0,0
   8:	00100113          	addi	x2,x0,1
   c:	00209663          	bne	x1,x2,18 <_start+0x18>
  10:	2a301a63          	bne	x0,x3,2c4 <fail>
  14:	00301663          	bne	x0,x3,20 <test_3>
  18:	fe209ee3          	bne	x1,x2,14 <_start+0x14>
  1c:	2a301463          	bne	x0,x3,2c4 <fail>

00000020 <test_3>:
  20:	00300193          	addi	x3,x0,3
  24:	00100093          	addi	x1,x0,1
  28:	00000113          	addi	x2,x0,0
  2c:	00209663          	bne	x1,x2,38 <test_3+0x18>
  30:	28301a63          	bne	x0,x3,2c4 <fail>
  34:	00301663          	bne	x0,x3,40 <test_4>
  38:	fe209ee3          	bne	x1,x2,34 <test_3+0x14>
  3c:	28301463          	bne	x0,x3,2c4 <fail>

00000040 <test_4>:
  40:	00400193          	addi	x3,x0,4
  44:	fff00093          	addi	x1,x0,-1
  48:	00100113          	addi	x2,x0,1
  4c:	00209663          	bne	x1,x2,58 <test_4+0x18>
  50:	26301a63          	bne	x0,x3,2c4 <fail>
  54:	00301663          	bne	x0,x3,60 <test_5>
  58:	fe209ee3          	bne	x1,x2,54 <test_4+0x14>
  5c:	26301463          	bne	x0,x3,2c4 <fail>

00000060 <test_5>:
  60:	00500193          	addi	x3,x0,5
  64:	00100093          	addi	x1,x0,1
  68:	fff00113          	addi	x2,x0,-1
  6c:	00209663          	bne	x1,x2,78 <test_5+0x18>
  70:	24301a63          	bne	x0,x3,2c4 <fail>
  74:	00301663          	bne	x0,x3,80 <test_6>
  78:	fe209ee3          	bne	x1,x2,74 <test_5+0x14>
  7c:	24301463          	bne	x0,x3,2c4 <fail>

00000080 <test_6>:
  80:	00600193          	addi	x3,x0,6
  84:	00000093          	addi	x1,x0,0
  88:	00000113          	addi	x2,x0,0
  8c:	00209463          	bne	x1,x2,94 <test_6+0x14>
  90:	00301463          	bne	x0,x3,98 <test_6+0x18>
  94:	22301863          	bne	x0,x3,2c4 <fail>
  98:	fe209ee3          	bne	x1,x2,94 <test_6+0x14>

0000009c <test_7>:
  9c:	00700193          	addi	x3,x0,7
  a0:	00100093          	addi	x1,x0,1
  a4:	00100113          	addi	x2,x0,1
  a8:	00209463          	bne	x1,x2,b0 <test_7+0x14>
  ac:	00301463          	bne	x0,x3,b4 <test_7+0x18>
  b0:	20301a63          	bne	x0,x3,2c4 <fail>
  b4:	fe209ee3          	bne	x1,x2,b0 <test_7+0x14>

000000b8 <test_8>:
  b8:	00800193          	addi	x3,x0,8
  bc:	fff00093          	addi	x1,x0,-1
  c0:	fff00113          	addi	x2,x0,-1
  c4:	00209463          	bne	x1,x2,cc <test_8+0x14>
  c8:	00301463          	bne	x0,x3,d0 <test_8+0x18>
  cc:	1e301c63          	bne	x0,x3,2c4 <fail>
  d0:	fe209ee3          	bne	x1,x2,cc <test_8+0x14>

000000d4 <test_9>:
  d4:	00900193          	addi	x3,x0,9
  d8:	00000213          	addi	x4,x0,0
  dc:	00000093          	addi	x1,x0,0
  e0:	00000113          	addi	x2,x0,0
  e4:	1e209063          	bne	x1,x2,2c4 <fail>
  e8:	00120213          	addi	x4,x4,1 # 1 <_start+0x1>
  ec:	00200293          	addi	x5,x0,2
  f0:	fe5216e3          	bne	x4,x5,dc <test_9+0x8>

000000f4 <test_10>:
  f4:	00a00193          	addi	x3,x0,10
  f8:	00000213          	addi	x4,x0,0
  fc:	00000093          	addi	x1,x0,0
 100:	00000113          	addi	x2,x0,0
 104:	00000013          	addi	x0,x0,0
 108:	1a209e63          	bne	x1,x2,2c4 <fail>
 10c:	00120213          	addi	x4,x4,1 # 1 <_start+0x1>
 110:	00200293          	addi	x5,x0,2
 114:	fe5214e3          	bne	x4,x5,fc <test_10+0x8>

00000118 <test_11>:
 118:	00b00193          	addi	x3,x0,11
 11c:	00000213          	addi	x4,x0,0
 120:	00000093          	addi	x1,x0,0
 124:	00000113          	addi	x2,x0,0
 128:	00000013          	addi	x0,x0,0
 12c:	00000013          	addi	x0,x0,0
 130:	18209a63          	bne	x1,x2,2c4 <fail>
 134:	00120213          	addi	x4,x4,1 # 1 <_start+0x1>
 138:	00200293          	addi	x5,x0,2
 13c:	fe5212e3          	bne	x4,x5,120 <test_11+0x8>

00000140 <test_12>:
 140:	00c00193          	addi	x3,x0,12
 144:	00000213          	addi	x4,x0,0
 148:	00000093          	addi	x1,x0,0
 14c:	00000013          	addi	x0,x0,0
 150:	00000113          	addi	x2,x0,0
 154:	16209863          	bne	x1,x2,2c4 <fail>
 158:	00120213          	addi	x4,x4,1 # 1 <_start+0x1>
 15c:	00200293          	addi	x5,x0,2
 160:	fe5214e3          	bne	x4,x5,148 <test_12+0x8>

00000164 <test_13>:
 164:	00d00193          	addi	x3,x0,13
 168:	00000213          	addi	x4,x0,0
 16c:	00000093          	addi	x1,x0,0
 170:	00000013          	addi	x0,x0,0
 174:	00000113          	addi	x2,x0,0
 178:	00000013          	addi	x0,x0,0
 17c:	14209463          	bne	x1,x2,2c4 <fail>
 180:	00120213          	addi	x4,x4,1 # 1 <_start+0x1>
 184:	00200293          	addi	x5,x0,2
 188:	fe5212e3          	bne	x4,x5,16c <test_13+0x8>

0000018c <test_14>:
 18c:	00e00193          	addi	x3,x0,14
 190:	00000213          	addi	x4,x0,0
 194:	00000093          	addi	x1,x0,0
 198:	00000013          	addi	x0,x0,0
 19c:	00000013          	addi	x0,x0,0
 1a0:	00000113          	addi	x2,x0,0
 1a4:	12209063          	bne	x1,x2,2c4 <fail>
 1a8:	00120213          	addi	x4,x4,1 # 1 <_start+0x1>
 1ac:	00200293          	addi	x5,x0,2
 1b0:	fe5212e3          	bne	x4,x5,194 <test_14+0x8>

000001b4 <test_15>:
 1b4:	00f00193          	addi	x3,x0,15
 1b8:	00000213          	addi	x4,x0,0
 1bc:	00000093          	addi	x1,x0,0
 1c0:	00000113          	addi	x2,x0,0
 1c4:	10209063          	bne	x1,x2,2c4 <fail>
 1c8:	00120213          	addi	x4,x4,1 # 1 <_start+0x1>
 1cc:	00200293          	addi	x5,x0,2
 1d0:	fe5216e3          	bne	x4,x5,1bc <test_15+0x8>

000001d4 <test_16>:
 1d4:	01000193          	addi	x3,x0,16
 1d8:	00000213          	addi	x4,x0,0
 1dc:	00000093          	addi	x1,x0,0
 1e0:	00000113          	addi	x2,x0,0
 1e4:	00000013          	addi	x0,x0,0
 1e8:	0c209e63          	bne	x1,x2,2c4 <fail>
 1ec:	00120213          	addi	x4,x4,1 # 1 <_start+0x1>
 1f0:	00200293          	addi	x5,x0,2
 1f4:	fe5214e3          	bne	x4,x5,1dc <test_16+0x8>

000001f8 <test_17>:
 1f8:	01100193          	addi	x3,x0,17
 1fc:	00000213          	addi	x4,x0,0
 200:	00000093          	addi	x1,x0,0
 204:	00000113          	addi	x2,x0,0
 208:	00000013          	addi	x0,x0,0
 20c:	00000013          	addi	x0,x0,0
 210:	0a209a63          	bne	x1,x2,2c4 <fail>
 214:	00120213          	addi	x4,x4,1 # 1 <_start+0x1>
 218:	00200293          	addi	x5,x0,2
 21c:	fe5212e3          	bne	x4,x5,200 <test_17+0x8>

00000220 <test_18>:
 220:	01200193          	addi	x3,x0,18
 224:	00000213          	addi	x4,x0,0
 228:	00000093          	addi	x1,x0,0
 22c:	00000013          	addi	x0,x0,0
 230:	00000113          	addi	x2,x0,0
 234:	08209863          	bne	x1,x2,2c4 <fail>
 238:	00120213          	addi	x4,x4,1 # 1 <_start+0x1>
 23c:	00200293          	addi	x5,x0,2
 240:	fe5214e3          	bne	x4,x5,228 <test_18+0x8>

00000244 <test_19>:
 244:	01300193          	addi	x3,x0,19
 248:	00000213          	addi	x4,x0,0
 24c:	00000093          	addi	x1,x0,0
 250:	00000013          	addi	x0,x0,0
 254:	00000113          	addi	x2,x0,0
 258:	00000013          	addi	x0,x0,0
 25c:	06209463          	bne	x1,x2,2c4 <fail>
 260:	00120213          	addi	x4,x4,1 # 1 <_start+0x1>
 264:	00200293          	addi	x5,x0,2
 268:	fe5212e3          	bne	x4,x5,24c <test_19+0x8>

0000026c <test_20>:
 26c:	01400193          	addi	x3,x0,20
 270:	00000213          	addi	x4,x0,0
 274:	00000093          	addi	x1,x0,0
 278:	00000013          	addi	x0,x0,0
 27c:	00000013          	addi	x0,x0,0
 280:	00000113          	addi	x2,x0,0
 284:	04209063          	bne	x1,x2,2c4 <fail>
 288:	00120213          	addi	x4,x4,1 # 1 <_start+0x1>
 28c:	00200293          	addi	x5,x0,2
 290:	fe5212e3          	bne	x4,x5,274 <test_20+0x8>

00000294 <test_21>:
 294:	01500193          	addi	x3,x0,21
 298:	00100093          	addi	x1,x0,1
 29c:	00009a63          	bne	x1,x0,2b0 <test_21+0x1c>
 2a0:	00108093          	addi	x1,x1,1
 2a4:	00108093          	addi	x1,x1,1
 2a8:	00108093          	addi	x1,x1,1
 2ac:	00108093          	addi	x1,x1,1
 2b0:	00108093          	addi	x1,x1,1
 2b4:	00108093          	addi	x1,x1,1
 2b8:	00300393          	addi	x7,x0,3
 2bc:	00709463          	bne	x1,x7,2c4 <fail>
 2c0:	02301063          	bne	x0,x3,2e0 <pass>

000002c4 <fail>:
 2c4:	0ff0000f          	fence	iorw,iorw
 2c8:	00018063          	beq	x3,x0,2c8 <fail+0x4>
 2cc:	00119193          	slli	x3,x3,0x1
 2d0:	0011e193          	ori	x3,x3,1
 2d4:	05d00893          	addi	x17,x0,93
 2d8:	00018513          	addi	x10,x3,0
 2dc:	00000073          	ecall

000002e0 <pass>:
 2e0:	0ff0000f          	fence	iorw,iorw
 2e4:	00100193          	addi	x3,x0,1
 2e8:	05d00893          	addi	x17,x0,93
 2ec:	00000513          	addi	x10,x0,0
 2f0:	00000073          	ecall
 2f4:	c0001073          	unimp
	...

Disassembly of section .tohost:

00001000 <tohost>:
	...

00001040 <fromhost>:
	...
