
jalr.elf:     file format elf32-littleriscv


Disassembly of section .text.init:

00000000 <_start>:
   0:	00200193          	addi	x3,x0,2
   4:	00000293          	addi	x5,x0,0
   8:	00000317          	auipc	x6,0x0
   c:	01030313          	addi	x6,x6,16 # 18 <target_2>
  10:	000302e7          	jalr	x5,0(x6)

00000014 <linkaddr_2>:
  14:	0e00006f          	jal	x0,f4 <fail>

00000018 <target_2>:
  18:	00000317          	auipc	x6,0x0
  1c:	ffc30313          	addi	x6,x6,-4 # 14 <linkaddr_2>
  20:	0c629a63          	bne	x5,x6,f4 <fail>

00000024 <test_3>:
  24:	00300193          	addi	x3,x0,3
  28:	00000297          	auipc	x5,0x0
  2c:	01028293          	addi	x5,x5,16 # 38 <target_3>
  30:	000282e7          	jalr	x5,0(x5)

00000034 <linkaddr_3>:
  34:	0c00006f          	jal	x0,f4 <fail>

00000038 <target_3>:
  38:	00000317          	auipc	x6,0x0
  3c:	ffc30313          	addi	x6,x6,-4 # 34 <linkaddr_3>
  40:	0a629a63          	bne	x5,x6,f4 <fail>

00000044 <test_4>:
  44:	00400193          	addi	x3,x0,4
  48:	00000213          	addi	x4,x0,0
  4c:	00000317          	auipc	x6,0x0
  50:	01030313          	addi	x6,x6,16 # 5c <test_4+0x18>
  54:	000306e7          	jalr	x13,0(x6)
  58:	08301e63          	bne	x0,x3,f4 <fail>
  5c:	00120213          	addi	x4,x4,1 # 1 <_start+0x1>
  60:	00200293          	addi	x5,x0,2
  64:	fe5214e3          	bne	x4,x5,4c <test_4+0x8>

00000068 <test_5>:
  68:	00500193          	addi	x3,x0,5
  6c:	00000213          	addi	x4,x0,0
  70:	00000317          	auipc	x6,0x0
  74:	01430313          	addi	x6,x6,20 # 84 <test_5+0x1c>
  78:	00000013          	addi	x0,x0,0
  7c:	000306e7          	jalr	x13,0(x6)
  80:	06301a63          	bne	x0,x3,f4 <fail>
  84:	00120213          	addi	x4,x4,1 # 1 <_start+0x1>
  88:	00200293          	addi	x5,x0,2
  8c:	fe5212e3          	bne	x4,x5,70 <test_5+0x8>

00000090 <test_6>:
  90:	00600193          	addi	x3,x0,6
  94:	00000213          	addi	x4,x0,0
  98:	00000317          	auipc	x6,0x0
  9c:	01830313          	addi	x6,x6,24 # b0 <test_6+0x20>
  a0:	00000013          	addi	x0,x0,0
  a4:	00000013          	addi	x0,x0,0
  a8:	000306e7          	jalr	x13,0(x6)
  ac:	04301463          	bne	x0,x3,f4 <fail>
  b0:	00120213          	addi	x4,x4,1 # 1 <_start+0x1>
  b4:	00200293          	addi	x5,x0,2
  b8:	fe5210e3          	bne	x4,x5,98 <test_6+0x8>

000000bc <test_7>:
  bc:	00700193          	addi	x3,x0,7
  c0:	00100293          	addi	x5,x0,1
  c4:	00000317          	auipc	x6,0x0
  c8:	01c30313          	addi	x6,x6,28 # e0 <test_7+0x24>
  cc:	ffc30067          	jalr	x0,-4(x6)
  d0:	00128293          	addi	x5,x5,1
  d4:	00128293          	addi	x5,x5,1
  d8:	00128293          	addi	x5,x5,1
  dc:	00128293          	addi	x5,x5,1
  e0:	00128293          	addi	x5,x5,1
  e4:	00128293          	addi	x5,x5,1
  e8:	00400393          	addi	x7,x0,4
  ec:	00729463          	bne	x5,x7,f4 <fail>
  f0:	02301063          	bne	x0,x3,110 <pass>

000000f4 <fail>:
  f4:	0ff0000f          	fence	iorw,iorw
  f8:	00018063          	beq	x3,x0,f8 <fail+0x4>
  fc:	00119193          	slli	x3,x3,0x1
 100:	0011e193          	ori	x3,x3,1
 104:	05d00893          	addi	x17,x0,93
 108:	00018513          	addi	x10,x3,0
 10c:	00000073          	ecall

00000110 <pass>:
 110:	0ff0000f          	fence	iorw,iorw
 114:	00100193          	addi	x3,x0,1
 118:	05d00893          	addi	x17,x0,93
 11c:	00000513          	addi	x10,x0,0
 120:	00000073          	ecall
 124:	c0001073          	unimp
	...

Disassembly of section .tohost:

00001000 <tohost>:
	...

00001040 <fromhost>:
	...
