
lbu.elf:     file format elf32-littleriscv


Disassembly of section .text.init:

00000000 <_start>:
   0:	00200193          	addi	x3,x0,2
   4:	0ff00793          	addi	x15,x0,255
   8:	00002097          	auipc	x1,0x2
   c:	ff808093          	addi	x1,x1,-8 # 2000 <begin_signature>
  10:	0000c703          	lbu	x14,0(x1)
  14:	0ff00393          	addi	x7,x0,255
  18:	24771a63          	bne	x14,x7,26c <fail>

0000001c <test_3>:
  1c:	00300193          	addi	x3,x0,3
  20:	00000793          	addi	x15,x0,0
  24:	00002097          	auipc	x1,0x2
  28:	fdc08093          	addi	x1,x1,-36 # 2000 <begin_signature>
  2c:	0010c703          	lbu	x14,1(x1)
  30:	00000393          	addi	x7,x0,0
  34:	22771c63          	bne	x14,x7,26c <fail>

00000038 <test_4>:
  38:	00400193          	addi	x3,x0,4
  3c:	0f000793          	addi	x15,x0,240
  40:	00002097          	auipc	x1,0x2
  44:	fc008093          	addi	x1,x1,-64 # 2000 <begin_signature>
  48:	0020c703          	lbu	x14,2(x1)
  4c:	0f000393          	addi	x7,x0,240
  50:	20771e63          	bne	x14,x7,26c <fail>

00000054 <test_5>:
  54:	00500193          	addi	x3,x0,5
  58:	00f00793          	addi	x15,x0,15
  5c:	00002097          	auipc	x1,0x2
  60:	fa408093          	addi	x1,x1,-92 # 2000 <begin_signature>
  64:	0030c703          	lbu	x14,3(x1)
  68:	00f00393          	addi	x7,x0,15
  6c:	20771063          	bne	x14,x7,26c <fail>

00000070 <test_6>:
  70:	00600193          	addi	x3,x0,6
  74:	0ff00793          	addi	x15,x0,255
  78:	00002097          	auipc	x1,0x2
  7c:	f8b08093          	addi	x1,x1,-117 # 2003 <tdat4>
  80:	ffd0c703          	lbu	x14,-3(x1)
  84:	0ff00393          	addi	x7,x0,255
  88:	1e771263          	bne	x14,x7,26c <fail>

0000008c <test_7>:
  8c:	00700193          	addi	x3,x0,7
  90:	00000793          	addi	x15,x0,0
  94:	00002097          	auipc	x1,0x2
  98:	f6f08093          	addi	x1,x1,-145 # 2003 <tdat4>
  9c:	ffe0c703          	lbu	x14,-2(x1)
  a0:	00000393          	addi	x7,x0,0
  a4:	1c771463          	bne	x14,x7,26c <fail>

000000a8 <test_8>:
  a8:	00800193          	addi	x3,x0,8
  ac:	0f000793          	addi	x15,x0,240
  b0:	00002097          	auipc	x1,0x2
  b4:	f5308093          	addi	x1,x1,-173 # 2003 <tdat4>
  b8:	fff0c703          	lbu	x14,-1(x1)
  bc:	0f000393          	addi	x7,x0,240
  c0:	1a771663          	bne	x14,x7,26c <fail>

000000c4 <test_9>:
  c4:	00900193          	addi	x3,x0,9
  c8:	00f00793          	addi	x15,x0,15
  cc:	00002097          	auipc	x1,0x2
  d0:	f3708093          	addi	x1,x1,-201 # 2003 <tdat4>
  d4:	0000c703          	lbu	x14,0(x1)
  d8:	00f00393          	addi	x7,x0,15
  dc:	18771863          	bne	x14,x7,26c <fail>

000000e0 <test_10>:
  e0:	00a00193          	addi	x3,x0,10
  e4:	00002097          	auipc	x1,0x2
  e8:	f1c08093          	addi	x1,x1,-228 # 2000 <begin_signature>
  ec:	fe008093          	addi	x1,x1,-32
  f0:	0200c283          	lbu	x5,32(x1)
  f4:	0ff00393          	addi	x7,x0,255
  f8:	16729a63          	bne	x5,x7,26c <fail>

000000fc <test_11>:
  fc:	00b00193          	addi	x3,x0,11
 100:	00002097          	auipc	x1,0x2
 104:	f0008093          	addi	x1,x1,-256 # 2000 <begin_signature>
 108:	ffa08093          	addi	x1,x1,-6
 10c:	0070c283          	lbu	x5,7(x1)
 110:	00000393          	addi	x7,x0,0
 114:	14729c63          	bne	x5,x7,26c <fail>

00000118 <test_12>:
 118:	00c00193          	addi	x3,x0,12
 11c:	00000213          	addi	x4,x0,0
 120:	00002097          	auipc	x1,0x2
 124:	ee108093          	addi	x1,x1,-287 # 2001 <tdat2>
 128:	0010c703          	lbu	x14,1(x1)
 12c:	00070313          	addi	x6,x14,0
 130:	0f000393          	addi	x7,x0,240
 134:	12731c63          	bne	x6,x7,26c <fail>
 138:	00120213          	addi	x4,x4,1 # 1 <_start+0x1>
 13c:	00200293          	addi	x5,x0,2
 140:	fe5210e3          	bne	x4,x5,120 <test_12+0x8>

00000144 <test_13>:
 144:	00d00193          	addi	x3,x0,13
 148:	00000213          	addi	x4,x0,0
 14c:	00002097          	auipc	x1,0x2
 150:	eb608093          	addi	x1,x1,-330 # 2002 <tdat3>
 154:	0010c703          	lbu	x14,1(x1)
 158:	00000013          	addi	x0,x0,0
 15c:	00070313          	addi	x6,x14,0
 160:	00f00393          	addi	x7,x0,15
 164:	10731463          	bne	x6,x7,26c <fail>
 168:	00120213          	addi	x4,x4,1 # 1 <_start+0x1>
 16c:	00200293          	addi	x5,x0,2
 170:	fc521ee3          	bne	x4,x5,14c <test_13+0x8>

00000174 <test_14>:
 174:	00e00193          	addi	x3,x0,14
 178:	00000213          	addi	x4,x0,0
 17c:	00002097          	auipc	x1,0x2
 180:	e8408093          	addi	x1,x1,-380 # 2000 <begin_signature>
 184:	0010c703          	lbu	x14,1(x1)
 188:	00000013          	addi	x0,x0,0
 18c:	00000013          	addi	x0,x0,0
 190:	00070313          	addi	x6,x14,0
 194:	00000393          	addi	x7,x0,0
 198:	0c731a63          	bne	x6,x7,26c <fail>
 19c:	00120213          	addi	x4,x4,1 # 1 <_start+0x1>
 1a0:	00200293          	addi	x5,x0,2
 1a4:	fc521ce3          	bne	x4,x5,17c <test_14+0x8>

000001a8 <test_15>:
 1a8:	00f00193          	addi	x3,x0,15
 1ac:	00000213          	addi	x4,x0,0
 1b0:	00002097          	auipc	x1,0x2
 1b4:	e5108093          	addi	x1,x1,-431 # 2001 <tdat2>
 1b8:	0010c703          	lbu	x14,1(x1)
 1bc:	0f000393          	addi	x7,x0,240
 1c0:	0a771663          	bne	x14,x7,26c <fail>
 1c4:	00120213          	addi	x4,x4,1 # 1 <_start+0x1>
 1c8:	00200293          	addi	x5,x0,2
 1cc:	fe5212e3          	bne	x4,x5,1b0 <test_15+0x8>

000001d0 <test_16>:
 1d0:	01000193          	addi	x3,x0,16
 1d4:	00000213          	addi	x4,x0,0
 1d8:	00002097          	auipc	x1,0x2
 1dc:	e2a08093          	addi	x1,x1,-470 # 2002 <tdat3>
 1e0:	00000013          	addi	x0,x0,0
 1e4:	0010c703          	lbu	x14,1(x1)
 1e8:	00f00393          	addi	x7,x0,15
 1ec:	08771063          	bne	x14,x7,26c <fail>
 1f0:	00120213          	addi	x4,x4,1 # 1 <_start+0x1>
 1f4:	00200293          	addi	x5,x0,2
 1f8:	fe5210e3          	bne	x4,x5,1d8 <test_16+0x8>

000001fc <test_17>:
 1fc:	01100193          	addi	x3,x0,17
 200:	00000213          	addi	x4,x0,0
 204:	00002097          	auipc	x1,0x2
 208:	dfc08093          	addi	x1,x1,-516 # 2000 <begin_signature>
 20c:	00000013          	addi	x0,x0,0
 210:	00000013          	addi	x0,x0,0
 214:	0010c703          	lbu	x14,1(x1)
 218:	00000393          	addi	x7,x0,0
 21c:	04771863          	bne	x14,x7,26c <fail>
 220:	00120213          	addi	x4,x4,1 # 1 <_start+0x1>
 224:	00200293          	addi	x5,x0,2
 228:	fc521ee3          	bne	x4,x5,204 <test_17+0x8>

0000022c <test_18>:
 22c:	01200193          	addi	x3,x0,18
 230:	00002297          	auipc	x5,0x2
 234:	dd028293          	addi	x5,x5,-560 # 2000 <begin_signature>
 238:	0002c103          	lbu	x2,0(x5)
 23c:	00200113          	addi	x2,x0,2
 240:	00200393          	addi	x7,x0,2
 244:	02711463          	bne	x2,x7,26c <fail>

00000248 <test_19>:
 248:	01300193          	addi	x3,x0,19
 24c:	00002297          	auipc	x5,0x2
 250:	db428293          	addi	x5,x5,-588 # 2000 <begin_signature>
 254:	0002c103          	lbu	x2,0(x5)
 258:	00000013          	addi	x0,x0,0
 25c:	00200113          	addi	x2,x0,2
 260:	00200393          	addi	x7,x0,2
 264:	00711463          	bne	x2,x7,26c <fail>
 268:	02301063          	bne	x0,x3,288 <pass>

0000026c <fail>:
 26c:	0ff0000f          	fence	iorw,iorw
 270:	00018063          	beq	x3,x0,270 <fail+0x4>
 274:	00119193          	slli	x3,x3,0x1
 278:	0011e193          	ori	x3,x3,1
 27c:	05d00893          	addi	x17,x0,93
 280:	00018513          	addi	x10,x3,0
 284:	00000073          	ecall

00000288 <pass>:
 288:	0ff0000f          	fence	iorw,iorw
 28c:	00100193          	addi	x3,x0,1
 290:	05d00893          	addi	x17,x0,93
 294:	00000513          	addi	x10,x0,0
 298:	00000073          	ecall
 29c:	c0001073          	unimp
	...

Disassembly of section .tohost:

00001000 <tohost>:
	...

00001040 <fromhost>:
	...
