
lhu.elf:     file format elf32-littleriscv


Disassembly of section .text.init:

00000000 <_start>:
   0:	00200193          	addi	x3,x0,2
   4:	0ff00793          	addi	x15,x0,255
   8:	00002097          	auipc	x1,0x2
   c:	ff808093          	addi	x1,x1,-8 # 2000 <begin_signature>
  10:	0000d703          	lhu	x14,0(x1)
  14:	0ff00393          	addi	x7,x0,255
  18:	2a771063          	bne	x14,x7,2b8 <fail>

0000001c <test_3>:
  1c:	00300193          	addi	x3,x0,3
  20:	000107b7          	lui	x15,0x10
  24:	f0078793          	addi	x15,x15,-256 # ff00 <_end+0xdef0>
  28:	00002097          	auipc	x1,0x2
  2c:	fd808093          	addi	x1,x1,-40 # 2000 <begin_signature>
  30:	0020d703          	lhu	x14,2(x1)
  34:	000103b7          	lui	x7,0x10
  38:	f0038393          	addi	x7,x7,-256 # ff00 <_end+0xdef0>
  3c:	26771e63          	bne	x14,x7,2b8 <fail>

00000040 <test_4>:
  40:	00400193          	addi	x3,x0,4
  44:	000017b7          	lui	x15,0x1
  48:	ff078793          	addi	x15,x15,-16 # ff0 <pass+0xd1c>
  4c:	00002097          	auipc	x1,0x2
  50:	fb408093          	addi	x1,x1,-76 # 2000 <begin_signature>
  54:	0040d703          	lhu	x14,4(x1)
  58:	000013b7          	lui	x7,0x1
  5c:	ff038393          	addi	x7,x7,-16 # ff0 <pass+0xd1c>
  60:	24771c63          	bne	x14,x7,2b8 <fail>

00000064 <test_5>:
  64:	00500193          	addi	x3,x0,5
  68:	0000f7b7          	lui	x15,0xf
  6c:	00f78793          	addi	x15,x15,15 # f00f <_end+0xcfff>
  70:	00002097          	auipc	x1,0x2
  74:	f9008093          	addi	x1,x1,-112 # 2000 <begin_signature>
  78:	0060d703          	lhu	x14,6(x1)
  7c:	0000f3b7          	lui	x7,0xf
  80:	00f38393          	addi	x7,x7,15 # f00f <_end+0xcfff>
  84:	22771a63          	bne	x14,x7,2b8 <fail>

00000088 <test_6>:
  88:	00600193          	addi	x3,x0,6
  8c:	0ff00793          	addi	x15,x0,255
  90:	00002097          	auipc	x1,0x2
  94:	f7608093          	addi	x1,x1,-138 # 2006 <tdat4>
  98:	ffa0d703          	lhu	x14,-6(x1)
  9c:	0ff00393          	addi	x7,x0,255
  a0:	20771c63          	bne	x14,x7,2b8 <fail>

000000a4 <test_7>:
  a4:	00700193          	addi	x3,x0,7
  a8:	000107b7          	lui	x15,0x10
  ac:	f0078793          	addi	x15,x15,-256 # ff00 <_end+0xdef0>
  b0:	00002097          	auipc	x1,0x2
  b4:	f5608093          	addi	x1,x1,-170 # 2006 <tdat4>
  b8:	ffc0d703          	lhu	x14,-4(x1)
  bc:	000103b7          	lui	x7,0x10
  c0:	f0038393          	addi	x7,x7,-256 # ff00 <_end+0xdef0>
  c4:	1e771a63          	bne	x14,x7,2b8 <fail>

000000c8 <test_8>:
  c8:	00800193          	addi	x3,x0,8
  cc:	000017b7          	lui	x15,0x1
  d0:	ff078793          	addi	x15,x15,-16 # ff0 <pass+0xd1c>
  d4:	00002097          	auipc	x1,0x2
  d8:	f3208093          	addi	x1,x1,-206 # 2006 <tdat4>
  dc:	ffe0d703          	lhu	x14,-2(x1)
  e0:	000013b7          	lui	x7,0x1
  e4:	ff038393          	addi	x7,x7,-16 # ff0 <pass+0xd1c>
  e8:	1c771863          	bne	x14,x7,2b8 <fail>

000000ec <test_9>:
  ec:	00900193          	addi	x3,x0,9
  f0:	0000f7b7          	lui	x15,0xf
  f4:	00f78793          	addi	x15,x15,15 # f00f <_end+0xcfff>
  f8:	00002097          	auipc	x1,0x2
  fc:	f0e08093          	addi	x1,x1,-242 # 2006 <tdat4>
 100:	0000d703          	lhu	x14,0(x1)
 104:	0000f3b7          	lui	x7,0xf
 108:	00f38393          	addi	x7,x7,15 # f00f <_end+0xcfff>
 10c:	1a771663          	bne	x14,x7,2b8 <fail>

00000110 <test_10>:
 110:	00a00193          	addi	x3,x0,10
 114:	00002097          	auipc	x1,0x2
 118:	eec08093          	addi	x1,x1,-276 # 2000 <begin_signature>
 11c:	fe008093          	addi	x1,x1,-32
 120:	0200d283          	lhu	x5,32(x1)
 124:	0ff00393          	addi	x7,x0,255
 128:	18729863          	bne	x5,x7,2b8 <fail>

0000012c <test_11>:
 12c:	00b00193          	addi	x3,x0,11
 130:	00002097          	auipc	x1,0x2
 134:	ed008093          	addi	x1,x1,-304 # 2000 <begin_signature>
 138:	ffb08093          	addi	x1,x1,-5
 13c:	0070d283          	lhu	x5,7(x1)
 140:	000103b7          	lui	x7,0x10
 144:	f0038393          	addi	x7,x7,-256 # ff00 <_end+0xdef0>
 148:	16729863          	bne	x5,x7,2b8 <fail>

0000014c <test_12>:
 14c:	00c00193          	addi	x3,x0,12
 150:	00000213          	addi	x4,x0,0
 154:	00002097          	auipc	x1,0x2
 158:	eae08093          	addi	x1,x1,-338 # 2002 <tdat2>
 15c:	0020d703          	lhu	x14,2(x1)
 160:	00070313          	addi	x6,x14,0
 164:	000013b7          	lui	x7,0x1
 168:	ff038393          	addi	x7,x7,-16 # ff0 <pass+0xd1c>
 16c:	14731663          	bne	x6,x7,2b8 <fail>
 170:	00120213          	addi	x4,x4,1 # 1 <_start+0x1>
 174:	00200293          	addi	x5,x0,2
 178:	fc521ee3          	bne	x4,x5,154 <test_12+0x8>

0000017c <test_13>:
 17c:	00d00193          	addi	x3,x0,13
 180:	00000213          	addi	x4,x0,0
 184:	00002097          	auipc	x1,0x2
 188:	e8008093          	addi	x1,x1,-384 # 2004 <tdat3>
 18c:	0020d703          	lhu	x14,2(x1)
 190:	00000013          	addi	x0,x0,0
 194:	00070313          	addi	x6,x14,0
 198:	0000f3b7          	lui	x7,0xf
 19c:	00f38393          	addi	x7,x7,15 # f00f <_end+0xcfff>
 1a0:	10731c63          	bne	x6,x7,2b8 <fail>
 1a4:	00120213          	addi	x4,x4,1 # 1 <_start+0x1>
 1a8:	00200293          	addi	x5,x0,2
 1ac:	fc521ce3          	bne	x4,x5,184 <test_13+0x8>

000001b0 <test_14>:
 1b0:	00e00193          	addi	x3,x0,14
 1b4:	00000213          	addi	x4,x0,0
 1b8:	00002097          	auipc	x1,0x2
 1bc:	e4808093          	addi	x1,x1,-440 # 2000 <begin_signature>
 1c0:	0020d703          	lhu	x14,2(x1)
 1c4:	00000013          	addi	x0,x0,0
 1c8:	00000013          	addi	x0,x0,0
 1cc:	00070313          	addi	x6,x14,0
 1d0:	000103b7          	lui	x7,0x10
 1d4:	f0038393          	addi	x7,x7,-256 # ff00 <_end+0xdef0>
 1d8:	0e731063          	bne	x6,x7,2b8 <fail>
 1dc:	00120213          	addi	x4,x4,1 # 1 <_start+0x1>
 1e0:	00200293          	addi	x5,x0,2
 1e4:	fc521ae3          	bne	x4,x5,1b8 <test_14+0x8>

000001e8 <test_15>:
 1e8:	00f00193          	addi	x3,x0,15
 1ec:	00000213          	addi	x4,x0,0
 1f0:	00002097          	auipc	x1,0x2
 1f4:	e1208093          	addi	x1,x1,-494 # 2002 <tdat2>
 1f8:	0020d703          	lhu	x14,2(x1)
 1fc:	000013b7          	lui	x7,0x1
 200:	ff038393          	addi	x7,x7,-16 # ff0 <pass+0xd1c>
 204:	0a771a63          	bne	x14,x7,2b8 <fail>
 208:	00120213          	addi	x4,x4,1 # 1 <_start+0x1>
 20c:	00200293          	addi	x5,x0,2
 210:	fe5210e3          	bne	x4,x5,1f0 <test_15+0x8>

00000214 <test_16>:
 214:	01000193          	addi	x3,x0,16
 218:	00000213          	addi	x4,x0,0
 21c:	00002097          	auipc	x1,0x2
 220:	de808093          	addi	x1,x1,-536 # 2004 <tdat3>
 224:	00000013          	addi	x0,x0,0
 228:	0020d703          	lhu	x14,2(x1)
 22c:	0000f3b7          	lui	x7,0xf
 230:	00f38393          	addi	x7,x7,15 # f00f <_end+0xcfff>
 234:	08771263          	bne	x14,x7,2b8 <fail>
 238:	00120213          	addi	x4,x4,1 # 1 <_start+0x1>
 23c:	00200293          	addi	x5,x0,2
 240:	fc521ee3          	bne	x4,x5,21c <test_16+0x8>

00000244 <test_17>:
 244:	01100193          	addi	x3,x0,17
 248:	00000213          	addi	x4,x0,0
 24c:	00002097          	auipc	x1,0x2
 250:	db408093          	addi	x1,x1,-588 # 2000 <begin_signature>
 254:	00000013          	addi	x0,x0,0
 258:	00000013          	addi	x0,x0,0
 25c:	0020d703          	lhu	x14,2(x1)
 260:	000103b7          	lui	x7,0x10
 264:	f0038393          	addi	x7,x7,-256 # ff00 <_end+0xdef0>
 268:	04771863          	bne	x14,x7,2b8 <fail>
 26c:	00120213          	addi	x4,x4,1 # 1 <_start+0x1>
 270:	00200293          	addi	x5,x0,2
 274:	fc521ce3          	bne	x4,x5,24c <test_17+0x8>

00000278 <test_18>:
 278:	01200193          	addi	x3,x0,18
 27c:	00002297          	auipc	x5,0x2
 280:	d8428293          	addi	x5,x5,-636 # 2000 <begin_signature>
 284:	0002d103          	lhu	x2,0(x5)
 288:	00200113          	addi	x2,x0,2
 28c:	00200393          	addi	x7,x0,2
 290:	02711463          	bne	x2,x7,2b8 <fail>

00000294 <test_19>:
 294:	01300193          	addi	x3,x0,19
 298:	00002297          	auipc	x5,0x2
 29c:	d6828293          	addi	x5,x5,-664 # 2000 <begin_signature>
 2a0:	0002d103          	lhu	x2,0(x5)
 2a4:	00000013          	addi	x0,x0,0
 2a8:	00200113          	addi	x2,x0,2
 2ac:	00200393          	addi	x7,x0,2
 2b0:	00711463          	bne	x2,x7,2b8 <fail>
 2b4:	02301063          	bne	x0,x3,2d4 <pass>

000002b8 <fail>:
 2b8:	0ff0000f          	fence	iorw,iorw
 2bc:	00018063          	beq	x3,x0,2bc <fail+0x4>
 2c0:	00119193          	slli	x3,x3,0x1
 2c4:	0011e193          	ori	x3,x3,1
 2c8:	05d00893          	addi	x17,x0,93
 2cc:	00018513          	addi	x10,x3,0
 2d0:	00000073          	ecall

000002d4 <pass>:
 2d4:	0ff0000f          	fence	iorw,iorw
 2d8:	00100193          	addi	x3,x0,1
 2dc:	05d00893          	addi	x17,x0,93
 2e0:	00000513          	addi	x10,x0,0
 2e4:	00000073          	ecall
 2e8:	c0001073          	unimp
	...

Disassembly of section .tohost:

00001000 <tohost>:
	...

00001040 <fromhost>:
	...
