
lw.elf:     file format elf32-littleriscv


Disassembly of section .text.init:

00000000 <_start>:
   0:	00200193          	addi	x3,x0,2
   4:	00ff07b7          	lui	x15,0xff0
   8:	0ff78793          	addi	x15,x15,255 # ff00ff <_end+0xfee0ef>
   c:	00002097          	auipc	x1,0x2
  10:	ff408093          	addi	x1,x1,-12 # 2000 <begin_signature>
  14:	0000a703          	lw	x14,0(x1)
  18:	00ff03b7          	lui	x7,0xff0
  1c:	0ff38393          	addi	x7,x7,255 # ff00ff <_end+0xfee0ef>
  20:	2a771663          	bne	x14,x7,2cc <fail>

00000024 <test_3>:
  24:	00300193          	addi	x3,x0,3
  28:	ff0107b7          	lui	x15,0xff010
  2c:	f0078793          	addi	x15,x15,-256 # ff00ff00 <_end+0xff00def0>
  30:	00002097          	auipc	x1,0x2
  34:	fd008093          	addi	x1,x1,-48 # 2000 <begin_signature>
  38:	0040a703          	lw	x14,4(x1)
  3c:	ff0103b7          	lui	x7,0xff010
  40:	f0038393          	addi	x7,x7,-256 # ff00ff00 <_end+0xff00def0>
  44:	28771463          	bne	x14,x7,2cc <fail>

00000048 <test_4>:
  48:	00400193          	addi	x3,x0,4
  4c:	0ff017b7          	lui	x15,0xff01
  50:	ff078793          	addi	x15,x15,-16 # ff00ff0 <_end+0xfefefe0>
  54:	00002097          	auipc	x1,0x2
  58:	fac08093          	addi	x1,x1,-84 # 2000 <begin_signature>
  5c:	0080a703          	lw	x14,8(x1)
  60:	0ff013b7          	lui	x7,0xff01
  64:	ff038393          	addi	x7,x7,-16 # ff00ff0 <_end+0xfefefe0>
  68:	26771263          	bne	x14,x7,2cc <fail>

0000006c <test_5>:
  6c:	00500193          	addi	x3,x0,5
  70:	f00ff7b7          	lui	x15,0xf00ff
  74:	00f78793          	addi	x15,x15,15 # f00ff00f <_end+0xf00fcfff>
  78:	00002097          	auipc	x1,0x2
  7c:	f8808093          	addi	x1,x1,-120 # 2000 <begin_signature>
  80:	00c0a703          	lw	x14,12(x1)
  84:	f00ff3b7          	lui	x7,0xf00ff
  88:	00f38393          	addi	x7,x7,15 # f00ff00f <_end+0xf00fcfff>
  8c:	24771063          	bne	x14,x7,2cc <fail>

00000090 <test_6>:
  90:	00600193          	addi	x3,x0,6
  94:	00ff07b7          	lui	x15,0xff0
  98:	0ff78793          	addi	x15,x15,255 # ff00ff <_end+0xfee0ef>
  9c:	00002097          	auipc	x1,0x2
  a0:	f7008093          	addi	x1,x1,-144 # 200c <tdat4>
  a4:	ff40a703          	lw	x14,-12(x1)
  a8:	00ff03b7          	lui	x7,0xff0
  ac:	0ff38393          	addi	x7,x7,255 # ff00ff <_end+0xfee0ef>
  b0:	20771e63          	bne	x14,x7,2cc <fail>

000000b4 <test_7>:
  b4:	00700193          	addi	x3,x0,7
  b8:	ff0107b7          	lui	x15,0xff010
  bc:	f0078793          	addi	x15,x15,-256 # ff00ff00 <_end+0xff00def0>
  c0:	00002097          	auipc	x1,0x2
  c4:	f4c08093          	addi	x1,x1,-180 # 200c <tdat4>
  c8:	ff80a703          	lw	x14,-8(x1)
  cc:	ff0103b7          	lui	x7,0xff010
  d0:	f0038393          	addi	x7,x7,-256 # ff00ff00 <_end+0xff00def0>
  d4:	1e771c63          	bne	x14,x7,2cc <fail>

000000d8 <test_8>:
  d8:	00800193          	addi	x3,x0,8
  dc:	0ff017b7          	lui	x15,0xff01
  e0:	ff078793          	addi	x15,x15,-16 # ff00ff0 <_end+0xfefefe0>
  e4:	00002097          	auipc	x1,0x2
  e8:	f2808093          	addi	x1,x1,-216 # 200c <tdat4>
  ec:	ffc0a703          	lw	x14,-4(x1)
  f0:	0ff013b7          	lui	x7,0xff01
  f4:	ff038393          	addi	x7,x7,-16 # ff00ff0 <_end+0xfefefe0>
  f8:	1c771a63          	bne	x14,x7,2cc <fail>

000000fc <test_9>:
  fc:	00900193          	addi	x3,x0,9
 100:	f00ff7b7          	lui	x15,0xf00ff
 104:	00f78793          	addi	x15,x15,15 # f00ff00f <_end+0xf00fcfff>
 108:	00002097          	auipc	x1,0x2
 10c:	f0408093          	addi	x1,x1,-252 # 200c <tdat4>
 110:	0000a703          	lw	x14,0(x1)
 114:	f00ff3b7          	lui	x7,0xf00ff
 118:	00f38393          	addi	x7,x7,15 # f00ff00f <_end+0xf00fcfff>
 11c:	1a771863          	bne	x14,x7,2cc <fail>

00000120 <test_10>:
 120:	00a00193          	addi	x3,x0,10
 124:	00002097          	auipc	x1,0x2
 128:	edc08093          	addi	x1,x1,-292 # 2000 <begin_signature>
 12c:	fe008093          	addi	x1,x1,-32
 130:	0200a283          	lw	x5,32(x1)
 134:	00ff03b7          	lui	x7,0xff0
 138:	0ff38393          	addi	x7,x7,255 # ff00ff <_end+0xfee0ef>
 13c:	18729863          	bne	x5,x7,2cc <fail>

00000140 <test_11>:
 140:	00b00193          	addi	x3,x0,11
 144:	00002097          	auipc	x1,0x2
 148:	ebc08093          	addi	x1,x1,-324 # 2000 <begin_signature>
 14c:	ffd08093          	addi	x1,x1,-3
 150:	0070a283          	lw	x5,7(x1)
 154:	ff0103b7          	lui	x7,0xff010
 158:	f0038393          	addi	x7,x7,-256 # ff00ff00 <_end+0xff00def0>
 15c:	16729863          	bne	x5,x7,2cc <fail>

00000160 <test_12>:
 160:	00c00193          	addi	x3,x0,12
 164:	00000213          	addi	x4,x0,0
 168:	00002097          	auipc	x1,0x2
 16c:	e9c08093          	addi	x1,x1,-356 # 2004 <tdat2>
 170:	0040a703          	lw	x14,4(x1)
 174:	00070313          	addi	x6,x14,0
 178:	0ff013b7          	lui	x7,0xff01
 17c:	ff038393          	addi	x7,x7,-16 # ff00ff0 <_end+0xfefefe0>
 180:	14731663          	bne	x6,x7,2cc <fail>
 184:	00120213          	addi	x4,x4,1 # 1 <_start+0x1>
 188:	00200293          	addi	x5,x0,2
 18c:	fc521ee3          	bne	x4,x5,168 <test_12+0x8>

00000190 <test_13>:
 190:	00d00193          	addi	x3,x0,13
 194:	00000213          	addi	x4,x0,0
 198:	00002097          	auipc	x1,0x2
 19c:	e7008093          	addi	x1,x1,-400 # 2008 <tdat3>
 1a0:	0040a703          	lw	x14,4(x1)
 1a4:	00000013          	addi	x0,x0,0
 1a8:	00070313          	addi	x6,x14,0
 1ac:	f00ff3b7          	lui	x7,0xf00ff
 1b0:	00f38393          	addi	x7,x7,15 # f00ff00f <_end+0xf00fcfff>
 1b4:	10731c63          	bne	x6,x7,2cc <fail>
 1b8:	00120213          	addi	x4,x4,1 # 1 <_start+0x1>
 1bc:	00200293          	addi	x5,x0,2
 1c0:	fc521ce3          	bne	x4,x5,198 <test_13+0x8>

000001c4 <test_14>:
 1c4:	00e00193          	addi	x3,x0,14
 1c8:	00000213          	addi	x4,x0,0
 1cc:	00002097          	auipc	x1,0x2
 1d0:	e3408093          	addi	x1,x1,-460 # 2000 <begin_signature>
 1d4:	0040a703          	lw	x14,4(x1)
 1d8:	00000013          	addi	x0,x0,0
 1dc:	00000013          	addi	x0,x0,0
 1e0:	00070313          	addi	x6,x14,0
 1e4:	ff0103b7          	lui	x7,0xff010
 1e8:	f0038393          	addi	x7,x7,-256 # ff00ff00 <_end+0xff00def0>
 1ec:	0e731063          	bne	x6,x7,2cc <fail>
 1f0:	00120213          	addi	x4,x4,1 # 1 <_start+0x1>
 1f4:	00200293          	addi	x5,x0,2
 1f8:	fc521ae3          	bne	x4,x5,1cc <test_14+0x8>

000001fc <test_15>:
 1fc:	00f00193          	addi	x3,x0,15
 200:	00000213          	addi	x4,x0,0
 204:	00002097          	auipc	x1,0x2
 208:	e0008093          	addi	x1,x1,-512 # 2004 <tdat2>
 20c:	0040a703          	lw	x14,4(x1)
 210:	0ff013b7          	lui	x7,0xff01
 214:	ff038393          	addi	x7,x7,-16 # ff00ff0 <_end+0xfefefe0>
 218:	0a771a63          	bne	x14,x7,2cc <fail>
 21c:	00120213          	addi	x4,x4,1 # 1 <_start+0x1>
 220:	00200293          	addi	x5,x0,2
 224:	fe5210e3          	bne	x4,x5,204 <test_15+0x8>

00000228 <test_16>:
 228:	01000193          	addi	x3,x0,16
 22c:	00000213          	addi	x4,x0,0
 230:	00002097          	auipc	x1,0x2
 234:	dd808093          	addi	x1,x1,-552 # 2008 <tdat3>
 238:	00000013          	addi	x0,x0,0
 23c:	0040a703          	lw	x14,4(x1)
 240:	f00ff3b7          	lui	x7,0xf00ff
 244:	00f38393          	addi	x7,x7,15 # f00ff00f <_end+0xf00fcfff>
 248:	08771263          	bne	x14,x7,2cc <fail>
 24c:	00120213          	addi	x4,x4,1 # 1 <_start+0x1>
 250:	00200293          	addi	x5,x0,2
 254:	fc521ee3          	bne	x4,x5,230 <test_16+0x8>

00000258 <test_17>:
 258:	01100193          	addi	x3,x0,17
 25c:	00000213          	addi	x4,x0,0
 260:	00002097          	auipc	x1,0x2
 264:	da008093          	addi	x1,x1,-608 # 2000 <begin_signature>
 268:	00000013          	addi	x0,x0,0
 26c:	00000013          	addi	x0,x0,0
 270:	0040a703          	lw	x14,4(x1)
 274:	ff0103b7          	lui	x7,0xff010
 278:	f0038393          	addi	x7,x7,-256 # ff00ff00 <_end+0xff00def0>
 27c:	04771863          	bne	x14,x7,2cc <fail>
 280:	00120213          	addi	x4,x4,1 # 1 <_start+0x1>
 284:	00200293          	addi	x5,x0,2
 288:	fc521ce3          	bne	x4,x5,260 <test_17+0x8>

0000028c <test_18>:
 28c:	01200193          	addi	x3,x0,18
 290:	00002297          	auipc	x5,0x2
 294:	d7028293          	addi	x5,x5,-656 # 2000 <begin_signature>
 298:	0002a103          	lw	x2,0(x5)
 29c:	00200113          	addi	x2,x0,2
 2a0:	00200393          	addi	x7,x0,2
 2a4:	02711463          	bne	x2,x7,2cc <fail>

000002a8 <test_19>:
 2a8:	01300193          	addi	x3,x0,19
 2ac:	00002297          	auipc	x5,0x2
 2b0:	d5428293          	addi	x5,x5,-684 # 2000 <begin_signature>
 2b4:	0002a103          	lw	x2,0(x5)
 2b8:	00000013          	addi	x0,x0,0
 2bc:	00200113          	addi	x2,x0,2
 2c0:	00200393          	addi	x7,x0,2
 2c4:	00711463          	bne	x2,x7,2cc <fail>
 2c8:	02301063          	bne	x0,x3,2e8 <pass>

000002cc <fail>:
 2cc:	0ff0000f          	fence	iorw,iorw
 2d0:	00018063          	beq	x3,x0,2d0 <fail+0x4>
 2d4:	00119193          	slli	x3,x3,0x1
 2d8:	0011e193          	ori	x3,x3,1
 2dc:	05d00893          	addi	x17,x0,93
 2e0:	00018513          	addi	x10,x3,0
 2e4:	00000073          	ecall

000002e8 <pass>:
 2e8:	0ff0000f          	fence	iorw,iorw
 2ec:	00100193          	addi	x3,x0,1
 2f0:	05d00893          	addi	x17,x0,93
 2f4:	00000513          	addi	x10,x0,0
 2f8:	00000073          	ecall
 2fc:	c0001073          	unimp
 300:	0000                	.2byte	0x0
	...

Disassembly of section .tohost:

00001000 <tohost>:
	...

00001040 <fromhost>:
	...
