
sb.elf:     file format elf32-littleriscv


Disassembly of section .text.init:

00000000 <_start>:
   0:	00200193          	addi	x3,x0,2
   4:	00002097          	auipc	x1,0x2
   8:	ffc08093          	addi	x1,x1,-4 # 2000 <begin_signature>
   c:	faa00113          	addi	x2,x0,-86
  10:	00000797          	auipc	x15,0x0
  14:	01478793          	addi	x15,x15,20 # 24 <_start+0x24>
  18:	00208023          	sb	x2,0(x1)
  1c:	00008703          	lb	x14,0(x1)
  20:	0080006f          	jal	x0,28 <_start+0x28>
  24:	00010713          	addi	x14,x2,0
  28:	faa00393          	addi	x7,x0,-86
  2c:	44771463          	bne	x14,x7,474 <fail>

00000030 <test_3>:
  30:	00300193          	addi	x3,x0,3
  34:	00002097          	auipc	x1,0x2
  38:	fcc08093          	addi	x1,x1,-52 # 2000 <begin_signature>
  3c:	00000113          	addi	x2,x0,0
  40:	00000797          	auipc	x15,0x0
  44:	01478793          	addi	x15,x15,20 # 54 <test_3+0x24>
  48:	002080a3          	sb	x2,1(x1)
  4c:	00108703          	lb	x14,1(x1)
  50:	0080006f          	jal	x0,58 <test_3+0x28>
  54:	00010713          	addi	x14,x2,0
  58:	00000393          	addi	x7,x0,0
  5c:	40771c63          	bne	x14,x7,474 <fail>

00000060 <test_4>:
  60:	00400193          	addi	x3,x0,4
  64:	00002097          	auipc	x1,0x2
  68:	f9c08093          	addi	x1,x1,-100 # 2000 <begin_signature>
  6c:	fffff137          	lui	x2,0xfffff
  70:	fa010113          	addi	x2,x2,-96 # ffffefa0 <_end+0xffffcf90>
  74:	00000797          	auipc	x15,0x0
  78:	01478793          	addi	x15,x15,20 # 88 <test_4+0x28>
  7c:	00208123          	sb	x2,2(x1)
  80:	00209703          	lh	x14,2(x1)
  84:	0080006f          	jal	x0,8c <test_4+0x2c>
  88:	00010713          	addi	x14,x2,0
  8c:	fffff3b7          	lui	x7,0xfffff
  90:	fa038393          	addi	x7,x7,-96 # ffffefa0 <_end+0xffffcf90>
  94:	3e771063          	bne	x14,x7,474 <fail>

00000098 <test_5>:
  98:	00500193          	addi	x3,x0,5
  9c:	00002097          	auipc	x1,0x2
  a0:	f6408093          	addi	x1,x1,-156 # 2000 <begin_signature>
  a4:	00a00113          	addi	x2,x0,10
  a8:	00000797          	auipc	x15,0x0
  ac:	01478793          	addi	x15,x15,20 # bc <test_5+0x24>
  b0:	002081a3          	sb	x2,3(x1)
  b4:	00308703          	lb	x14,3(x1)
  b8:	0080006f          	jal	x0,c0 <test_5+0x28>
  bc:	00010713          	addi	x14,x2,0
  c0:	00a00393          	addi	x7,x0,10
  c4:	3a771863          	bne	x14,x7,474 <fail>

000000c8 <test_6>:
  c8:	00600193          	addi	x3,x0,6
  cc:	00002097          	auipc	x1,0x2
  d0:	f3b08093          	addi	x1,x1,-197 # 2007 <tdat8>
  d4:	faa00113          	addi	x2,x0,-86
  d8:	00000797          	auipc	x15,0x0
  dc:	01478793          	addi	x15,x15,20 # ec <test_6+0x24>
  e0:	fe208ea3          	sb	x2,-3(x1)
  e4:	ffd08703          	lb	x14,-3(x1)
  e8:	0080006f          	jal	x0,f0 <test_6+0x28>
  ec:	00010713          	addi	x14,x2,0
  f0:	faa00393          	addi	x7,x0,-86
  f4:	38771063          	bne	x14,x7,474 <fail>

000000f8 <test_7>:
  f8:	00700193          	addi	x3,x0,7
  fc:	00002097          	auipc	x1,0x2
 100:	f0b08093          	addi	x1,x1,-245 # 2007 <tdat8>
 104:	00000113          	addi	x2,x0,0
 108:	00000797          	auipc	x15,0x0
 10c:	01478793          	addi	x15,x15,20 # 11c <test_7+0x24>
 110:	fe208f23          	sb	x2,-2(x1)
 114:	ffe08703          	lb	x14,-2(x1)
 118:	0080006f          	jal	x0,120 <test_7+0x28>
 11c:	00010713          	addi	x14,x2,0
 120:	00000393          	addi	x7,x0,0
 124:	34771863          	bne	x14,x7,474 <fail>

00000128 <test_8>:
 128:	00800193          	addi	x3,x0,8
 12c:	00002097          	auipc	x1,0x2
 130:	edb08093          	addi	x1,x1,-293 # 2007 <tdat8>
 134:	fa000113          	addi	x2,x0,-96
 138:	00000797          	auipc	x15,0x0
 13c:	01478793          	addi	x15,x15,20 # 14c <test_8+0x24>
 140:	fe208fa3          	sb	x2,-1(x1)
 144:	fff08703          	lb	x14,-1(x1)
 148:	0080006f          	jal	x0,150 <test_8+0x28>
 14c:	00010713          	addi	x14,x2,0
 150:	fa000393          	addi	x7,x0,-96
 154:	32771063          	bne	x14,x7,474 <fail>

00000158 <test_9>:
 158:	00900193          	addi	x3,x0,9
 15c:	00002097          	auipc	x1,0x2
 160:	eab08093          	addi	x1,x1,-341 # 2007 <tdat8>
 164:	00a00113          	addi	x2,x0,10
 168:	00000797          	auipc	x15,0x0
 16c:	01478793          	addi	x15,x15,20 # 17c <test_9+0x24>
 170:	00208023          	sb	x2,0(x1)
 174:	00008703          	lb	x14,0(x1)
 178:	0080006f          	jal	x0,180 <test_9+0x28>
 17c:	00010713          	addi	x14,x2,0
 180:	00a00393          	addi	x7,x0,10
 184:	2e771863          	bne	x14,x7,474 <fail>

00000188 <test_10>:
 188:	00a00193          	addi	x3,x0,10
 18c:	00002097          	auipc	x1,0x2
 190:	e7c08093          	addi	x1,x1,-388 # 2008 <tdat9>
 194:	12345137          	lui	x2,0x12345
 198:	67810113          	addi	x2,x2,1656 # 12345678 <_end+0x12343668>
 19c:	fe008213          	addi	x4,x1,-32
 1a0:	02220023          	sb	x2,32(x4) # 20 <_start+0x20>
 1a4:	00008283          	lb	x5,0(x1)
 1a8:	07800393          	addi	x7,x0,120
 1ac:	2c729463          	bne	x5,x7,474 <fail>

000001b0 <test_11>:
 1b0:	00b00193          	addi	x3,x0,11
 1b4:	00002097          	auipc	x1,0x2
 1b8:	e5408093          	addi	x1,x1,-428 # 2008 <tdat9>
 1bc:	00003137          	lui	x2,0x3
 1c0:	09810113          	addi	x2,x2,152 # 3098 <_end+0x1088>
 1c4:	ffa08093          	addi	x1,x1,-6
 1c8:	002083a3          	sb	x2,7(x1)
 1cc:	00002217          	auipc	x4,0x2
 1d0:	e3d20213          	addi	x4,x4,-451 # 2009 <tdat10>
 1d4:	00020283          	lb	x5,0(x4) # 0 <_start>
 1d8:	f9800393          	addi	x7,x0,-104
 1dc:	28729c63          	bne	x5,x7,474 <fail>

000001e0 <test_12>:
 1e0:	00c00193          	addi	x3,x0,12
 1e4:	00000213          	addi	x4,x0,0
 1e8:	fdd00093          	addi	x1,x0,-35
 1ec:	00002117          	auipc	x2,0x2
 1f0:	e1410113          	addi	x2,x2,-492 # 2000 <begin_signature>
 1f4:	00110023          	sb	x1,0(x2)
 1f8:	00010703          	lb	x14,0(x2)
 1fc:	fdd00393          	addi	x7,x0,-35
 200:	26771a63          	bne	x14,x7,474 <fail>
 204:	00120213          	addi	x4,x4,1 # 1 <_start+0x1>
 208:	00200293          	addi	x5,x0,2
 20c:	fc521ee3          	bne	x4,x5,1e8 <test_12+0x8>

00000210 <test_13>:
 210:	00d00193          	addi	x3,x0,13
 214:	00000213          	addi	x4,x0,0
 218:	fcd00093          	addi	x1,x0,-51
 21c:	00002117          	auipc	x2,0x2
 220:	de410113          	addi	x2,x2,-540 # 2000 <begin_signature>
 224:	00000013          	addi	x0,x0,0
 228:	001100a3          	sb	x1,1(x2)
 22c:	00110703          	lb	x14,1(x2)
 230:	fcd00393          	addi	x7,x0,-51
 234:	24771063          	bne	x14,x7,474 <fail>
 238:	00120213          	addi	x4,x4,1 # 1 <_start+0x1>
 23c:	00200293          	addi	x5,x0,2
 240:	fc521ce3          	bne	x4,x5,218 <test_13+0x8>

00000244 <test_14>:
 244:	00e00193          	addi	x3,x0,14
 248:	00000213          	addi	x4,x0,0
 24c:	fcc00093          	addi	x1,x0,-52
 250:	00002117          	auipc	x2,0x2
 254:	db010113          	addi	x2,x2,-592 # 2000 <begin_signature>
 258:	00000013          	addi	x0,x0,0
 25c:	00000013          	addi	x0,x0,0
 260:	00110123          	sb	x1,2(x2)
 264:	00210703          	lb	x14,2(x2)
 268:	fcc00393          	addi	x7,x0,-52
 26c:	20771463          	bne	x14,x7,474 <fail>
 270:	00120213          	addi	x4,x4,1 # 1 <_start+0x1>
 274:	00200293          	addi	x5,x0,2
 278:	fc521ae3          	bne	x4,x5,24c <test_14+0x8>

0000027c <test_15>:
 27c:	00f00193          	addi	x3,x0,15
 280:	00000213          	addi	x4,x0,0
 284:	fbc00093          	addi	x1,x0,-68
 288:	00000013          	addi	x0,x0,0
 28c:	00002117          	auipc	x2,0x2
 290:	d7410113          	addi	x2,x2,-652 # 2000 <begin_signature>
 294:	001101a3          	sb	x1,3(x2)
 298:	00310703          	lb	x14,3(x2)
 29c:	fbc00393          	addi	x7,x0,-68
 2a0:	1c771a63          	bne	x14,x7,474 <fail>
 2a4:	00120213          	addi	x4,x4,1 # 1 <_start+0x1>
 2a8:	00200293          	addi	x5,x0,2
 2ac:	fc521ce3          	bne	x4,x5,284 <test_15+0x8>

000002b0 <test_16>:
 2b0:	01000193          	addi	x3,x0,16
 2b4:	00000213          	addi	x4,x0,0
 2b8:	fbb00093          	addi	x1,x0,-69
 2bc:	00000013          	addi	x0,x0,0
 2c0:	00002117          	auipc	x2,0x2
 2c4:	d4010113          	addi	x2,x2,-704 # 2000 <begin_signature>
 2c8:	00000013          	addi	x0,x0,0
 2cc:	00110223          	sb	x1,4(x2)
 2d0:	00410703          	lb	x14,4(x2)
 2d4:	fbb00393          	addi	x7,x0,-69
 2d8:	18771e63          	bne	x14,x7,474 <fail>
 2dc:	00120213          	addi	x4,x4,1 # 1 <_start+0x1>
 2e0:	00200293          	addi	x5,x0,2
 2e4:	fc521ae3          	bne	x4,x5,2b8 <test_16+0x8>

000002e8 <test_17>:
 2e8:	01100193          	addi	x3,x0,17
 2ec:	00000213          	addi	x4,x0,0
 2f0:	fab00093          	addi	x1,x0,-85
 2f4:	00000013          	addi	x0,x0,0
 2f8:	00000013          	addi	x0,x0,0
 2fc:	00002117          	auipc	x2,0x2
 300:	d0410113          	addi	x2,x2,-764 # 2000 <begin_signature>
 304:	001102a3          	sb	x1,5(x2)
 308:	00510703          	lb	x14,5(x2)
 30c:	fab00393          	addi	x7,x0,-85
 310:	16771263          	bne	x14,x7,474 <fail>
 314:	00120213          	addi	x4,x4,1 # 1 <_start+0x1>
 318:	00200293          	addi	x5,x0,2
 31c:	fc521ae3          	bne	x4,x5,2f0 <test_17+0x8>

00000320 <test_18>:
 320:	01200193          	addi	x3,x0,18
 324:	00000213          	addi	x4,x0,0
 328:	00002117          	auipc	x2,0x2
 32c:	cd810113          	addi	x2,x2,-808 # 2000 <begin_signature>
 330:	03300093          	addi	x1,x0,51
 334:	00110023          	sb	x1,0(x2)
 338:	00010703          	lb	x14,0(x2)
 33c:	03300393          	addi	x7,x0,51
 340:	12771a63          	bne	x14,x7,474 <fail>
 344:	00120213          	addi	x4,x4,1 # 1 <_start+0x1>
 348:	00200293          	addi	x5,x0,2
 34c:	fc521ee3          	bne	x4,x5,328 <test_18+0x8>

00000350 <test_19>:
 350:	01300193          	addi	x3,x0,19
 354:	00000213          	addi	x4,x0,0
 358:	00002117          	auipc	x2,0x2
 35c:	ca810113          	addi	x2,x2,-856 # 2000 <begin_signature>
 360:	02300093          	addi	x1,x0,35
 364:	00000013          	addi	x0,x0,0
 368:	001100a3          	sb	x1,1(x2)
 36c:	00110703          	lb	x14,1(x2)
 370:	02300393          	addi	x7,x0,35
 374:	10771063          	bne	x14,x7,474 <fail>
 378:	00120213          	addi	x4,x4,1 # 1 <_start+0x1>
 37c:	00200293          	addi	x5,x0,2
 380:	fc521ce3          	bne	x4,x5,358 <test_19+0x8>

00000384 <test_20>:
 384:	01400193          	addi	x3,x0,20
 388:	00000213          	addi	x4,x0,0
 38c:	00002117          	auipc	x2,0x2
 390:	c7410113          	addi	x2,x2,-908 # 2000 <begin_signature>
 394:	02200093          	addi	x1,x0,34
 398:	00000013          	addi	x0,x0,0
 39c:	00000013          	addi	x0,x0,0
 3a0:	00110123          	sb	x1,2(x2)
 3a4:	00210703          	lb	x14,2(x2)
 3a8:	02200393          	addi	x7,x0,34
 3ac:	0c771463          	bne	x14,x7,474 <fail>
 3b0:	00120213          	addi	x4,x4,1 # 1 <_start+0x1>
 3b4:	00200293          	addi	x5,x0,2
 3b8:	fc521ae3          	bne	x4,x5,38c <test_20+0x8>

000003bc <test_21>:
 3bc:	01500193          	addi	x3,x0,21
 3c0:	00000213          	addi	x4,x0,0
 3c4:	00002117          	auipc	x2,0x2
 3c8:	c3c10113          	addi	x2,x2,-964 # 2000 <begin_signature>
 3cc:	00000013          	addi	x0,x0,0
 3d0:	01200093          	addi	x1,x0,18
 3d4:	001101a3          	sb	x1,3(x2)
 3d8:	00310703          	lb	x14,3(x2)
 3dc:	01200393          	addi	x7,x0,18
 3e0:	08771a63          	bne	x14,x7,474 <fail>
 3e4:	00120213          	addi	x4,x4,1 # 1 <_start+0x1>
 3e8:	00200293          	addi	x5,x0,2
 3ec:	fc521ce3          	bne	x4,x5,3c4 <test_21+0x8>

000003f0 <test_22>:
 3f0:	01600193          	addi	x3,x0,22
 3f4:	00000213          	addi	x4,x0,0
 3f8:	00002117          	auipc	x2,0x2
 3fc:	c0810113          	addi	x2,x2,-1016 # 2000 <begin_signature>
 400:	00000013          	addi	x0,x0,0
 404:	01100093          	addi	x1,x0,17
 408:	00000013          	addi	x0,x0,0
 40c:	00110223          	sb	x1,4(x2)
 410:	00410703          	lb	x14,4(x2)
 414:	01100393          	addi	x7,x0,17
 418:	04771e63          	bne	x14,x7,474 <fail>
 41c:	00120213          	addi	x4,x4,1 # 1 <_start+0x1>
 420:	00200293          	addi	x5,x0,2
 424:	fc521ae3          	bne	x4,x5,3f8 <test_22+0x8>

00000428 <test_23>:
 428:	01700193          	addi	x3,x0,23
 42c:	00000213          	addi	x4,x0,0
 430:	00002117          	auipc	x2,0x2
 434:	bd010113          	addi	x2,x2,-1072 # 2000 <begin_signature>
 438:	00000013          	addi	x0,x0,0
 43c:	00000013          	addi	x0,x0,0
 440:	00100093          	addi	x1,x0,1
 444:	001102a3          	sb	x1,5(x2)
 448:	00510703          	lb	x14,5(x2)
 44c:	00100393          	addi	x7,x0,1
 450:	02771263          	bne	x14,x7,474 <fail>
 454:	00120213          	addi	x4,x4,1 # 1 <_start+0x1>
 458:	00200293          	addi	x5,x0,2
 45c:	fc521ae3          	bne	x4,x5,430 <test_23+0x8>
 460:	0ef00513          	addi	x10,x0,239
 464:	00002597          	auipc	x11,0x2
 468:	b9c58593          	addi	x11,x11,-1124 # 2000 <begin_signature>
 46c:	00a581a3          	sb	x10,3(x11)
 470:	02301063          	bne	x0,x3,490 <pass>

00000474 <fail>:
 474:	0ff0000f          	fence	iorw,iorw
 478:	00018063          	beq	x3,x0,478 <fail+0x4>
 47c:	00119193          	slli	x3,x3,0x1
 480:	0011e193          	ori	x3,x3,1
 484:	05d00893          	addi	x17,x0,93
 488:	00018513          	addi	x10,x3,0
 48c:	00000073          	ecall

00000490 <pass>:
 490:	0ff0000f          	fence	iorw,iorw
 494:	00100193          	addi	x3,x0,1
 498:	05d00893          	addi	x17,x0,93
 49c:	00000513          	addi	x10,x0,0
 4a0:	00000073          	ecall
 4a4:	c0001073          	unimp
	...

Disassembly of section .tohost:

00001000 <tohost>:
	...

00001040 <fromhost>:
	...
