
sll.elf:     file format elf32-littleriscv


Disassembly of section .text.init:

00000000 <_start>:
   0:	00200193          	addi	x3,x0,2
   4:	00100093          	addi	x1,x0,1
   8:	00000113          	addi	x2,x0,0
   c:	00209733          	sll	x14,x1,x2
  10:	00100393          	addi	x7,x0,1
  14:	52771e63          	bne	x14,x7,550 <fail>

00000018 <test_3>:
  18:	00300193          	addi	x3,x0,3
  1c:	00100093          	addi	x1,x0,1
  20:	00100113          	addi	x2,x0,1
  24:	00209733          	sll	x14,x1,x2
  28:	00200393          	addi	x7,x0,2
  2c:	52771263          	bne	x14,x7,550 <fail>

00000030 <test_4>:
  30:	00400193          	addi	x3,x0,4
  34:	00100093          	addi	x1,x0,1
  38:	00700113          	addi	x2,x0,7
  3c:	00209733          	sll	x14,x1,x2
  40:	08000393          	addi	x7,x0,128
  44:	50771663          	bne	x14,x7,550 <fail>

00000048 <test_5>:
  48:	00500193          	addi	x3,x0,5
  4c:	00100093          	addi	x1,x0,1
  50:	00e00113          	addi	x2,x0,14
  54:	00209733          	sll	x14,x1,x2
  58:	000043b7          	lui	x7,0x4
  5c:	4e771a63          	bne	x14,x7,550 <fail>

00000060 <test_6>:
  60:	00600193          	addi	x3,x0,6
  64:	00100093          	addi	x1,x0,1
  68:	01f00113          	addi	x2,x0,31
  6c:	00209733          	sll	x14,x1,x2
  70:	800003b7          	lui	x7,0x80000
  74:	4c771e63          	bne	x14,x7,550 <fail>

00000078 <test_7>:
  78:	00700193          	addi	x3,x0,7
  7c:	fff00093          	addi	x1,x0,-1
  80:	00000113          	addi	x2,x0,0
  84:	00209733          	sll	x14,x1,x2
  88:	fff00393          	addi	x7,x0,-1
  8c:	4c771263          	bne	x14,x7,550 <fail>

00000090 <test_8>:
  90:	00800193          	addi	x3,x0,8
  94:	fff00093          	addi	x1,x0,-1
  98:	00100113          	addi	x2,x0,1
  9c:	00209733          	sll	x14,x1,x2
  a0:	ffe00393          	addi	x7,x0,-2
  a4:	4a771663          	bne	x14,x7,550 <fail>

000000a8 <test_9>:
  a8:	00900193          	addi	x3,x0,9
  ac:	fff00093          	addi	x1,x0,-1
  b0:	00700113          	addi	x2,x0,7
  b4:	00209733          	sll	x14,x1,x2
  b8:	f8000393          	addi	x7,x0,-128
  bc:	48771a63          	bne	x14,x7,550 <fail>

000000c0 <test_10>:
  c0:	00a00193          	addi	x3,x0,10
  c4:	fff00093          	addi	x1,x0,-1
  c8:	00e00113          	addi	x2,x0,14
  cc:	00209733          	sll	x14,x1,x2
  d0:	ffffc3b7          	lui	x7,0xffffc
  d4:	46771e63          	bne	x14,x7,550 <fail>

000000d8 <test_11>:
  d8:	00b00193          	addi	x3,x0,11
  dc:	fff00093          	addi	x1,x0,-1
  e0:	01f00113          	addi	x2,x0,31
  e4:	00209733          	sll	x14,x1,x2
  e8:	800003b7          	lui	x7,0x80000
  ec:	46771263          	bne	x14,x7,550 <fail>

000000f0 <test_12>:
  f0:	00c00193          	addi	x3,x0,12
  f4:	212120b7          	lui	x1,0x21212
  f8:	12108093          	addi	x1,x1,289 # 21212121 <_end+0x21210121>
  fc:	00000113          	addi	x2,x0,0
 100:	00209733          	sll	x14,x1,x2
 104:	212123b7          	lui	x7,0x21212
 108:	12138393          	addi	x7,x7,289 # 21212121 <_end+0x21210121>
 10c:	44771263          	bne	x14,x7,550 <fail>

00000110 <test_13>:
 110:	00d00193          	addi	x3,x0,13
 114:	212120b7          	lui	x1,0x21212
 118:	12108093          	addi	x1,x1,289 # 21212121 <_end+0x21210121>
 11c:	00100113          	addi	x2,x0,1
 120:	00209733          	sll	x14,x1,x2
 124:	424243b7          	lui	x7,0x42424
 128:	24238393          	addi	x7,x7,578 # 42424242 <_end+0x42422242>
 12c:	42771263          	bne	x14,x7,550 <fail>

00000130 <test_14>:
 130:	00e00193          	addi	x3,x0,14
 134:	212120b7          	lui	x1,0x21212
 138:	12108093          	addi	x1,x1,289 # 21212121 <_end+0x21210121>
 13c:	00700113          	addi	x2,x0,7
 140:	00209733          	sll	x14,x1,x2
 144:	909093b7          	lui	x7,0x90909
 148:	08038393          	addi	x7,x7,128 # 90909080 <_end+0x90907080>
 14c:	40771263          	bne	x14,x7,550 <fail>

00000150 <test_15>:
 150:	00f00193          	addi	x3,x0,15
 154:	212120b7          	lui	x1,0x21212
 158:	12108093          	addi	x1,x1,289 # 21212121 <_end+0x21210121>
 15c:	00e00113          	addi	x2,x0,14
 160:	00209733          	sll	x14,x1,x2
 164:	484843b7          	lui	x7,0x48484
 168:	3e771463          	bne	x14,x7,550 <fail>

0000016c <test_16>:
 16c:	01000193          	addi	x3,x0,16
 170:	212120b7          	lui	x1,0x21212
 174:	12108093          	addi	x1,x1,289 # 21212121 <_end+0x21210121>
 178:	01f00113          	addi	x2,x0,31
 17c:	00209733          	sll	x14,x1,x2
 180:	800003b7          	lui	x7,0x80000
 184:	3c771663          	bne	x14,x7,550 <fail>

00000188 <test_17>:
 188:	01100193          	addi	x3,x0,17
 18c:	212120b7          	lui	x1,0x21212
 190:	12108093          	addi	x1,x1,289 # 21212121 <_end+0x21210121>
 194:	fc000113          	addi	x2,x0,-64
 198:	00209733          	sll	x14,x1,x2
 19c:	212123b7          	lui	x7,0x21212
 1a0:	12138393          	addi	x7,x7,289 # 21212121 <_end+0x21210121>
 1a4:	3a771663          	bne	x14,x7,550 <fail>

000001a8 <test_18>:
 1a8:	01200193          	addi	x3,x0,18
 1ac:	212120b7          	lui	x1,0x21212
 1b0:	12108093          	addi	x1,x1,289 # 21212121 <_end+0x21210121>
 1b4:	fc100113          	addi	x2,x0,-63
 1b8:	00209733          	sll	x14,x1,x2
 1bc:	424243b7          	lui	x7,0x42424
 1c0:	24238393          	addi	x7,x7,578 # 42424242 <_end+0x42422242>
 1c4:	38771663          	bne	x14,x7,550 <fail>

000001c8 <test_19>:
 1c8:	01300193          	addi	x3,x0,19
 1cc:	212120b7          	lui	x1,0x21212
 1d0:	12108093          	addi	x1,x1,289 # 21212121 <_end+0x21210121>
 1d4:	fc700113          	addi	x2,x0,-57
 1d8:	00209733          	sll	x14,x1,x2
 1dc:	909093b7          	lui	x7,0x90909
 1e0:	08038393          	addi	x7,x7,128 # 90909080 <_end+0x90907080>
 1e4:	36771663          	bne	x14,x7,550 <fail>

000001e8 <test_20>:
 1e8:	01400193          	addi	x3,x0,20
 1ec:	212120b7          	lui	x1,0x21212
 1f0:	12108093          	addi	x1,x1,289 # 21212121 <_end+0x21210121>
 1f4:	fce00113          	addi	x2,x0,-50
 1f8:	00209733          	sll	x14,x1,x2
 1fc:	484843b7          	lui	x7,0x48484
 200:	34771863          	bne	x14,x7,550 <fail>

00000204 <test_22>:
 204:	01600193          	addi	x3,x0,22
 208:	00100093          	addi	x1,x0,1
 20c:	00700113          	addi	x2,x0,7
 210:	002090b3          	sll	x1,x1,x2
 214:	08000393          	addi	x7,x0,128
 218:	32709c63          	bne	x1,x7,550 <fail>

0000021c <test_23>:
 21c:	01700193          	addi	x3,x0,23
 220:	00100093          	addi	x1,x0,1
 224:	00e00113          	addi	x2,x0,14
 228:	00209133          	sll	x2,x1,x2
 22c:	000043b7          	lui	x7,0x4
 230:	32711063          	bne	x2,x7,550 <fail>

00000234 <test_24>:
 234:	01800193          	addi	x3,x0,24
 238:	00300093          	addi	x1,x0,3
 23c:	001090b3          	sll	x1,x1,x1
 240:	01800393          	addi	x7,x0,24
 244:	30709663          	bne	x1,x7,550 <fail>

00000248 <test_25>:
 248:	01900193          	addi	x3,x0,25
 24c:	00000213          	addi	x4,x0,0
 250:	00100093          	addi	x1,x0,1
 254:	00700113          	addi	x2,x0,7
 258:	00209733          	sll	x14,x1,x2
 25c:	00070313          	addi	x6,x14,0
 260:	00120213          	addi	x4,x4,1 # 1 <_start+0x1>
 264:	00200293          	addi	x5,x0,2
 268:	fe5214e3          	bne	x4,x5,250 <test_25+0x8>
 26c:	08000393          	addi	x7,x0,128
 270:	2e731063          	bne	x6,x7,550 <fail>

00000274 <test_26>:
 274:	01a00193          	addi	x3,x0,26
 278:	00000213          	addi	x4,x0,0
 27c:	00100093          	addi	x1,x0,1
 280:	00e00113          	addi	x2,x0,14
 284:	00209733          	sll	x14,x1,x2
 288:	00000013          	addi	x0,x0,0
 28c:	00070313          	addi	x6,x14,0
 290:	00120213          	addi	x4,x4,1 # 1 <_start+0x1>
 294:	00200293          	addi	x5,x0,2
 298:	fe5212e3          	bne	x4,x5,27c <test_26+0x8>
 29c:	000043b7          	lui	x7,0x4
 2a0:	2a731863          	bne	x6,x7,550 <fail>

000002a4 <test_27>:
 2a4:	01b00193          	addi	x3,x0,27
 2a8:	00000213          	addi	x4,x0,0
 2ac:	00100093          	addi	x1,x0,1
 2b0:	01f00113          	addi	x2,x0,31
 2b4:	00209733          	sll	x14,x1,x2
 2b8:	00000013          	addi	x0,x0,0
 2bc:	00000013          	addi	x0,x0,0
 2c0:	00070313          	addi	x6,x14,0
 2c4:	00120213          	addi	x4,x4,1 # 1 <_start+0x1>
 2c8:	00200293          	addi	x5,x0,2
 2cc:	fe5210e3          	bne	x4,x5,2ac <test_27+0x8>
 2d0:	800003b7          	lui	x7,0x80000
 2d4:	26731e63          	bne	x6,x7,550 <fail>

000002d8 <test_28>:
 2d8:	01c00193          	addi	x3,x0,28
 2dc:	00000213          	addi	x4,x0,0
 2e0:	00100093          	addi	x1,x0,1
 2e4:	00700113          	addi	x2,x0,7
 2e8:	00209733          	sll	x14,x1,x2
 2ec:	00120213          	addi	x4,x4,1 # 1 <_start+0x1>
 2f0:	00200293          	addi	x5,x0,2
 2f4:	fe5216e3          	bne	x4,x5,2e0 <test_28+0x8>
 2f8:	08000393          	addi	x7,x0,128
 2fc:	24771a63          	bne	x14,x7,550 <fail>

00000300 <test_29>:
 300:	01d00193          	addi	x3,x0,29
 304:	00000213          	addi	x4,x0,0
 308:	00100093          	addi	x1,x0,1
 30c:	00e00113          	addi	x2,x0,14
 310:	00000013          	addi	x0,x0,0
 314:	00209733          	sll	x14,x1,x2
 318:	00120213          	addi	x4,x4,1 # 1 <_start+0x1>
 31c:	00200293          	addi	x5,x0,2
 320:	fe5214e3          	bne	x4,x5,308 <test_29+0x8>
 324:	000043b7          	lui	x7,0x4
 328:	22771463          	bne	x14,x7,550 <fail>

0000032c <test_30>:
 32c:	01e00193          	addi	x3,x0,30
 330:	00000213          	addi	x4,x0,0
 334:	00100093          	addi	x1,x0,1
 338:	01f00113          	addi	x2,x0,31
 33c:	00000013          	addi	x0,x0,0
 340:	00000013          	addi	x0,x0,0
 344:	00209733          	sll	x14,x1,x2
 348:	00120213          	addi	x4,x4,1 # 1 <_start+0x1>
 34c:	00200293          	addi	x5,x0,2
 350:	fe5212e3          	bne	x4,x5,334 <test_30+0x8>
 354:	800003b7          	lui	x7,0x80000
 358:	1e771c63          	bne	x14,x7,550 <fail>

0000035c <test_31>:
 35c:	01f00193          	addi	x3,x0,31
 360:	00000213          	addi	x4,x0,0
 364:	00100093          	addi	x1,x0,1
 368:	00000013          	addi	x0,x0,0
 36c:	00700113          	addi	x2,x0,7
 370:	00209733          	sll	x14,x1,x2
 374:	00120213          	addi	x4,x4,1 # 1 <_start+0x1>
 378:	00200293          	addi	x5,x0,2
 37c:	fe5214e3          	bne	x4,x5,364 <test_31+0x8>
 380:	08000393          	addi	x7,x0,128
 384:	1c771663          	bne	x14,x7,550 <fail>

00000388 <test_32>:
 388:	02000193          	addi	x3,x0,32
 38c:	00000213          	addi	x4,x0,0
 390:	00100093          	addi	x1,x0,1
 394:	00000013          	addi	x0,x0,0
 398:	00e00113          	addi	x2,x0,14
 39c:	00000013          	addi	x0,x0,0
 3a0:	00209733          	sll	x14,x1,x2
 3a4:	00120213          	addi	x4,x4,1 # 1 <_start+0x1>
 3a8:	00200293          	addi	x5,x0,2
 3ac:	fe5212e3          	bne	x4,x5,390 <test_32+0x8>
 3b0:	000043b7          	lui	x7,0x4
 3b4:	18771e63          	bne	x14,x7,550 <fail>

000003b8 <test_33>:
 3b8:	02100193          	addi	x3,x0,33
 3bc:	00000213          	addi	x4,x0,0
 3c0:	00100093          	addi	x1,x0,1
 3c4:	00000013          	addi	x0,x0,0
 3c8:	00000013          	addi	x0,x0,0
 3cc:	01f00113          	addi	x2,x0,31
 3d0:	00209733          	sll	x14,x1,x2
 3d4:	00120213          	addi	x4,x4,1 # 1 <_start+0x1>
 3d8:	00200293          	addi	x5,x0,2
 3dc:	fe5212e3          	bne	x4,x5,3c0 <test_33+0x8>
 3e0:	800003b7          	lui	x7,0x80000
 3e4:	16771663          	bne	x14,x7,550 <fail>

000003e8 <test_34>:
 3e8:	02200193          	addi	x3,x0,34
 3ec:	00000213          	addi	x4,x0,0
 3f0:	00700113          	addi	x2,x0,7
 3f4:	00100093          	addi	x1,x0,1
 3f8:	00209733          	sll	x14,x1,x2
 3fc:	00120213          	addi	x4,x4,1 # 1 <_start+0x1>
 400:	00200293          	addi	x5,x0,2
 404:	fe5216e3          	bne	x4,x5,3f0 <test_34+0x8>
 408:	08000393          	addi	x7,x0,128
 40c:	14771263          	bne	x14,x7,550 <fail>

00000410 <test_35>:
 410:	02300193          	addi	x3,x0,35
 414:	00000213          	addi	x4,x0,0
 418:	00e00113          	addi	x2,x0,14
 41c:	00100093          	addi	x1,x0,1
 420:	00000013          	addi	x0,x0,0
 424:	00209733          	sll	x14,x1,x2
 428:	00120213          	addi	x4,x4,1 # 1 <_start+0x1>
 42c:	00200293          	addi	x5,x0,2
 430:	fe5214e3          	bne	x4,x5,418 <test_35+0x8>
 434:	000043b7          	lui	x7,0x4
 438:	10771c63          	bne	x14,x7,550 <fail>

0000043c <test_36>:
 43c:	02400193          	addi	x3,x0,36
 440:	00000213          	addi	x4,x0,0
 444:	01f00113          	addi	x2,x0,31
 448:	00100093          	addi	x1,x0,1
 44c:	00000013          	addi	x0,x0,0
 450:	00000013          	addi	x0,x0,0
 454:	00209733          	sll	x14,x1,x2
 458:	00120213          	addi	x4,x4,1 # 1 <_start+0x1>
 45c:	00200293          	addi	x5,x0,2
 460:	fe5212e3          	bne	x4,x5,444 <test_36+0x8>
 464:	800003b7          	lui	x7,0x80000
 468:	0e771463          	bne	x14,x7,550 <fail>

0000046c <test_37>:
 46c:	02500193          	addi	x3,x0,37
 470:	00000213          	addi	x4,x0,0
 474:	00700113          	addi	x2,x0,7
 478:	00000013          	addi	x0,x0,0
 47c:	00100093          	addi	x1,x0,1
 480:	00209733          	sll	x14,x1,x2
 484:	00120213          	addi	x4,x4,1 # 1 <_start+0x1>
 488:	00200293          	addi	x5,x0,2
 48c:	fe5214e3          	bne	x4,x5,474 <test_37+0x8>
 490:	08000393          	addi	x7,x0,128
 494:	0a771e63          	bne	x14,x7,550 <fail>

00000498 <test_38>:
 498:	02600193          	addi	x3,x0,38
 49c:	00000213          	addi	x4,x0,0
 4a0:	00e00113          	addi	x2,x0,14
 4a4:	00000013          	addi	x0,x0,0
 4a8:	00100093          	addi	x1,x0,1
 4ac:	00000013          	addi	x0,x0,0
 4b0:	00209733          	sll	x14,x1,x2
 4b4:	00120213          	addi	x4,x4,1 # 1 <_start+0x1>
 4b8:	00200293          	addi	x5,x0,2
 4bc:	fe5212e3          	bne	x4,x5,4a0 <test_38+0x8>
 4c0:	000043b7          	lui	x7,0x4
 4c4:	08771663          	bne	x14,x7,550 <fail>

000004c8 <test_39>:
 4c8:	02700193          	addi	x3,x0,39
 4cc:	00000213          	addi	x4,x0,0
 4d0:	01f00113          	addi	x2,x0,31
 4d4:	00000013          	addi	x0,x0,0
 4d8:	00000013          	addi	x0,x0,0
 4dc:	00100093          	addi	x1,x0,1
 4e0:	00209733          	sll	x14,x1,x2
 4e4:	00120213          	addi	x4,x4,1 # 1 <_start+0x1>
 4e8:	00200293          	addi	x5,x0,2
 4ec:	fe5212e3          	bne	x4,x5,4d0 <test_39+0x8>
 4f0:	800003b7          	lui	x7,0x80000
 4f4:	04771e63          	bne	x14,x7,550 <fail>

000004f8 <test_40>:
 4f8:	02800193          	addi	x3,x0,40
 4fc:	00f00093          	addi	x1,x0,15
 500:	00101133          	sll	x2,x0,x1
 504:	00000393          	addi	x7,x0,0
 508:	04711463          	bne	x2,x7,550 <fail>

0000050c <test_41>:
 50c:	02900193          	addi	x3,x0,41
 510:	02000093          	addi	x1,x0,32
 514:	00009133          	sll	x2,x1,x0
 518:	02000393          	addi	x7,x0,32
 51c:	02711a63          	bne	x2,x7,550 <fail>

00000520 <test_42>:
 520:	02a00193          	addi	x3,x0,42
 524:	000010b3          	sll	x1,x0,x0
 528:	00000393          	addi	x7,x0,0
 52c:	02709263          	bne	x1,x7,550 <fail>

00000530 <test_43>:
 530:	02b00193          	addi	x3,x0,43
 534:	40000093          	addi	x1,x0,1024
 538:	00001137          	lui	x2,0x1
 53c:	80010113          	addi	x2,x2,-2048 # 800 <pass+0x294>
 540:	00209033          	sll	x0,x1,x2
 544:	00000393          	addi	x7,x0,0
 548:	00701463          	bne	x0,x7,550 <fail>
 54c:	02301063          	bne	x0,x3,56c <pass>

00000550 <fail>:
 550:	0ff0000f          	fence	iorw,iorw
 554:	00018063          	beq	x3,x0,554 <fail+0x4>
 558:	00119193          	slli	x3,x3,0x1
 55c:	0011e193          	ori	x3,x3,1
 560:	05d00893          	addi	x17,x0,93
 564:	00018513          	addi	x10,x3,0
 568:	00000073          	ecall

0000056c <pass>:
 56c:	0ff0000f          	fence	iorw,iorw
 570:	00100193          	addi	x3,x0,1
 574:	05d00893          	addi	x17,x0,93
 578:	00000513          	addi	x10,x0,0
 57c:	00000073          	ecall
 580:	c0001073          	unimp

Disassembly of section .tohost:

00001000 <tohost>:
	...

00001040 <fromhost>:
	...
