
sltu.elf:     file format elf32-littleriscv


Disassembly of section .text.init:

00000000 <_start>:
   0:	00200193          	addi	x3,x0,2
   4:	00000093          	addi	x1,x0,0
   8:	00000113          	addi	x2,x0,0
   c:	0020b733          	sltu	x14,x1,x2
  10:	00000393          	addi	x7,x0,0
  14:	4a771a63          	bne	x14,x7,4c8 <fail>

00000018 <test_3>:
  18:	00300193          	addi	x3,x0,3
  1c:	00100093          	addi	x1,x0,1
  20:	00100113          	addi	x2,x0,1
  24:	0020b733          	sltu	x14,x1,x2
  28:	00000393          	addi	x7,x0,0
  2c:	48771e63          	bne	x14,x7,4c8 <fail>

00000030 <test_4>:
  30:	00400193          	addi	x3,x0,4
  34:	00300093          	addi	x1,x0,3
  38:	00700113          	addi	x2,x0,7
  3c:	0020b733          	sltu	x14,x1,x2
  40:	00100393          	addi	x7,x0,1
  44:	48771263          	bne	x14,x7,4c8 <fail>

00000048 <test_5>:
  48:	00500193          	addi	x3,x0,5
  4c:	00700093          	addi	x1,x0,7
  50:	00300113          	addi	x2,x0,3
  54:	0020b733          	sltu	x14,x1,x2
  58:	00000393          	addi	x7,x0,0
  5c:	46771663          	bne	x14,x7,4c8 <fail>

00000060 <test_6>:
  60:	00600193          	addi	x3,x0,6
  64:	00000093          	addi	x1,x0,0
  68:	ffff8137          	lui	x2,0xffff8
  6c:	0020b733          	sltu	x14,x1,x2
  70:	00100393          	addi	x7,x0,1
  74:	44771a63          	bne	x14,x7,4c8 <fail>

00000078 <test_7>:
  78:	00700193          	addi	x3,x0,7
  7c:	800000b7          	lui	x1,0x80000
  80:	00000113          	addi	x2,x0,0
  84:	0020b733          	sltu	x14,x1,x2
  88:	00000393          	addi	x7,x0,0
  8c:	42771e63          	bne	x14,x7,4c8 <fail>

00000090 <test_8>:
  90:	00800193          	addi	x3,x0,8
  94:	800000b7          	lui	x1,0x80000
  98:	ffff8137          	lui	x2,0xffff8
  9c:	0020b733          	sltu	x14,x1,x2
  a0:	00100393          	addi	x7,x0,1
  a4:	42771263          	bne	x14,x7,4c8 <fail>

000000a8 <test_9>:
  a8:	00900193          	addi	x3,x0,9
  ac:	00000093          	addi	x1,x0,0
  b0:	00008137          	lui	x2,0x8
  b4:	fff10113          	addi	x2,x2,-1 # 7fff <_end+0x5fff>
  b8:	0020b733          	sltu	x14,x1,x2
  bc:	00100393          	addi	x7,x0,1
  c0:	40771463          	bne	x14,x7,4c8 <fail>

000000c4 <test_10>:
  c4:	00a00193          	addi	x3,x0,10
  c8:	800000b7          	lui	x1,0x80000
  cc:	fff08093          	addi	x1,x1,-1 # 7fffffff <_end+0x7fffdfff>
  d0:	00000113          	addi	x2,x0,0
  d4:	0020b733          	sltu	x14,x1,x2
  d8:	00000393          	addi	x7,x0,0
  dc:	3e771663          	bne	x14,x7,4c8 <fail>

000000e0 <test_11>:
  e0:	00b00193          	addi	x3,x0,11
  e4:	800000b7          	lui	x1,0x80000
  e8:	fff08093          	addi	x1,x1,-1 # 7fffffff <_end+0x7fffdfff>
  ec:	00008137          	lui	x2,0x8
  f0:	fff10113          	addi	x2,x2,-1 # 7fff <_end+0x5fff>
  f4:	0020b733          	sltu	x14,x1,x2
  f8:	00000393          	addi	x7,x0,0
  fc:	3c771663          	bne	x14,x7,4c8 <fail>

00000100 <test_12>:
 100:	00c00193          	addi	x3,x0,12
 104:	800000b7          	lui	x1,0x80000
 108:	00008137          	lui	x2,0x8
 10c:	fff10113          	addi	x2,x2,-1 # 7fff <_end+0x5fff>
 110:	0020b733          	sltu	x14,x1,x2
 114:	00000393          	addi	x7,x0,0
 118:	3a771863          	bne	x14,x7,4c8 <fail>

0000011c <test_13>:
 11c:	00d00193          	addi	x3,x0,13
 120:	800000b7          	lui	x1,0x80000
 124:	fff08093          	addi	x1,x1,-1 # 7fffffff <_end+0x7fffdfff>
 128:	ffff8137          	lui	x2,0xffff8
 12c:	0020b733          	sltu	x14,x1,x2
 130:	00100393          	addi	x7,x0,1
 134:	38771a63          	bne	x14,x7,4c8 <fail>

00000138 <test_14>:
 138:	00e00193          	addi	x3,x0,14
 13c:	00000093          	addi	x1,x0,0
 140:	fff00113          	addi	x2,x0,-1
 144:	0020b733          	sltu	x14,x1,x2
 148:	00100393          	addi	x7,x0,1
 14c:	36771e63          	bne	x14,x7,4c8 <fail>

00000150 <test_15>:
 150:	00f00193          	addi	x3,x0,15
 154:	fff00093          	addi	x1,x0,-1
 158:	00100113          	addi	x2,x0,1
 15c:	0020b733          	sltu	x14,x1,x2
 160:	00000393          	addi	x7,x0,0
 164:	36771263          	bne	x14,x7,4c8 <fail>

00000168 <test_16>:
 168:	01000193          	addi	x3,x0,16
 16c:	fff00093          	addi	x1,x0,-1
 170:	fff00113          	addi	x2,x0,-1
 174:	0020b733          	sltu	x14,x1,x2
 178:	00000393          	addi	x7,x0,0
 17c:	34771663          	bne	x14,x7,4c8 <fail>

00000180 <test_17>:
 180:	01100193          	addi	x3,x0,17
 184:	00e00093          	addi	x1,x0,14
 188:	00d00113          	addi	x2,x0,13
 18c:	0020b0b3          	sltu	x1,x1,x2
 190:	00000393          	addi	x7,x0,0
 194:	32709a63          	bne	x1,x7,4c8 <fail>

00000198 <test_18>:
 198:	01200193          	addi	x3,x0,18
 19c:	00b00093          	addi	x1,x0,11
 1a0:	00d00113          	addi	x2,x0,13
 1a4:	0020b133          	sltu	x2,x1,x2
 1a8:	00100393          	addi	x7,x0,1
 1ac:	30711e63          	bne	x2,x7,4c8 <fail>

000001b0 <test_19>:
 1b0:	01300193          	addi	x3,x0,19
 1b4:	00d00093          	addi	x1,x0,13
 1b8:	0010b0b3          	sltu	x1,x1,x1
 1bc:	00000393          	addi	x7,x0,0
 1c0:	30709463          	bne	x1,x7,4c8 <fail>

000001c4 <test_20>:
 1c4:	01400193          	addi	x3,x0,20
 1c8:	00000213          	addi	x4,x0,0
 1cc:	00b00093          	addi	x1,x0,11
 1d0:	00d00113          	addi	x2,x0,13
 1d4:	0020b733          	sltu	x14,x1,x2
 1d8:	00070313          	addi	x6,x14,0
 1dc:	00120213          	addi	x4,x4,1 # 1 <_start+0x1>
 1e0:	00200293          	addi	x5,x0,2
 1e4:	fe5214e3          	bne	x4,x5,1cc <test_20+0x8>
 1e8:	00100393          	addi	x7,x0,1
 1ec:	2c731e63          	bne	x6,x7,4c8 <fail>

000001f0 <test_21>:
 1f0:	01500193          	addi	x3,x0,21
 1f4:	00000213          	addi	x4,x0,0
 1f8:	00e00093          	addi	x1,x0,14
 1fc:	00d00113          	addi	x2,x0,13
 200:	0020b733          	sltu	x14,x1,x2
 204:	00000013          	addi	x0,x0,0
 208:	00070313          	addi	x6,x14,0
 20c:	00120213          	addi	x4,x4,1 # 1 <_start+0x1>
 210:	00200293          	addi	x5,x0,2
 214:	fe5212e3          	bne	x4,x5,1f8 <test_21+0x8>
 218:	00000393          	addi	x7,x0,0
 21c:	2a731663          	bne	x6,x7,4c8 <fail>

00000220 <test_22>:
 220:	01600193          	addi	x3,x0,22
 224:	00000213          	addi	x4,x0,0
 228:	00c00093          	addi	x1,x0,12
 22c:	00d00113          	addi	x2,x0,13
 230:	0020b733          	sltu	x14,x1,x2
 234:	00000013          	addi	x0,x0,0
 238:	00000013          	addi	x0,x0,0
 23c:	00070313          	addi	x6,x14,0
 240:	00120213          	addi	x4,x4,1 # 1 <_start+0x1>
 244:	00200293          	addi	x5,x0,2
 248:	fe5210e3          	bne	x4,x5,228 <test_22+0x8>
 24c:	00100393          	addi	x7,x0,1
 250:	26731c63          	bne	x6,x7,4c8 <fail>

00000254 <test_23>:
 254:	01700193          	addi	x3,x0,23
 258:	00000213          	addi	x4,x0,0
 25c:	00e00093          	addi	x1,x0,14
 260:	00d00113          	addi	x2,x0,13
 264:	0020b733          	sltu	x14,x1,x2
 268:	00120213          	addi	x4,x4,1 # 1 <_start+0x1>
 26c:	00200293          	addi	x5,x0,2
 270:	fe5216e3          	bne	x4,x5,25c <test_23+0x8>
 274:	00000393          	addi	x7,x0,0
 278:	24771863          	bne	x14,x7,4c8 <fail>

0000027c <test_24>:
 27c:	01800193          	addi	x3,x0,24
 280:	00000213          	addi	x4,x0,0
 284:	00b00093          	addi	x1,x0,11
 288:	00d00113          	addi	x2,x0,13
 28c:	00000013          	addi	x0,x0,0
 290:	0020b733          	sltu	x14,x1,x2
 294:	00120213          	addi	x4,x4,1 # 1 <_start+0x1>
 298:	00200293          	addi	x5,x0,2
 29c:	fe5214e3          	bne	x4,x5,284 <test_24+0x8>
 2a0:	00100393          	addi	x7,x0,1
 2a4:	22771263          	bne	x14,x7,4c8 <fail>

000002a8 <test_25>:
 2a8:	01900193          	addi	x3,x0,25
 2ac:	00000213          	addi	x4,x0,0
 2b0:	00f00093          	addi	x1,x0,15
 2b4:	00d00113          	addi	x2,x0,13
 2b8:	00000013          	addi	x0,x0,0
 2bc:	00000013          	addi	x0,x0,0
 2c0:	0020b733          	sltu	x14,x1,x2
 2c4:	00120213          	addi	x4,x4,1 # 1 <_start+0x1>
 2c8:	00200293          	addi	x5,x0,2
 2cc:	fe5212e3          	bne	x4,x5,2b0 <test_25+0x8>
 2d0:	00000393          	addi	x7,x0,0
 2d4:	1e771a63          	bne	x14,x7,4c8 <fail>

000002d8 <test_26>:
 2d8:	01a00193          	addi	x3,x0,26
 2dc:	00000213          	addi	x4,x0,0
 2e0:	00a00093          	addi	x1,x0,10
 2e4:	00000013          	addi	x0,x0,0
 2e8:	00d00113          	addi	x2,x0,13
 2ec:	0020b733          	sltu	x14,x1,x2
 2f0:	00120213          	addi	x4,x4,1 # 1 <_start+0x1>
 2f4:	00200293          	addi	x5,x0,2
 2f8:	fe5214e3          	bne	x4,x5,2e0 <test_26+0x8>
 2fc:	00100393          	addi	x7,x0,1
 300:	1c771463          	bne	x14,x7,4c8 <fail>

00000304 <test_27>:
 304:	01b00193          	addi	x3,x0,27
 308:	00000213          	addi	x4,x0,0
 30c:	01000093          	addi	x1,x0,16
 310:	00000013          	addi	x0,x0,0
 314:	00d00113          	addi	x2,x0,13
 318:	00000013          	addi	x0,x0,0
 31c:	0020b733          	sltu	x14,x1,x2
 320:	00120213          	addi	x4,x4,1 # 1 <_start+0x1>
 324:	00200293          	addi	x5,x0,2
 328:	fe5212e3          	bne	x4,x5,30c <test_27+0x8>
 32c:	00000393          	addi	x7,x0,0
 330:	18771c63          	bne	x14,x7,4c8 <fail>

00000334 <test_28>:
 334:	01c00193          	addi	x3,x0,28
 338:	00000213          	addi	x4,x0,0
 33c:	00900093          	addi	x1,x0,9
 340:	00000013          	addi	x0,x0,0
 344:	00000013          	addi	x0,x0,0
 348:	00d00113          	addi	x2,x0,13
 34c:	0020b733          	sltu	x14,x1,x2
 350:	00120213          	addi	x4,x4,1 # 1 <_start+0x1>
 354:	00200293          	addi	x5,x0,2
 358:	fe5212e3          	bne	x4,x5,33c <test_28+0x8>
 35c:	00100393          	addi	x7,x0,1
 360:	16771463          	bne	x14,x7,4c8 <fail>

00000364 <test_29>:
 364:	01d00193          	addi	x3,x0,29
 368:	00000213          	addi	x4,x0,0
 36c:	00d00113          	addi	x2,x0,13
 370:	01100093          	addi	x1,x0,17
 374:	0020b733          	sltu	x14,x1,x2
 378:	00120213          	addi	x4,x4,1 # 1 <_start+0x1>
 37c:	00200293          	addi	x5,x0,2
 380:	fe5216e3          	bne	x4,x5,36c <test_29+0x8>
 384:	00000393          	addi	x7,x0,0
 388:	14771063          	bne	x14,x7,4c8 <fail>

0000038c <test_30>:
 38c:	01e00193          	addi	x3,x0,30
 390:	00000213          	addi	x4,x0,0
 394:	00d00113          	addi	x2,x0,13
 398:	00800093          	addi	x1,x0,8
 39c:	00000013          	addi	x0,x0,0
 3a0:	0020b733          	sltu	x14,x1,x2
 3a4:	00120213          	addi	x4,x4,1 # 1 <_start+0x1>
 3a8:	00200293          	addi	x5,x0,2
 3ac:	fe5214e3          	bne	x4,x5,394 <test_30+0x8>
 3b0:	00100393          	addi	x7,x0,1
 3b4:	10771a63          	bne	x14,x7,4c8 <fail>

000003b8 <test_31>:
 3b8:	01f00193          	addi	x3,x0,31
 3bc:	00000213          	addi	x4,x0,0
 3c0:	00d00113          	addi	x2,x0,13
 3c4:	01200093          	addi	x1,x0,18
 3c8:	00000013          	addi	x0,x0,0
 3cc:	00000013          	addi	x0,x0,0
 3d0:	0020b733          	sltu	x14,x1,x2
 3d4:	00120213          	addi	x4,x4,1 # 1 <_start+0x1>
 3d8:	00200293          	addi	x5,x0,2
 3dc:	fe5212e3          	bne	x4,x5,3c0 <test_31+0x8>
 3e0:	00000393          	addi	x7,x0,0
 3e4:	0e771263          	bne	x14,x7,4c8 <fail>

000003e8 <test_32>:
 3e8:	02000193          	addi	x3,x0,32
 3ec:	00000213          	addi	x4,x0,0
 3f0:	00d00113          	addi	x2,x0,13
 3f4:	00000013          	addi	x0,x0,0
 3f8:	00700093          	addi	x1,x0,7
 3fc:	0020b733          	sltu	x14,x1,x2
 400:	00120213          	addi	x4,x4,1 # 1 <_start+0x1>
 404:	00200293          	addi	x5,x0,2
 408:	fe5214e3          	bne	x4,x5,3f0 <test_32+0x8>
 40c:	00100393          	addi	x7,x0,1
 410:	0a771c63          	bne	x14,x7,4c8 <fail>

00000414 <test_33>:
 414:	02100193          	addi	x3,x0,33
 418:	00000213          	addi	x4,x0,0
 41c:	00d00113          	addi	x2,x0,13
 420:	00000013          	addi	x0,x0,0
 424:	01300093          	addi	x1,x0,19
 428:	00000013          	addi	x0,x0,0
 42c:	0020b733          	sltu	x14,x1,x2
 430:	00120213          	addi	x4,x4,1 # 1 <_start+0x1>
 434:	00200293          	addi	x5,x0,2
 438:	fe5212e3          	bne	x4,x5,41c <test_33+0x8>
 43c:	00000393          	addi	x7,x0,0
 440:	08771463          	bne	x14,x7,4c8 <fail>

00000444 <test_34>:
 444:	02200193          	addi	x3,x0,34
 448:	00000213          	addi	x4,x0,0
 44c:	00d00113          	addi	x2,x0,13
 450:	00000013          	addi	x0,x0,0
 454:	00000013          	addi	x0,x0,0
 458:	00600093          	addi	x1,x0,6
 45c:	0020b733          	sltu	x14,x1,x2
 460:	00120213          	addi	x4,x4,1 # 1 <_start+0x1>
 464:	00200293          	addi	x5,x0,2
 468:	fe5212e3          	bne	x4,x5,44c <test_34+0x8>
 46c:	00100393          	addi	x7,x0,1
 470:	04771c63          	bne	x14,x7,4c8 <fail>

00000474 <test_35>:
 474:	02300193          	addi	x3,x0,35
 478:	fff00093          	addi	x1,x0,-1
 47c:	00103133          	sltu	x2,x0,x1
 480:	00100393          	addi	x7,x0,1
 484:	04711263          	bne	x2,x7,4c8 <fail>

00000488 <test_36>:
 488:	02400193          	addi	x3,x0,36
 48c:	fff00093          	addi	x1,x0,-1
 490:	0000b133          	sltu	x2,x1,x0
 494:	00000393          	addi	x7,x0,0
 498:	02711863          	bne	x2,x7,4c8 <fail>

0000049c <test_37>:
 49c:	02500193          	addi	x3,x0,37
 4a0:	000030b3          	sltu	x1,x0,x0
 4a4:	00000393          	addi	x7,x0,0
 4a8:	02709063          	bne	x1,x7,4c8 <fail>

000004ac <test_38>:
 4ac:	02600193          	addi	x3,x0,38
 4b0:	01000093          	addi	x1,x0,16
 4b4:	01e00113          	addi	x2,x0,30
 4b8:	0020b033          	sltu	x0,x1,x2
 4bc:	00000393          	addi	x7,x0,0
 4c0:	00701463          	bne	x0,x7,4c8 <fail>
 4c4:	02301063          	bne	x0,x3,4e4 <pass>

000004c8 <fail>:
 4c8:	0ff0000f          	fence	iorw,iorw
 4cc:	00018063          	beq	x3,x0,4cc <fail+0x4>
 4d0:	00119193          	slli	x3,x3,0x1
 4d4:	0011e193          	ori	x3,x3,1
 4d8:	05d00893          	addi	x17,x0,93
 4dc:	00018513          	addi	x10,x3,0
 4e0:	00000073          	ecall

000004e4 <pass>:
 4e4:	0ff0000f          	fence	iorw,iorw
 4e8:	00100193          	addi	x3,x0,1
 4ec:	05d00893          	addi	x17,x0,93
 4f0:	00000513          	addi	x10,x0,0
 4f4:	00000073          	ecall
 4f8:	c0001073          	unimp
	...

Disassembly of section .tohost:

00001000 <tohost>:
	...

00001040 <fromhost>:
	...
