
sra.elf:     file format elf32-littleriscv


Disassembly of section .text.init:

00000000 <_start>:
   0:	00200193          	addi	x3,x0,2
   4:	800000b7          	lui	x1,0x80000
   8:	00000113          	addi	x2,x0,0
   c:	4020d733          	sra	x14,x1,x2
  10:	800003b7          	lui	x7,0x80000
  14:	58771463          	bne	x14,x7,59c <fail>

00000018 <test_3>:
  18:	00300193          	addi	x3,x0,3
  1c:	800000b7          	lui	x1,0x80000
  20:	00100113          	addi	x2,x0,1
  24:	4020d733          	sra	x14,x1,x2
  28:	c00003b7          	lui	x7,0xc0000
  2c:	56771863          	bne	x14,x7,59c <fail>

00000030 <test_4>:
  30:	00400193          	addi	x3,x0,4
  34:	800000b7          	lui	x1,0x80000
  38:	00700113          	addi	x2,x0,7
  3c:	4020d733          	sra	x14,x1,x2
  40:	ff0003b7          	lui	x7,0xff000
  44:	54771c63          	bne	x14,x7,59c <fail>

00000048 <test_5>:
  48:	00500193          	addi	x3,x0,5
  4c:	800000b7          	lui	x1,0x80000
  50:	00e00113          	addi	x2,x0,14
  54:	4020d733          	sra	x14,x1,x2
  58:	fffe03b7          	lui	x7,0xfffe0
  5c:	54771063          	bne	x14,x7,59c <fail>

00000060 <test_6>:
  60:	00600193          	addi	x3,x0,6
  64:	800000b7          	lui	x1,0x80000
  68:	00108093          	addi	x1,x1,1 # 80000001 <_end+0x7fffe001>
  6c:	01f00113          	addi	x2,x0,31
  70:	4020d733          	sra	x14,x1,x2
  74:	fff00393          	addi	x7,x0,-1
  78:	52771263          	bne	x14,x7,59c <fail>

0000007c <test_7>:
  7c:	00700193          	addi	x3,x0,7
  80:	800000b7          	lui	x1,0x80000
  84:	fff08093          	addi	x1,x1,-1 # 7fffffff <_end+0x7fffdfff>
  88:	00000113          	addi	x2,x0,0
  8c:	4020d733          	sra	x14,x1,x2
  90:	800003b7          	lui	x7,0x80000
  94:	fff38393          	addi	x7,x7,-1 # 7fffffff <_end+0x7fffdfff>
  98:	50771263          	bne	x14,x7,59c <fail>

0000009c <test_8>:
  9c:	00800193          	addi	x3,x0,8
  a0:	800000b7          	lui	x1,0x80000
  a4:	fff08093          	addi	x1,x1,-1 # 7fffffff <_end+0x7fffdfff>
  a8:	00100113          	addi	x2,x0,1
  ac:	4020d733          	sra	x14,x1,x2
  b0:	400003b7          	lui	x7,0x40000
  b4:	fff38393          	addi	x7,x7,-1 # 3fffffff <_end+0x3fffdfff>
  b8:	4e771263          	bne	x14,x7,59c <fail>

000000bc <test_9>:
  bc:	00900193          	addi	x3,x0,9
  c0:	800000b7          	lui	x1,0x80000
  c4:	fff08093          	addi	x1,x1,-1 # 7fffffff <_end+0x7fffdfff>
  c8:	00700113          	addi	x2,x0,7
  cc:	4020d733          	sra	x14,x1,x2
  d0:	010003b7          	lui	x7,0x1000
  d4:	fff38393          	addi	x7,x7,-1 # ffffff <_end+0xffdfff>
  d8:	4c771263          	bne	x14,x7,59c <fail>

000000dc <test_10>:
  dc:	00a00193          	addi	x3,x0,10
  e0:	800000b7          	lui	x1,0x80000
  e4:	fff08093          	addi	x1,x1,-1 # 7fffffff <_end+0x7fffdfff>
  e8:	00e00113          	addi	x2,x0,14
  ec:	4020d733          	sra	x14,x1,x2
  f0:	000203b7          	lui	x7,0x20
  f4:	fff38393          	addi	x7,x7,-1 # 1ffff <_end+0x1dfff>
  f8:	4a771263          	bne	x14,x7,59c <fail>

000000fc <test_11>:
  fc:	00b00193          	addi	x3,x0,11
 100:	800000b7          	lui	x1,0x80000
 104:	fff08093          	addi	x1,x1,-1 # 7fffffff <_end+0x7fffdfff>
 108:	01f00113          	addi	x2,x0,31
 10c:	4020d733          	sra	x14,x1,x2
 110:	00000393          	addi	x7,x0,0
 114:	48771463          	bne	x14,x7,59c <fail>

00000118 <test_12>:
 118:	00c00193          	addi	x3,x0,12
 11c:	818180b7          	lui	x1,0x81818
 120:	18108093          	addi	x1,x1,385 # 81818181 <_end+0x81816181>
 124:	00000113          	addi	x2,x0,0
 128:	4020d733          	sra	x14,x1,x2
 12c:	818183b7          	lui	x7,0x81818
 130:	18138393          	addi	x7,x7,385 # 81818181 <_end+0x81816181>
 134:	46771463          	bne	x14,x7,59c <fail>

00000138 <test_13>:
 138:	00d00193          	addi	x3,x0,13
 13c:	818180b7          	lui	x1,0x81818
 140:	18108093          	addi	x1,x1,385 # 81818181 <_end+0x81816181>
 144:	00100113          	addi	x2,x0,1
 148:	4020d733          	sra	x14,x1,x2
 14c:	c0c0c3b7          	lui	x7,0xc0c0c
 150:	0c038393          	addi	x7,x7,192 # c0c0c0c0 <_end+0xc0c0a0c0>
 154:	44771463          	bne	x14,x7,59c <fail>

00000158 <test_14>:
 158:	00e00193          	addi	x3,x0,14
 15c:	818180b7          	lui	x1,0x81818
 160:	18108093          	addi	x1,x1,385 # 81818181 <_end+0x81816181>
 164:	00700113          	addi	x2,x0,7
 168:	4020d733          	sra	x14,x1,x2
 16c:	ff0303b7          	lui	x7,0xff030
 170:	30338393          	addi	x7,x7,771 # ff030303 <_end+0xff02e303>
 174:	42771463          	bne	x14,x7,59c <fail>

00000178 <test_15>:
 178:	00f00193          	addi	x3,x0,15
 17c:	818180b7          	lui	x1,0x81818
 180:	18108093          	addi	x1,x1,385 # 81818181 <_end+0x81816181>
 184:	00e00113          	addi	x2,x0,14
 188:	4020d733          	sra	x14,x1,x2
 18c:	fffe03b7          	lui	x7,0xfffe0
 190:	60638393          	addi	x7,x7,1542 # fffe0606 <_end+0xfffde606>
 194:	40771463          	bne	x14,x7,59c <fail>

00000198 <test_16>:
 198:	01000193          	addi	x3,x0,16
 19c:	818180b7          	lui	x1,0x81818
 1a0:	18108093          	addi	x1,x1,385 # 81818181 <_end+0x81816181>
 1a4:	01f00113          	addi	x2,x0,31
 1a8:	4020d733          	sra	x14,x1,x2
 1ac:	fff00393          	addi	x7,x0,-1
 1b0:	3e771663          	bne	x14,x7,59c <fail>

000001b4 <test_17>:
 1b4:	01100193          	addi	x3,x0,17
 1b8:	818180b7          	lui	x1,0x81818
 1bc:	18108093          	addi	x1,x1,385 # 81818181 <_end+0x81816181>
 1c0:	fc000113          	addi	x2,x0,-64
 1c4:	4020d733          	sra	x14,x1,x2
 1c8:	818183b7          	lui	x7,0x81818
 1cc:	18138393          	addi	x7,x7,385 # 81818181 <_end+0x81816181>
 1d0:	3c771663          	bne	x14,x7,59c <fail>

000001d4 <test_18>:
 1d4:	01200193          	addi	x3,x0,18
 1d8:	818180b7          	lui	x1,0x81818
 1dc:	18108093          	addi	x1,x1,385 # 81818181 <_end+0x81816181>
 1e0:	fc100113          	addi	x2,x0,-63
 1e4:	4020d733          	sra	x14,x1,x2
 1e8:	c0c0c3b7          	lui	x7,0xc0c0c
 1ec:	0c038393          	addi	x7,x7,192 # c0c0c0c0 <_end+0xc0c0a0c0>
 1f0:	3a771663          	bne	x14,x7,59c <fail>

000001f4 <test_19>:
 1f4:	01300193          	addi	x3,x0,19
 1f8:	818180b7          	lui	x1,0x81818
 1fc:	18108093          	addi	x1,x1,385 # 81818181 <_end+0x81816181>
 200:	fc700113          	addi	x2,x0,-57
 204:	4020d733          	sra	x14,x1,x2
 208:	ff0303b7          	lui	x7,0xff030
 20c:	30338393          	addi	x7,x7,771 # ff030303 <_end+0xff02e303>
 210:	38771663          	bne	x14,x7,59c <fail>

00000214 <test_20>:
 214:	01400193          	addi	x3,x0,20
 218:	818180b7          	lui	x1,0x81818
 21c:	18108093          	addi	x1,x1,385 # 81818181 <_end+0x81816181>
 220:	fce00113          	addi	x2,x0,-50
 224:	4020d733          	sra	x14,x1,x2
 228:	fffe03b7          	lui	x7,0xfffe0
 22c:	60638393          	addi	x7,x7,1542 # fffe0606 <_end+0xfffde606>
 230:	36771663          	bne	x14,x7,59c <fail>

00000234 <test_21>:
 234:	01500193          	addi	x3,x0,21
 238:	818180b7          	lui	x1,0x81818
 23c:	18108093          	addi	x1,x1,385 # 81818181 <_end+0x81816181>
 240:	fff00113          	addi	x2,x0,-1
 244:	4020d733          	sra	x14,x1,x2
 248:	fff00393          	addi	x7,x0,-1
 24c:	34771863          	bne	x14,x7,59c <fail>

00000250 <test_22>:
 250:	01600193          	addi	x3,x0,22
 254:	800000b7          	lui	x1,0x80000
 258:	00700113          	addi	x2,x0,7
 25c:	4020d0b3          	sra	x1,x1,x2
 260:	ff0003b7          	lui	x7,0xff000
 264:	32709c63          	bne	x1,x7,59c <fail>

00000268 <test_23>:
 268:	01700193          	addi	x3,x0,23
 26c:	800000b7          	lui	x1,0x80000
 270:	00e00113          	addi	x2,x0,14
 274:	4020d133          	sra	x2,x1,x2
 278:	fffe03b7          	lui	x7,0xfffe0
 27c:	32711063          	bne	x2,x7,59c <fail>

00000280 <test_24>:
 280:	01800193          	addi	x3,x0,24
 284:	00700093          	addi	x1,x0,7
 288:	4010d0b3          	sra	x1,x1,x1
 28c:	00000393          	addi	x7,x0,0
 290:	30709663          	bne	x1,x7,59c <fail>

00000294 <test_25>:
 294:	01900193          	addi	x3,x0,25
 298:	00000213          	addi	x4,x0,0
 29c:	800000b7          	lui	x1,0x80000
 2a0:	00700113          	addi	x2,x0,7
 2a4:	4020d733          	sra	x14,x1,x2
 2a8:	00070313          	addi	x6,x14,0
 2ac:	00120213          	addi	x4,x4,1 # 1 <_start+0x1>
 2b0:	00200293          	addi	x5,x0,2
 2b4:	fe5214e3          	bne	x4,x5,29c <test_25+0x8>
 2b8:	ff0003b7          	lui	x7,0xff000
 2bc:	2e731063          	bne	x6,x7,59c <fail>

000002c0 <test_26>:
 2c0:	01a00193          	addi	x3,x0,26
 2c4:	00000213          	addi	x4,x0,0
 2c8:	800000b7          	lui	x1,0x80000
 2cc:	00e00113          	addi	x2,x0,14
 2d0:	4020d733          	sra	x14,x1,x2
 2d4:	00000013          	addi	x0,x0,0
 2d8:	00070313          	addi	x6,x14,0
 2dc:	00120213          	addi	x4,x4,1 # 1 <_start+0x1>
 2e0:	00200293          	addi	x5,x0,2
 2e4:	fe5212e3          	bne	x4,x5,2c8 <test_26+0x8>
 2e8:	fffe03b7          	lui	x7,0xfffe0
 2ec:	2a731863          	bne	x6,x7,59c <fail>

000002f0 <test_27>:
 2f0:	01b00193          	addi	x3,x0,27
 2f4:	00000213          	addi	x4,x0,0
 2f8:	800000b7          	lui	x1,0x80000
 2fc:	01f00113          	addi	x2,x0,31
 300:	4020d733          	sra	x14,x1,x2
 304:	00000013          	addi	x0,x0,0
 308:	00000013          	addi	x0,x0,0
 30c:	00070313          	addi	x6,x14,0
 310:	00120213          	addi	x4,x4,1 # 1 <_start+0x1>
 314:	00200293          	addi	x5,x0,2
 318:	fe5210e3          	bne	x4,x5,2f8 <test_27+0x8>
 31c:	fff00393          	addi	x7,x0,-1
 320:	26731e63          	bne	x6,x7,59c <fail>

00000324 <test_28>:
 324:	01c00193          	addi	x3,x0,28
 328:	00000213          	addi	x4,x0,0
 32c:	800000b7          	lui	x1,0x80000
 330:	00700113          	addi	x2,x0,7
 334:	4020d733          	sra	x14,x1,x2
 338:	00120213          	addi	x4,x4,1 # 1 <_start+0x1>
 33c:	00200293          	addi	x5,x0,2
 340:	fe5216e3          	bne	x4,x5,32c <test_28+0x8>
 344:	ff0003b7          	lui	x7,0xff000
 348:	24771a63          	bne	x14,x7,59c <fail>

0000034c <test_29>:
 34c:	01d00193          	addi	x3,x0,29
 350:	00000213          	addi	x4,x0,0
 354:	800000b7          	lui	x1,0x80000
 358:	00e00113          	addi	x2,x0,14
 35c:	00000013          	addi	x0,x0,0
 360:	4020d733          	sra	x14,x1,x2
 364:	00120213          	addi	x4,x4,1 # 1 <_start+0x1>
 368:	00200293          	addi	x5,x0,2
 36c:	fe5214e3          	bne	x4,x5,354 <test_29+0x8>
 370:	fffe03b7          	lui	x7,0xfffe0
 374:	22771463          	bne	x14,x7,59c <fail>

00000378 <test_30>:
 378:	01e00193          	addi	x3,x0,30
 37c:	00000213          	addi	x4,x0,0
 380:	800000b7          	lui	x1,0x80000
 384:	01f00113          	addi	x2,x0,31
 388:	00000013          	addi	x0,x0,0
 38c:	00000013          	addi	x0,x0,0
 390:	4020d733          	sra	x14,x1,x2
 394:	00120213          	addi	x4,x4,1 # 1 <_start+0x1>
 398:	00200293          	addi	x5,x0,2
 39c:	fe5212e3          	bne	x4,x5,380 <test_30+0x8>
 3a0:	fff00393          	addi	x7,x0,-1
 3a4:	1e771c63          	bne	x14,x7,59c <fail>

000003a8 <test_31>:
 3a8:	01f00193          	addi	x3,x0,31
 3ac:	00000213          	addi	x4,x0,0
 3b0:	800000b7          	lui	x1,0x80000
 3b4:	00000013          	addi	x0,x0,0
 3b8:	00700113          	addi	x2,x0,7
 3bc:	4020d733          	sra	x14,x1,x2
 3c0:	00120213          	addi	x4,x4,1 # 1 <_start+0x1>
 3c4:	00200293          	addi	x5,x0,2
 3c8:	fe5214e3          	bne	x4,x5,3b0 <test_31+0x8>
 3cc:	ff0003b7          	lui	x7,0xff000
 3d0:	1c771663          	bne	x14,x7,59c <fail>

000003d4 <test_32>:
 3d4:	02000193          	addi	x3,x0,32
 3d8:	00000213          	addi	x4,x0,0
 3dc:	800000b7          	lui	x1,0x80000
 3e0:	00000013          	addi	x0,x0,0
 3e4:	00e00113          	addi	x2,x0,14
 3e8:	00000013          	addi	x0,x0,0
 3ec:	4020d733          	sra	x14,x1,x2
 3f0:	00120213          	addi	x4,x4,1 # 1 <_start+0x1>
 3f4:	00200293          	addi	x5,x0,2
 3f8:	fe5212e3          	bne	x4,x5,3dc <test_32+0x8>
 3fc:	fffe03b7          	lui	x7,0xfffe0
 400:	18771e63          	bne	x14,x7,59c <fail>

00000404 <test_33>:
 404:	02100193          	addi	x3,x0,33
 408:	00000213          	addi	x4,x0,0
 40c:	800000b7          	lui	x1,0x80000
 410:	00000013          	addi	x0,x0,0
 414:	00000013          	addi	x0,x0,0
 418:	01f00113          	addi	x2,x0,31
 41c:	4020d733          	sra	x14,x1,x2
 420:	00120213          	addi	x4,x4,1 # 1 <_start+0x1>
 424:	00200293          	addi	x5,x0,2
 428:	fe5212e3          	bne	x4,x5,40c <test_33+0x8>
 42c:	fff00393          	addi	x7,x0,-1
 430:	16771663          	bne	x14,x7,59c <fail>

00000434 <test_34>:
 434:	02200193          	addi	x3,x0,34
 438:	00000213          	addi	x4,x0,0
 43c:	00700113          	addi	x2,x0,7
 440:	800000b7          	lui	x1,0x80000
 444:	4020d733          	sra	x14,x1,x2
 448:	00120213          	addi	x4,x4,1 # 1 <_start+0x1>
 44c:	00200293          	addi	x5,x0,2
 450:	fe5216e3          	bne	x4,x5,43c <test_34+0x8>
 454:	ff0003b7          	lui	x7,0xff000
 458:	14771263          	bne	x14,x7,59c <fail>

0000045c <test_35>:
 45c:	02300193          	addi	x3,x0,35
 460:	00000213          	addi	x4,x0,0
 464:	00e00113          	addi	x2,x0,14
 468:	800000b7          	lui	x1,0x80000
 46c:	00000013          	addi	x0,x0,0
 470:	4020d733          	sra	x14,x1,x2
 474:	00120213          	addi	x4,x4,1 # 1 <_start+0x1>
 478:	00200293          	addi	x5,x0,2
 47c:	fe5214e3          	bne	x4,x5,464 <test_35+0x8>
 480:	fffe03b7          	lui	x7,0xfffe0
 484:	10771c63          	bne	x14,x7,59c <fail>

00000488 <test_36>:
 488:	02400193          	addi	x3,x0,36
 48c:	00000213          	addi	x4,x0,0
 490:	01f00113          	addi	x2,x0,31
 494:	800000b7          	lui	x1,0x80000
 498:	00000013          	addi	x0,x0,0
 49c:	00000013          	addi	x0,x0,0
 4a0:	4020d733          	sra	x14,x1,x2
 4a4:	00120213          	addi	x4,x4,1 # 1 <_start+0x1>
 4a8:	00200293          	addi	x5,x0,2
 4ac:	fe5212e3          	bne	x4,x5,490 <test_36+0x8>
 4b0:	fff00393          	addi	x7,x0,-1
 4b4:	0e771463          	bne	x14,x7,59c <fail>

000004b8 <test_37>:
 4b8:	02500193          	addi	x3,x0,37
 4bc:	00000213          	addi	x4,x0,0
 4c0:	00700113          	addi	x2,x0,7
 4c4:	00000013          	addi	x0,x0,0
 4c8:	800000b7          	lui	x1,0x80000
 4cc:	4020d733          	sra	x14,x1,x2
 4d0:	00120213          	addi	x4,x4,1 # 1 <_start+0x1>
 4d4:	00200293          	addi	x5,x0,2
 4d8:	fe5214e3          	bne	x4,x5,4c0 <test_37+0x8>
 4dc:	ff0003b7          	lui	x7,0xff000
 4e0:	0a771e63          	bne	x14,x7,59c <fail>

000004e4 <test_38>:
 4e4:	02600193          	addi	x3,x0,38
 4e8:	00000213          	addi	x4,x0,0
 4ec:	00e00113          	addi	x2,x0,14
 4f0:	00000013          	addi	x0,x0,0
 4f4:	800000b7          	lui	x1,0x80000
 4f8:	00000013          	addi	x0,x0,0
 4fc:	4020d733          	sra	x14,x1,x2
 500:	00120213          	addi	x4,x4,1 # 1 <_start+0x1>
 504:	00200293          	addi	x5,x0,2
 508:	fe5212e3          	bne	x4,x5,4ec <test_38+0x8>
 50c:	fffe03b7          	lui	x7,0xfffe0
 510:	08771663          	bne	x14,x7,59c <fail>

00000514 <test_39>:
 514:	02700193          	addi	x3,x0,39
 518:	00000213          	addi	x4,x0,0
 51c:	01f00113          	addi	x2,x0,31
 520:	00000013          	addi	x0,x0,0
 524:	00000013          	addi	x0,x0,0
 528:	800000b7          	lui	x1,0x80000
 52c:	4020d733          	sra	x14,x1,x2
 530:	00120213          	addi	x4,x4,1 # 1 <_start+0x1>
 534:	00200293          	addi	x5,x0,2
 538:	fe5212e3          	bne	x4,x5,51c <test_39+0x8>
 53c:	fff00393          	addi	x7,x0,-1
 540:	04771e63          	bne	x14,x7,59c <fail>

00000544 <test_40>:
 544:	02800193          	addi	x3,x0,40
 548:	00f00093          	addi	x1,x0,15
 54c:	40105133          	sra	x2,x0,x1
 550:	00000393          	addi	x7,x0,0
 554:	04711463          	bne	x2,x7,59c <fail>

00000558 <test_41>:
 558:	02900193          	addi	x3,x0,41
 55c:	02000093          	addi	x1,x0,32
 560:	4000d133          	sra	x2,x1,x0
 564:	02000393          	addi	x7,x0,32
 568:	02711a63          	bne	x2,x7,59c <fail>

0000056c <test_42>:
 56c:	02a00193          	addi	x3,x0,42
 570:	400050b3          	sra	x1,x0,x0
 574:	00000393          	addi	x7,x0,0
 578:	02709263          	bne	x1,x7,59c <fail>

0000057c <test_43>:
 57c:	02b00193          	addi	x3,x0,43
 580:	40000093          	addi	x1,x0,1024
 584:	00001137          	lui	x2,0x1
 588:	80010113          	addi	x2,x2,-2048 # 800 <pass+0x248>
 58c:	4020d033          	sra	x0,x1,x2
 590:	00000393          	addi	x7,x0,0
 594:	00701463          	bne	x0,x7,59c <fail>
 598:	02301063          	bne	x0,x3,5b8 <pass>

0000059c <fail>:
 59c:	0ff0000f          	fence	iorw,iorw
 5a0:	00018063          	beq	x3,x0,5a0 <fail+0x4>
 5a4:	00119193          	slli	x3,x3,0x1
 5a8:	0011e193          	ori	x3,x3,1
 5ac:	05d00893          	addi	x17,x0,93
 5b0:	00018513          	addi	x10,x3,0
 5b4:	00000073          	ecall

000005b8 <pass>:
 5b8:	0ff0000f          	fence	iorw,iorw
 5bc:	00100193          	addi	x3,x0,1
 5c0:	05d00893          	addi	x17,x0,93
 5c4:	00000513          	addi	x10,x0,0
 5c8:	00000073          	ecall
 5cc:	c0001073          	unimp
	...

Disassembly of section .tohost:

00001000 <tohost>:
	...

00001040 <fromhost>:
	...
