
srai.elf:     file format elf32-littleriscv


Disassembly of section .text.init:

00000000 <_start>:
   0:	00200193          	addi	x3,x0,2
   4:	00000093          	addi	x1,x0,0
   8:	4000d713          	srai	x14,x1,0x0
   c:	00000393          	addi	x7,x0,0
  10:	2a771463          	bne	x14,x7,2b8 <fail>

00000014 <test_3>:
  14:	00300193          	addi	x3,x0,3
  18:	800000b7          	lui	x1,0x80000
  1c:	4010d713          	srai	x14,x1,0x1
  20:	c00003b7          	lui	x7,0xc0000
  24:	28771a63          	bne	x14,x7,2b8 <fail>

00000028 <test_4>:
  28:	00400193          	addi	x3,x0,4
  2c:	800000b7          	lui	x1,0x80000
  30:	4070d713          	srai	x14,x1,0x7
  34:	ff0003b7          	lui	x7,0xff000
  38:	28771063          	bne	x14,x7,2b8 <fail>

0000003c <test_5>:
  3c:	00500193          	addi	x3,x0,5
  40:	800000b7          	lui	x1,0x80000
  44:	40e0d713          	srai	x14,x1,0xe
  48:	fffe03b7          	lui	x7,0xfffe0
  4c:	26771663          	bne	x14,x7,2b8 <fail>

00000050 <test_6>:
  50:	00600193          	addi	x3,x0,6
  54:	800000b7          	lui	x1,0x80000
  58:	00108093          	addi	x1,x1,1 # 80000001 <_end+0x7fffe001>
  5c:	41f0d713          	srai	x14,x1,0x1f
  60:	fff00393          	addi	x7,x0,-1
  64:	24771a63          	bne	x14,x7,2b8 <fail>

00000068 <test_7>:
  68:	00700193          	addi	x3,x0,7
  6c:	800000b7          	lui	x1,0x80000
  70:	fff08093          	addi	x1,x1,-1 # 7fffffff <_end+0x7fffdfff>
  74:	4000d713          	srai	x14,x1,0x0
  78:	800003b7          	lui	x7,0x80000
  7c:	fff38393          	addi	x7,x7,-1 # 7fffffff <_end+0x7fffdfff>
  80:	22771c63          	bne	x14,x7,2b8 <fail>

00000084 <test_8>:
  84:	00800193          	addi	x3,x0,8
  88:	800000b7          	lui	x1,0x80000
  8c:	fff08093          	addi	x1,x1,-1 # 7fffffff <_end+0x7fffdfff>
  90:	4010d713          	srai	x14,x1,0x1
  94:	400003b7          	lui	x7,0x40000
  98:	fff38393          	addi	x7,x7,-1 # 3fffffff <_end+0x3fffdfff>
  9c:	20771e63          	bne	x14,x7,2b8 <fail>

000000a0 <test_9>:
  a0:	00900193          	addi	x3,x0,9
  a4:	800000b7          	lui	x1,0x80000
  a8:	fff08093          	addi	x1,x1,-1 # 7fffffff <_end+0x7fffdfff>
  ac:	4070d713          	srai	x14,x1,0x7
  b0:	010003b7          	lui	x7,0x1000
  b4:	fff38393          	addi	x7,x7,-1 # ffffff <_end+0xffdfff>
  b8:	20771063          	bne	x14,x7,2b8 <fail>

000000bc <test_10>:
  bc:	00a00193          	addi	x3,x0,10
  c0:	800000b7          	lui	x1,0x80000
  c4:	fff08093          	addi	x1,x1,-1 # 7fffffff <_end+0x7fffdfff>
  c8:	40e0d713          	srai	x14,x1,0xe
  cc:	000203b7          	lui	x7,0x20
  d0:	fff38393          	addi	x7,x7,-1 # 1ffff <_end+0x1dfff>
  d4:	1e771263          	bne	x14,x7,2b8 <fail>

000000d8 <test_11>:
  d8:	00b00193          	addi	x3,x0,11
  dc:	800000b7          	lui	x1,0x80000
  e0:	fff08093          	addi	x1,x1,-1 # 7fffffff <_end+0x7fffdfff>
  e4:	41f0d713          	srai	x14,x1,0x1f
  e8:	00000393          	addi	x7,x0,0
  ec:	1c771663          	bne	x14,x7,2b8 <fail>

000000f0 <test_12>:
  f0:	00c00193          	addi	x3,x0,12
  f4:	818180b7          	lui	x1,0x81818
  f8:	18108093          	addi	x1,x1,385 # 81818181 <_end+0x81816181>
  fc:	4000d713          	srai	x14,x1,0x0
 100:	818183b7          	lui	x7,0x81818
 104:	18138393          	addi	x7,x7,385 # 81818181 <_end+0x81816181>
 108:	1a771863          	bne	x14,x7,2b8 <fail>

0000010c <test_13>:
 10c:	00d00193          	addi	x3,x0,13
 110:	818180b7          	lui	x1,0x81818
 114:	18108093          	addi	x1,x1,385 # 81818181 <_end+0x81816181>
 118:	4010d713          	srai	x14,x1,0x1
 11c:	c0c0c3b7          	lui	x7,0xc0c0c
 120:	0c038393          	addi	x7,x7,192 # c0c0c0c0 <_end+0xc0c0a0c0>
 124:	18771a63          	bne	x14,x7,2b8 <fail>

00000128 <test_14>:
 128:	00e00193          	addi	x3,x0,14
 12c:	818180b7          	lui	x1,0x81818
 130:	18108093          	addi	x1,x1,385 # 81818181 <_end+0x81816181>
 134:	4070d713          	srai	x14,x1,0x7
 138:	ff0303b7          	lui	x7,0xff030
 13c:	30338393          	addi	x7,x7,771 # ff030303 <_end+0xff02e303>
 140:	16771c63          	bne	x14,x7,2b8 <fail>

00000144 <test_15>:
 144:	00f00193          	addi	x3,x0,15
 148:	818180b7          	lui	x1,0x81818
 14c:	18108093          	addi	x1,x1,385 # 81818181 <_end+0x81816181>
 150:	40e0d713          	srai	x14,x1,0xe
 154:	fffe03b7          	lui	x7,0xfffe0
 158:	60638393          	addi	x7,x7,1542 # fffe0606 <_end+0xfffde606>
 15c:	14771e63          	bne	x14,x7,2b8 <fail>

00000160 <test_16>:
 160:	01000193          	addi	x3,x0,16
 164:	818180b7          	lui	x1,0x81818
 168:	18108093          	addi	x1,x1,385 # 81818181 <_end+0x81816181>
 16c:	41f0d713          	srai	x14,x1,0x1f
 170:	fff00393          	addi	x7,x0,-1
 174:	14771263          	bne	x14,x7,2b8 <fail>

00000178 <test_17>:
 178:	01100193          	addi	x3,x0,17
 17c:	800000b7          	lui	x1,0x80000
 180:	4070d093          	srai	x1,x1,0x7
 184:	ff0003b7          	lui	x7,0xff000
 188:	12709863          	bne	x1,x7,2b8 <fail>

0000018c <test_18>:
 18c:	01200193          	addi	x3,x0,18
 190:	00000213          	addi	x4,x0,0
 194:	800000b7          	lui	x1,0x80000
 198:	4070d713          	srai	x14,x1,0x7
 19c:	00070313          	addi	x6,x14,0
 1a0:	00120213          	addi	x4,x4,1 # 1 <_start+0x1>
 1a4:	00200293          	addi	x5,x0,2
 1a8:	fe5216e3          	bne	x4,x5,194 <test_18+0x8>
 1ac:	ff0003b7          	lui	x7,0xff000
 1b0:	10731463          	bne	x6,x7,2b8 <fail>

000001b4 <test_19>:
 1b4:	01300193          	addi	x3,x0,19
 1b8:	00000213          	addi	x4,x0,0
 1bc:	800000b7          	lui	x1,0x80000
 1c0:	40e0d713          	srai	x14,x1,0xe
 1c4:	00000013          	addi	x0,x0,0
 1c8:	00070313          	addi	x6,x14,0
 1cc:	00120213          	addi	x4,x4,1 # 1 <_start+0x1>
 1d0:	00200293          	addi	x5,x0,2
 1d4:	fe5214e3          	bne	x4,x5,1bc <test_19+0x8>
 1d8:	fffe03b7          	lui	x7,0xfffe0
 1dc:	0c731e63          	bne	x6,x7,2b8 <fail>

000001e0 <test_20>:
 1e0:	01400193          	addi	x3,x0,20
 1e4:	00000213          	addi	x4,x0,0
 1e8:	800000b7          	lui	x1,0x80000
 1ec:	00108093          	addi	x1,x1,1 # 80000001 <_end+0x7fffe001>
 1f0:	41f0d713          	srai	x14,x1,0x1f
 1f4:	00000013          	addi	x0,x0,0
 1f8:	00000013          	addi	x0,x0,0
 1fc:	00070313          	addi	x6,x14,0
 200:	00120213          	addi	x4,x4,1 # 1 <_start+0x1>
 204:	00200293          	addi	x5,x0,2
 208:	fe5210e3          	bne	x4,x5,1e8 <test_20+0x8>
 20c:	fff00393          	addi	x7,x0,-1
 210:	0a731463          	bne	x6,x7,2b8 <fail>

00000214 <test_21>:
 214:	01500193          	addi	x3,x0,21
 218:	00000213          	addi	x4,x0,0
 21c:	800000b7          	lui	x1,0x80000
 220:	4070d713          	srai	x14,x1,0x7
 224:	00120213          	addi	x4,x4,1 # 1 <_start+0x1>
 228:	00200293          	addi	x5,x0,2
 22c:	fe5218e3          	bne	x4,x5,21c <test_21+0x8>
 230:	ff0003b7          	lui	x7,0xff000
 234:	08771263          	bne	x14,x7,2b8 <fail>

00000238 <test_22>:
 238:	01600193          	addi	x3,x0,22
 23c:	00000213          	addi	x4,x0,0
 240:	800000b7          	lui	x1,0x80000
 244:	00000013          	addi	x0,x0,0
 248:	40e0d713          	srai	x14,x1,0xe
 24c:	00120213          	addi	x4,x4,1 # 1 <_start+0x1>
 250:	00200293          	addi	x5,x0,2
 254:	fe5216e3          	bne	x4,x5,240 <test_22+0x8>
 258:	fffe03b7          	lui	x7,0xfffe0
 25c:	04771e63          	bne	x14,x7,2b8 <fail>

00000260 <test_23>:
 260:	01700193          	addi	x3,x0,23
 264:	00000213          	addi	x4,x0,0
 268:	800000b7          	lui	x1,0x80000
 26c:	00108093          	addi	x1,x1,1 # 80000001 <_end+0x7fffe001>
 270:	00000013          	addi	x0,x0,0
 274:	00000013          	addi	x0,x0,0
 278:	41f0d713          	srai	x14,x1,0x1f
 27c:	00120213          	addi	x4,x4,1 # 1 <_start+0x1>
 280:	00200293          	addi	x5,x0,2
 284:	fe5212e3          	bne	x4,x5,268 <test_23+0x8>
 288:	fff00393          	addi	x7,x0,-1
 28c:	02771663          	bne	x14,x7,2b8 <fail>

00000290 <test_24>:
 290:	01800193          	addi	x3,x0,24
 294:	40405093          	srai	x1,x0,0x4
 298:	00000393          	addi	x7,x0,0
 29c:	00709e63          	bne	x1,x7,2b8 <fail>

000002a0 <test_25>:
 2a0:	01900193          	addi	x3,x0,25
 2a4:	02100093          	addi	x1,x0,33
 2a8:	40a0d013          	srai	x0,x1,0xa
 2ac:	00000393          	addi	x7,x0,0
 2b0:	00701463          	bne	x0,x7,2b8 <fail>
 2b4:	02301063          	bne	x0,x3,2d4 <pass>

000002b8 <fail>:
 2b8:	0ff0000f          	fence	iorw,iorw
 2bc:	00018063          	beq	x3,x0,2bc <fail+0x4>
 2c0:	00119193          	slli	x3,x3,0x1
 2c4:	0011e193          	ori	x3,x3,1
 2c8:	05d00893          	addi	x17,x0,93
 2cc:	00018513          	addi	x10,x3,0
 2d0:	00000073          	ecall

000002d4 <pass>:
 2d4:	0ff0000f          	fence	iorw,iorw
 2d8:	00100193          	addi	x3,x0,1
 2dc:	05d00893          	addi	x17,x0,93
 2e0:	00000513          	addi	x10,x0,0
 2e4:	00000073          	ecall
 2e8:	c0001073          	unimp
	...

Disassembly of section .tohost:

00001000 <tohost>:
	...

00001040 <fromhost>:
	...
