
sw.elf:     file format elf32-littleriscv


Disassembly of section .text.init:

00000000 <_start>:
   0:	00200193          	addi	x3,x0,2
   4:	00002097          	auipc	x1,0x2
   8:	ffc08093          	addi	x1,x1,-4 # 2000 <begin_signature>
   c:	00aa0137          	lui	x2,0xaa0
  10:	0aa10113          	addi	x2,x2,170 # aa00aa <_end+0xa9e07a>
  14:	00000797          	auipc	x15,0x0
  18:	01478793          	addi	x15,x15,20 # 28 <_start+0x28>
  1c:	0020a023          	sw	x2,0(x1)
  20:	0000a703          	lw	x14,0(x1)
  24:	0080006f          	jal	x0,2c <_start+0x2c>
  28:	00010713          	addi	x14,x2,0
  2c:	00aa03b7          	lui	x7,0xaa0
  30:	0aa38393          	addi	x7,x7,170 # aa00aa <_end+0xa9e07a>
  34:	4c771863          	bne	x14,x7,504 <fail>

00000038 <test_3>:
  38:	00300193          	addi	x3,x0,3
  3c:	00002097          	auipc	x1,0x2
  40:	fc408093          	addi	x1,x1,-60 # 2000 <begin_signature>
  44:	aa00b137          	lui	x2,0xaa00b
  48:	a0010113          	addi	x2,x2,-1536 # aa00aa00 <_end+0xaa0089d0>
  4c:	00000797          	auipc	x15,0x0
  50:	01478793          	addi	x15,x15,20 # 60 <test_3+0x28>
  54:	0020a223          	sw	x2,4(x1)
  58:	0040a703          	lw	x14,4(x1)
  5c:	0080006f          	jal	x0,64 <test_3+0x2c>
  60:	00010713          	addi	x14,x2,0
  64:	aa00b3b7          	lui	x7,0xaa00b
  68:	a0038393          	addi	x7,x7,-1536 # aa00aa00 <_end+0xaa0089d0>
  6c:	48771c63          	bne	x14,x7,504 <fail>

00000070 <test_4>:
  70:	00400193          	addi	x3,x0,4
  74:	00002097          	auipc	x1,0x2
  78:	f8c08093          	addi	x1,x1,-116 # 2000 <begin_signature>
  7c:	0aa01137          	lui	x2,0xaa01
  80:	aa010113          	addi	x2,x2,-1376 # aa00aa0 <_end+0xa9fea70>
  84:	00000797          	auipc	x15,0x0
  88:	01478793          	addi	x15,x15,20 # 98 <test_4+0x28>
  8c:	0020a423          	sw	x2,8(x1)
  90:	0080a703          	lw	x14,8(x1)
  94:	0080006f          	jal	x0,9c <test_4+0x2c>
  98:	00010713          	addi	x14,x2,0
  9c:	0aa013b7          	lui	x7,0xaa01
  a0:	aa038393          	addi	x7,x7,-1376 # aa00aa0 <_end+0xa9fea70>
  a4:	46771063          	bne	x14,x7,504 <fail>

000000a8 <test_5>:
  a8:	00500193          	addi	x3,x0,5
  ac:	00002097          	auipc	x1,0x2
  b0:	f5408093          	addi	x1,x1,-172 # 2000 <begin_signature>
  b4:	a00aa137          	lui	x2,0xa00aa
  b8:	00a10113          	addi	x2,x2,10 # a00aa00a <_end+0xa00a7fda>
  bc:	00000797          	auipc	x15,0x0
  c0:	01478793          	addi	x15,x15,20 # d0 <test_5+0x28>
  c4:	0020a623          	sw	x2,12(x1)
  c8:	00c0a703          	lw	x14,12(x1)
  cc:	0080006f          	jal	x0,d4 <test_5+0x2c>
  d0:	00010713          	addi	x14,x2,0
  d4:	a00aa3b7          	lui	x7,0xa00aa
  d8:	00a38393          	addi	x7,x7,10 # a00aa00a <_end+0xa00a7fda>
  dc:	42771463          	bne	x14,x7,504 <fail>

000000e0 <test_6>:
  e0:	00600193          	addi	x3,x0,6
  e4:	00002097          	auipc	x1,0x2
  e8:	f3808093          	addi	x1,x1,-200 # 201c <tdat8>
  ec:	00aa0137          	lui	x2,0xaa0
  f0:	0aa10113          	addi	x2,x2,170 # aa00aa <_end+0xa9e07a>
  f4:	00000797          	auipc	x15,0x0
  f8:	01478793          	addi	x15,x15,20 # 108 <test_6+0x28>
  fc:	fe20aa23          	sw	x2,-12(x1)
 100:	ff40a703          	lw	x14,-12(x1)
 104:	0080006f          	jal	x0,10c <test_6+0x2c>
 108:	00010713          	addi	x14,x2,0
 10c:	00aa03b7          	lui	x7,0xaa0
 110:	0aa38393          	addi	x7,x7,170 # aa00aa <_end+0xa9e07a>
 114:	3e771863          	bne	x14,x7,504 <fail>

00000118 <test_7>:
 118:	00700193          	addi	x3,x0,7
 11c:	00002097          	auipc	x1,0x2
 120:	f0008093          	addi	x1,x1,-256 # 201c <tdat8>
 124:	aa00b137          	lui	x2,0xaa00b
 128:	a0010113          	addi	x2,x2,-1536 # aa00aa00 <_end+0xaa0089d0>
 12c:	00000797          	auipc	x15,0x0
 130:	01478793          	addi	x15,x15,20 # 140 <test_7+0x28>
 134:	fe20ac23          	sw	x2,-8(x1)
 138:	ff80a703          	lw	x14,-8(x1)
 13c:	0080006f          	jal	x0,144 <test_7+0x2c>
 140:	00010713          	addi	x14,x2,0
 144:	aa00b3b7          	lui	x7,0xaa00b
 148:	a0038393          	addi	x7,x7,-1536 # aa00aa00 <_end+0xaa0089d0>
 14c:	3a771c63          	bne	x14,x7,504 <fail>

00000150 <test_8>:
 150:	00800193          	addi	x3,x0,8
 154:	00002097          	auipc	x1,0x2
 158:	ec808093          	addi	x1,x1,-312 # 201c <tdat8>
 15c:	0aa01137          	lui	x2,0xaa01
 160:	aa010113          	addi	x2,x2,-1376 # aa00aa0 <_end+0xa9fea70>
 164:	00000797          	auipc	x15,0x0
 168:	01478793          	addi	x15,x15,20 # 178 <test_8+0x28>
 16c:	fe20ae23          	sw	x2,-4(x1)
 170:	ffc0a703          	lw	x14,-4(x1)
 174:	0080006f          	jal	x0,17c <test_8+0x2c>
 178:	00010713          	addi	x14,x2,0
 17c:	0aa013b7          	lui	x7,0xaa01
 180:	aa038393          	addi	x7,x7,-1376 # aa00aa0 <_end+0xa9fea70>
 184:	38771063          	bne	x14,x7,504 <fail>

00000188 <test_9>:
 188:	00900193          	addi	x3,x0,9
 18c:	00002097          	auipc	x1,0x2
 190:	e9008093          	addi	x1,x1,-368 # 201c <tdat8>
 194:	a00aa137          	lui	x2,0xa00aa
 198:	00a10113          	addi	x2,x2,10 # a00aa00a <_end+0xa00a7fda>
 19c:	00000797          	auipc	x15,0x0
 1a0:	01478793          	addi	x15,x15,20 # 1b0 <test_9+0x28>
 1a4:	0020a023          	sw	x2,0(x1)
 1a8:	0000a703          	lw	x14,0(x1)
 1ac:	0080006f          	jal	x0,1b4 <test_9+0x2c>
 1b0:	00010713          	addi	x14,x2,0
 1b4:	a00aa3b7          	lui	x7,0xa00aa
 1b8:	00a38393          	addi	x7,x7,10 # a00aa00a <_end+0xa00a7fda>
 1bc:	34771463          	bne	x14,x7,504 <fail>

000001c0 <test_10>:
 1c0:	00a00193          	addi	x3,x0,10
 1c4:	00002097          	auipc	x1,0x2
 1c8:	e5c08093          	addi	x1,x1,-420 # 2020 <tdat9>
 1cc:	12345137          	lui	x2,0x12345
 1d0:	67810113          	addi	x2,x2,1656 # 12345678 <_end+0x12343648>
 1d4:	fe008213          	addi	x4,x1,-32
 1d8:	02222023          	sw	x2,32(x4) # 20 <_start+0x20>
 1dc:	0000a283          	lw	x5,0(x1)
 1e0:	123453b7          	lui	x7,0x12345
 1e4:	67838393          	addi	x7,x7,1656 # 12345678 <_end+0x12343648>
 1e8:	30729e63          	bne	x5,x7,504 <fail>

000001ec <test_11>:
 1ec:	00b00193          	addi	x3,x0,11
 1f0:	00002097          	auipc	x1,0x2
 1f4:	e3008093          	addi	x1,x1,-464 # 2020 <tdat9>
 1f8:	58213137          	lui	x2,0x58213
 1fc:	09810113          	addi	x2,x2,152 # 58213098 <_end+0x58211068>
 200:	ffd08093          	addi	x1,x1,-3
 204:	0020a3a3          	sw	x2,7(x1)
 208:	00002217          	auipc	x4,0x2
 20c:	e1c20213          	addi	x4,x4,-484 # 2024 <tdat10>
 210:	00022283          	lw	x5,0(x4) # 0 <_start>
 214:	582133b7          	lui	x7,0x58213
 218:	09838393          	addi	x7,x7,152 # 58213098 <_end+0x58211068>
 21c:	2e729463          	bne	x5,x7,504 <fail>

00000220 <test_12>:
 220:	00c00193          	addi	x3,x0,12
 224:	00000213          	addi	x4,x0,0
 228:	aabbd0b7          	lui	x1,0xaabbd
 22c:	cdd08093          	addi	x1,x1,-803 # aabbccdd <_end+0xaabbacad>
 230:	00002117          	auipc	x2,0x2
 234:	dd010113          	addi	x2,x2,-560 # 2000 <begin_signature>
 238:	00112023          	sw	x1,0(x2)
 23c:	00012703          	lw	x14,0(x2)
 240:	aabbd3b7          	lui	x7,0xaabbd
 244:	cdd38393          	addi	x7,x7,-803 # aabbccdd <_end+0xaabbacad>
 248:	2a771e63          	bne	x14,x7,504 <fail>
 24c:	00120213          	addi	x4,x4,1 # 1 <_start+0x1>
 250:	00200293          	addi	x5,x0,2
 254:	fc521ae3          	bne	x4,x5,228 <test_12+0x8>

00000258 <test_13>:
 258:	00d00193          	addi	x3,x0,13
 25c:	00000213          	addi	x4,x0,0
 260:	daabc0b7          	lui	x1,0xdaabc
 264:	ccd08093          	addi	x1,x1,-819 # daabbccd <_end+0xdaab9c9d>
 268:	00002117          	auipc	x2,0x2
 26c:	d9810113          	addi	x2,x2,-616 # 2000 <begin_signature>
 270:	00000013          	addi	x0,x0,0
 274:	00112223          	sw	x1,4(x2)
 278:	00412703          	lw	x14,4(x2)
 27c:	daabc3b7          	lui	x7,0xdaabc
 280:	ccd38393          	addi	x7,x7,-819 # daabbccd <_end+0xdaab9c9d>
 284:	28771063          	bne	x14,x7,504 <fail>
 288:	00120213          	addi	x4,x4,1 # 1 <_start+0x1>
 28c:	00200293          	addi	x5,x0,2
 290:	fc5218e3          	bne	x4,x5,260 <test_13+0x8>

00000294 <test_14>:
 294:	00e00193          	addi	x3,x0,14
 298:	00000213          	addi	x4,x0,0
 29c:	ddaac0b7          	lui	x1,0xddaac
 2a0:	bcc08093          	addi	x1,x1,-1076 # ddaabbcc <_end+0xddaa9b9c>
 2a4:	00002117          	auipc	x2,0x2
 2a8:	d5c10113          	addi	x2,x2,-676 # 2000 <begin_signature>
 2ac:	00000013          	addi	x0,x0,0
 2b0:	00000013          	addi	x0,x0,0
 2b4:	00112423          	sw	x1,8(x2)
 2b8:	00812703          	lw	x14,8(x2)
 2bc:	ddaac3b7          	lui	x7,0xddaac
 2c0:	bcc38393          	addi	x7,x7,-1076 # ddaabbcc <_end+0xddaa9b9c>
 2c4:	24771063          	bne	x14,x7,504 <fail>
 2c8:	00120213          	addi	x4,x4,1 # 1 <_start+0x1>
 2cc:	00200293          	addi	x5,x0,2
 2d0:	fc5216e3          	bne	x4,x5,29c <test_14+0x8>

000002d4 <test_15>:
 2d4:	00f00193          	addi	x3,x0,15
 2d8:	00000213          	addi	x4,x0,0
 2dc:	cddab0b7          	lui	x1,0xcddab
 2e0:	bbc08093          	addi	x1,x1,-1092 # cddaabbc <_end+0xcdda8b8c>
 2e4:	00000013          	addi	x0,x0,0
 2e8:	00002117          	auipc	x2,0x2
 2ec:	d1810113          	addi	x2,x2,-744 # 2000 <begin_signature>
 2f0:	00112623          	sw	x1,12(x2)
 2f4:	00c12703          	lw	x14,12(x2)
 2f8:	cddab3b7          	lui	x7,0xcddab
 2fc:	bbc38393          	addi	x7,x7,-1092 # cddaabbc <_end+0xcdda8b8c>
 300:	20771263          	bne	x14,x7,504 <fail>
 304:	00120213          	addi	x4,x4,1 # 1 <_start+0x1>
 308:	00200293          	addi	x5,x0,2
 30c:	fc5218e3          	bne	x4,x5,2dc <test_15+0x8>

00000310 <test_16>:
 310:	01000193          	addi	x3,x0,16
 314:	00000213          	addi	x4,x0,0
 318:	ccddb0b7          	lui	x1,0xccddb
 31c:	abb08093          	addi	x1,x1,-1349 # ccddaabb <_end+0xccdd8a8b>
 320:	00000013          	addi	x0,x0,0
 324:	00002117          	auipc	x2,0x2
 328:	cdc10113          	addi	x2,x2,-804 # 2000 <begin_signature>
 32c:	00000013          	addi	x0,x0,0
 330:	00112823          	sw	x1,16(x2)
 334:	01012703          	lw	x14,16(x2)
 338:	ccddb3b7          	lui	x7,0xccddb
 33c:	abb38393          	addi	x7,x7,-1349 # ccddaabb <_end+0xccdd8a8b>
 340:	1c771263          	bne	x14,x7,504 <fail>
 344:	00120213          	addi	x4,x4,1 # 1 <_start+0x1>
 348:	00200293          	addi	x5,x0,2
 34c:	fc5216e3          	bne	x4,x5,318 <test_16+0x8>

00000350 <test_17>:
 350:	01100193          	addi	x3,x0,17
 354:	00000213          	addi	x4,x0,0
 358:	bccde0b7          	lui	x1,0xbccde
 35c:	aab08093          	addi	x1,x1,-1365 # bccddaab <_end+0xbccdba7b>
 360:	00000013          	addi	x0,x0,0
 364:	00000013          	addi	x0,x0,0
 368:	00002117          	auipc	x2,0x2
 36c:	c9810113          	addi	x2,x2,-872 # 2000 <begin_signature>
 370:	00112a23          	sw	x1,20(x2)
 374:	01412703          	lw	x14,20(x2)
 378:	bccde3b7          	lui	x7,0xbccde
 37c:	aab38393          	addi	x7,x7,-1365 # bccddaab <_end+0xbccdba7b>
 380:	18771263          	bne	x14,x7,504 <fail>
 384:	00120213          	addi	x4,x4,1 # 1 <_start+0x1>
 388:	00200293          	addi	x5,x0,2
 38c:	fc5216e3          	bne	x4,x5,358 <test_17+0x8>

00000390 <test_18>:
 390:	01200193          	addi	x3,x0,18
 394:	00000213          	addi	x4,x0,0
 398:	00002117          	auipc	x2,0x2
 39c:	c6810113          	addi	x2,x2,-920 # 2000 <begin_signature>
 3a0:	001120b7          	lui	x1,0x112
 3a4:	23308093          	addi	x1,x1,563 # 112233 <_end+0x110203>
 3a8:	00112023          	sw	x1,0(x2)
 3ac:	00012703          	lw	x14,0(x2)
 3b0:	001123b7          	lui	x7,0x112
 3b4:	23338393          	addi	x7,x7,563 # 112233 <_end+0x110203>
 3b8:	14771663          	bne	x14,x7,504 <fail>
 3bc:	00120213          	addi	x4,x4,1 # 1 <_start+0x1>
 3c0:	00200293          	addi	x5,x0,2
 3c4:	fc521ae3          	bne	x4,x5,398 <test_18+0x8>

000003c8 <test_19>:
 3c8:	01300193          	addi	x3,x0,19
 3cc:	00000213          	addi	x4,x0,0
 3d0:	00002117          	auipc	x2,0x2
 3d4:	c3010113          	addi	x2,x2,-976 # 2000 <begin_signature>
 3d8:	300110b7          	lui	x1,0x30011
 3dc:	22308093          	addi	x1,x1,547 # 30011223 <_end+0x3000f1f3>
 3e0:	00000013          	addi	x0,x0,0
 3e4:	00112223          	sw	x1,4(x2)
 3e8:	00412703          	lw	x14,4(x2)
 3ec:	300113b7          	lui	x7,0x30011
 3f0:	22338393          	addi	x7,x7,547 # 30011223 <_end+0x3000f1f3>
 3f4:	10771863          	bne	x14,x7,504 <fail>
 3f8:	00120213          	addi	x4,x4,1 # 1 <_start+0x1>
 3fc:	00200293          	addi	x5,x0,2
 400:	fc5218e3          	bne	x4,x5,3d0 <test_19+0x8>

00000404 <test_20>:
 404:	01400193          	addi	x3,x0,20
 408:	00000213          	addi	x4,x0,0
 40c:	00002117          	auipc	x2,0x2
 410:	bf410113          	addi	x2,x2,-1036 # 2000 <begin_signature>
 414:	330010b7          	lui	x1,0x33001
 418:	12208093          	addi	x1,x1,290 # 33001122 <_end+0x32fff0f2>
 41c:	00000013          	addi	x0,x0,0
 420:	00000013          	addi	x0,x0,0
 424:	00112423          	sw	x1,8(x2)
 428:	00812703          	lw	x14,8(x2)
 42c:	330013b7          	lui	x7,0x33001
 430:	12238393          	addi	x7,x7,290 # 33001122 <_end+0x32fff0f2>
 434:	0c771863          	bne	x14,x7,504 <fail>
 438:	00120213          	addi	x4,x4,1 # 1 <_start+0x1>
 43c:	00200293          	addi	x5,x0,2
 440:	fc5216e3          	bne	x4,x5,40c <test_20+0x8>

00000444 <test_21>:
 444:	01500193          	addi	x3,x0,21
 448:	00000213          	addi	x4,x0,0
 44c:	00002117          	auipc	x2,0x2
 450:	bb410113          	addi	x2,x2,-1100 # 2000 <begin_signature>
 454:	00000013          	addi	x0,x0,0
 458:	233000b7          	lui	x1,0x23300
 45c:	11208093          	addi	x1,x1,274 # 23300112 <_end+0x232fe0e2>
 460:	00112623          	sw	x1,12(x2)
 464:	00c12703          	lw	x14,12(x2)
 468:	233003b7          	lui	x7,0x23300
 46c:	11238393          	addi	x7,x7,274 # 23300112 <_end+0x232fe0e2>
 470:	08771a63          	bne	x14,x7,504 <fail>
 474:	00120213          	addi	x4,x4,1 # 1 <_start+0x1>
 478:	00200293          	addi	x5,x0,2
 47c:	fc5218e3          	bne	x4,x5,44c <test_21+0x8>

00000480 <test_22>:
 480:	01600193          	addi	x3,x0,22
 484:	00000213          	addi	x4,x0,0
 488:	00002117          	auipc	x2,0x2
 48c:	b7810113          	addi	x2,x2,-1160 # 2000 <begin_signature>
 490:	00000013          	addi	x0,x0,0
 494:	223300b7          	lui	x1,0x22330
 498:	01108093          	addi	x1,x1,17 # 22330011 <_end+0x2232dfe1>
 49c:	00000013          	addi	x0,x0,0
 4a0:	00112823          	sw	x1,16(x2)
 4a4:	01012703          	lw	x14,16(x2)
 4a8:	223303b7          	lui	x7,0x22330
 4ac:	01138393          	addi	x7,x7,17 # 22330011 <_end+0x2232dfe1>
 4b0:	04771a63          	bne	x14,x7,504 <fail>
 4b4:	00120213          	addi	x4,x4,1 # 1 <_start+0x1>
 4b8:	00200293          	addi	x5,x0,2
 4bc:	fc5216e3          	bne	x4,x5,488 <test_22+0x8>

000004c0 <test_23>:
 4c0:	01700193          	addi	x3,x0,23
 4c4:	00000213          	addi	x4,x0,0
 4c8:	00002117          	auipc	x2,0x2
 4cc:	b3810113          	addi	x2,x2,-1224 # 2000 <begin_signature>
 4d0:	00000013          	addi	x0,x0,0
 4d4:	00000013          	addi	x0,x0,0
 4d8:	122330b7          	lui	x1,0x12233
 4dc:	00108093          	addi	x1,x1,1 # 12233001 <_end+0x12230fd1>
 4e0:	00112a23          	sw	x1,20(x2)
 4e4:	01412703          	lw	x14,20(x2)
 4e8:	122333b7          	lui	x7,0x12233
 4ec:	00138393          	addi	x7,x7,1 # 12233001 <_end+0x12230fd1>
 4f0:	00771a63          	bne	x14,x7,504 <fail>
 4f4:	00120213          	addi	x4,x4,1 # 1 <_start+0x1>
 4f8:	00200293          	addi	x5,x0,2
 4fc:	fc5216e3          	bne	x4,x5,4c8 <test_23+0x8>
 500:	02301063          	bne	x0,x3,520 <pass>

00000504 <fail>:
 504:	0ff0000f          	fence	iorw,iorw
 508:	00018063          	beq	x3,x0,508 <fail+0x4>
 50c:	00119193          	slli	x3,x3,0x1
 510:	0011e193          	ori	x3,x3,1
 514:	05d00893          	addi	x17,x0,93
 518:	00018513          	addi	x10,x3,0
 51c:	00000073          	ecall

00000520 <pass>:
 520:	0ff0000f          	fence	iorw,iorw
 524:	00100193          	addi	x3,x0,1
 528:	05d00893          	addi	x17,x0,93
 52c:	00000513          	addi	x10,x0,0
 530:	00000073          	ecall
 534:	c0001073          	unimp
	...

Disassembly of section .tohost:

00001000 <tohost>:
	...

00001040 <fromhost>:
	...
