
determinant.elf:     file format elf32-littleriscv


Disassembly of section .text:

00000000 <_start>:
       0:	02000197          	auipc	x3,0x2000
       4:	20018193          	addi	x3,x3,512 # 2000200 <__global_pointer>
       8:	03000117          	auipc	x2,0x3000
       c:	ff810113          	addi	x2,x2,-8 # 3000000 <_estack>
      10:	02000517          	auipc	x10,0x2000
      14:	ff050513          	addi	x10,x10,-16 # 2000000 <_GLOBAL_OFFSET_TABLE_>
      18:	02000597          	auipc	x11,0x2000
      1c:	00858593          	addi	x11,x11,8 # 2000020 <__bss_end__>
      20:	00005297          	auipc	x5,0x5
      24:	2fc28293          	addi	x5,x5,764 # 531c <_sidata>
      28:	00b50c63          	beq	x10,x11,40 <_bss>

0000002c <_copy_data>:
      2c:	0002a303          	lw	x6,0(x5)
      30:	00652023          	sw	x6,0(x10)
      34:	00428293          	addi	x5,x5,4
      38:	00450513          	addi	x10,x10,4
      3c:	feb518e3          	bne	x10,x11,2c <_copy_data>

00000040 <_bss>:
      40:	02000517          	auipc	x10,0x2000
      44:	fe050513          	addi	x10,x10,-32 # 2000020 <__bss_end__>
      48:	02000597          	auipc	x11,0x2000
      4c:	fd858593          	addi	x11,x11,-40 # 2000020 <__bss_end__>
      50:	00005297          	auipc	x5,0x5
      54:	2ec28293          	addi	x5,x5,748 # 533c <_sibss>
      58:	00b50c63          	beq	x10,x11,70 <_entry>

0000005c <_copy_bss>:
      5c:	0002a303          	lw	x6,0(x5)
      60:	00052303          	lw	x6,0(x10)
      64:	00428293          	addi	x5,x5,4
      68:	00450513          	addi	x10,x10,4
      6c:	feb518e3          	bne	x10,x11,5c <_copy_bss>

00000070 <_entry>:
      70:	288000ef          	jal	x1,2f8 <main>

00000074 <DET>:
      74:	fd010113          	addi	x2,x2,-48
      78:	02112623          	sw	x1,44(x2)
      7c:	02812423          	sw	x8,40(x2)
      80:	03010413          	addi	x8,x2,48
      84:	fca42e23          	sw	x10,-36(x8)
      88:	fcb42c23          	sw	x11,-40(x8)
      8c:	fe042423          	sw	x0,-24(x8)
      90:	fd842703          	lw	x14,-40(x8)
      94:	00100793          	addi	x15,x0,1
      98:	00f71863          	bne	x14,x15,a8 <_Min_Heap_Size+0x28>
      9c:	fdc42783          	lw	x15,-36(x8)
      a0:	0007a783          	lw	x15,0(x15)
      a4:	0d40006f          	jal	x0,178 <_Min_Heap_Size+0xf8>
      a8:	fd842703          	lw	x14,-40(x8)
      ac:	00100793          	addi	x15,x0,1
      b0:	0ce7d263          	bge	x15,x14,174 <_Min_Heap_Size+0xf4>
      b4:	fe042623          	sw	x0,-20(x8)
      b8:	0b00006f          	jal	x0,168 <_Min_Heap_Size+0xe8>
      bc:	fd842603          	lw	x12,-40(x8)
      c0:	fec42583          	lw	x11,-20(x8)
      c4:	fdc42503          	lw	x10,-36(x8)
      c8:	0c4000ef          	jal	x1,18c <Minor>
      cc:	fea42223          	sw	x10,-28(x8)
      d0:	fec42783          	lw	x15,-20(x8)
      d4:	00278793          	addi	x15,x15,2
      d8:	00078513          	addi	x10,x15,0
      dc:	32c000ef          	jal	x1,408 <__floatsidf>
      e0:	00050613          	addi	x12,x10,0
      e4:	00058693          	addi	x13,x11,0
      e8:	000047b7          	lui	x15,0x4
      ec:	8c87a703          	lw	x14,-1848(x15) # 38c8 <_etext+0x28>
      f0:	8cc7a783          	lw	x15,-1844(x15)
      f4:	00070513          	addi	x10,x14,0
      f8:	00078593          	addi	x11,x15,0
      fc:	4c0000ef          	jal	x1,5bc <__ieee754_pow>
     100:	00050713          	addi	x14,x10,0
     104:	00058793          	addi	x15,x11,0
     108:	00070513          	addi	x10,x14,0
     10c:	00078593          	addi	x11,x15,0
     110:	278000ef          	jal	x1,388 <__fixdfsi>
     114:	00050693          	addi	x13,x10,0
     118:	fdc42703          	lw	x14,-36(x8)
     11c:	fec42783          	lw	x15,-20(x8)
     120:	00279793          	slli	x15,x15,0x2
     124:	00f707b3          	add	x15,x14,x15
     128:	0007a783          	lw	x15,0(x15)
     12c:	00078593          	addi	x11,x15,0
     130:	00068513          	addi	x10,x13,0
     134:	37c000ef          	jal	x1,4b0 <__mulsi3>
     138:	00050793          	addi	x15,x10,0
     13c:	fe442583          	lw	x11,-28(x8)
     140:	00078513          	addi	x10,x15,0
     144:	36c000ef          	jal	x1,4b0 <__mulsi3>
     148:	00050793          	addi	x15,x10,0
     14c:	00078713          	addi	x14,x15,0
     150:	fe842783          	lw	x15,-24(x8)
     154:	00e787b3          	add	x15,x15,x14
     158:	fef42423          	sw	x15,-24(x8)
     15c:	fec42783          	lw	x15,-20(x8)
     160:	00178793          	addi	x15,x15,1
     164:	fef42623          	sw	x15,-20(x8)
     168:	fec42703          	lw	x14,-20(x8)
     16c:	fd842783          	lw	x15,-40(x8)
     170:	f4f746e3          	blt	x14,x15,bc <_Min_Heap_Size+0x3c>
     174:	fe842783          	lw	x15,-24(x8)
     178:	00078513          	addi	x10,x15,0
     17c:	02c12083          	lw	x1,44(x2)
     180:	02812403          	lw	x8,40(x2)
     184:	03010113          	addi	x2,x2,48
     188:	00008067          	jalr	x0,0(x1)

0000018c <Minor>:
     18c:	fb010113          	addi	x2,x2,-80
     190:	04112623          	sw	x1,76(x2)
     194:	04812423          	sw	x8,72(x2)
     198:	05010413          	addi	x8,x2,80
     19c:	faa42e23          	sw	x10,-68(x8)
     1a0:	fab42c23          	sw	x11,-72(x8)
     1a4:	fac42a23          	sw	x12,-76(x8)
     1a8:	fe042623          	sw	x0,-20(x8)
     1ac:	10c0006f          	jal	x0,2b8 <Minor+0x12c>
     1b0:	fe042423          	sw	x0,-24(x8)
     1b4:	0e80006f          	jal	x0,29c <Minor+0x110>
     1b8:	fe842703          	lw	x14,-24(x8)
     1bc:	fb842783          	lw	x15,-72(x8)
     1c0:	06f75263          	bge	x14,x15,224 <Minor+0x98>
     1c4:	fec42783          	lw	x15,-20(x8)
     1c8:	00178713          	addi	x14,x15,1
     1cc:	00070793          	addi	x15,x14,0
     1d0:	00179793          	slli	x15,x15,0x1
     1d4:	00e787b3          	add	x15,x15,x14
     1d8:	00279793          	slli	x15,x15,0x2
     1dc:	00078713          	addi	x14,x15,0
     1e0:	fbc42783          	lw	x15,-68(x8)
     1e4:	00e78733          	add	x14,x15,x14
     1e8:	fe842783          	lw	x15,-24(x8)
     1ec:	00279793          	slli	x15,x15,0x2
     1f0:	00f707b3          	add	x15,x14,x15
     1f4:	0007a683          	lw	x13,0(x15)
     1f8:	fec42703          	lw	x14,-20(x8)
     1fc:	00070793          	addi	x15,x14,0
     200:	00179793          	slli	x15,x15,0x1
     204:	00e787b3          	add	x15,x15,x14
     208:	fe842703          	lw	x14,-24(x8)
     20c:	00e787b3          	add	x15,x15,x14
     210:	00279793          	slli	x15,x15,0x2
     214:	ff078793          	addi	x15,x15,-16
     218:	008787b3          	add	x15,x15,x8
     21c:	fcd7aa23          	sw	x13,-44(x15)
     220:	0700006f          	jal	x0,290 <Minor+0x104>
     224:	fe842703          	lw	x14,-24(x8)
     228:	fb842783          	lw	x15,-72(x8)
     22c:	06f74263          	blt	x14,x15,290 <Minor+0x104>
     230:	fec42783          	lw	x15,-20(x8)
     234:	00178713          	addi	x14,x15,1
     238:	00070793          	addi	x15,x14,0
     23c:	00179793          	slli	x15,x15,0x1
     240:	00e787b3          	add	x15,x15,x14
     244:	00279793          	slli	x15,x15,0x2
     248:	00078713          	addi	x14,x15,0
     24c:	fbc42783          	lw	x15,-68(x8)
     250:	00e78733          	add	x14,x15,x14
     254:	fe842783          	lw	x15,-24(x8)
     258:	00178793          	addi	x15,x15,1
     25c:	00279793          	slli	x15,x15,0x2
     260:	00f707b3          	add	x15,x14,x15
     264:	0007a683          	lw	x13,0(x15)
     268:	fec42703          	lw	x14,-20(x8)
     26c:	00070793          	addi	x15,x14,0
     270:	00179793          	slli	x15,x15,0x1
     274:	00e787b3          	add	x15,x15,x14
     278:	fe842703          	lw	x14,-24(x8)
     27c:	00e787b3          	add	x15,x15,x14
     280:	00279793          	slli	x15,x15,0x2
     284:	ff078793          	addi	x15,x15,-16
     288:	008787b3          	add	x15,x15,x8
     28c:	fcd7aa23          	sw	x13,-44(x15)
     290:	fe842783          	lw	x15,-24(x8)
     294:	00178793          	addi	x15,x15,1
     298:	fef42423          	sw	x15,-24(x8)
     29c:	fb442783          	lw	x15,-76(x8)
     2a0:	fff78793          	addi	x15,x15,-1
     2a4:	fe842703          	lw	x14,-24(x8)
     2a8:	f0f748e3          	blt	x14,x15,1b8 <Minor+0x2c>
     2ac:	fec42783          	lw	x15,-20(x8)
     2b0:	00178793          	addi	x15,x15,1
     2b4:	fef42623          	sw	x15,-20(x8)
     2b8:	fb442783          	lw	x15,-76(x8)
     2bc:	fff78793          	addi	x15,x15,-1
     2c0:	fec42703          	lw	x14,-20(x8)
     2c4:	eef746e3          	blt	x14,x15,1b0 <Minor+0x24>
     2c8:	fb442783          	lw	x15,-76(x8)
     2cc:	fff78713          	addi	x14,x15,-1
     2d0:	fc440793          	addi	x15,x8,-60
     2d4:	00070593          	addi	x11,x14,0
     2d8:	00078513          	addi	x10,x15,0
     2dc:	d99ff0ef          	jal	x1,74 <DET>
     2e0:	00050793          	addi	x15,x10,0
     2e4:	00078513          	addi	x10,x15,0
     2e8:	04c12083          	lw	x1,76(x2)
     2ec:	04812403          	lw	x8,72(x2)
     2f0:	05010113          	addi	x2,x2,80
     2f4:	00008067          	jalr	x0,0(x1)

000002f8 <main>:
     2f8:	fc010113          	addi	x2,x2,-64
     2fc:	02112e23          	sw	x1,60(x2)
     300:	02812c23          	sw	x8,56(x2)
     304:	04010413          	addi	x8,x2,64
     308:	000047b7          	lui	x15,0x4
     30c:	8a078793          	addi	x15,x15,-1888 # 38a0 <_etext>
     310:	0007a303          	lw	x6,0(x15)
     314:	0047a883          	lw	x17,4(x15)
     318:	0087a803          	lw	x16,8(x15)
     31c:	00c7a503          	lw	x10,12(x15)
     320:	0107a583          	lw	x11,16(x15)
     324:	0147a603          	lw	x12,20(x15)
     328:	0187a683          	lw	x13,24(x15)
     32c:	01c7a703          	lw	x14,28(x15)
     330:	0207a783          	lw	x15,32(x15)
     334:	fc642423          	sw	x6,-56(x8)
     338:	fd142623          	sw	x17,-52(x8)
     33c:	fd042823          	sw	x16,-48(x8)
     340:	fca42a23          	sw	x10,-44(x8)
     344:	fcb42c23          	sw	x11,-40(x8)
     348:	fcc42e23          	sw	x12,-36(x8)
     34c:	fed42023          	sw	x13,-32(x8)
     350:	fee42223          	sw	x14,-28(x8)
     354:	fef42423          	sw	x15,-24(x8)
     358:	fc840793          	addi	x15,x8,-56
     35c:	00300593          	addi	x11,x0,3
     360:	00078513          	addi	x10,x15,0
     364:	d11ff0ef          	jal	x1,74 <DET>
     368:	fea42623          	sw	x10,-20(x8)
     36c:	00000073          	ecall
     370:	00000793          	addi	x15,x0,0
     374:	00078513          	addi	x10,x15,0
     378:	03c12083          	lw	x1,60(x2)
     37c:	03812403          	lw	x8,56(x2)
     380:	04010113          	addi	x2,x2,64
     384:	00008067          	jalr	x0,0(x1)

00000388 <__fixdfsi>:
     388:	0145d713          	srli	x14,x11,0x14
     38c:	001006b7          	lui	x13,0x100
     390:	fff68793          	addi	x15,x13,-1 # fffff <_sibss+0xfacc3>
     394:	7ff77713          	andi	x14,x14,2047
     398:	3fe00613          	addi	x12,x0,1022
     39c:	00b7f7b3          	and	x15,x15,x11
     3a0:	01f5d593          	srli	x11,x11,0x1f
     3a4:	04e65e63          	bge	x12,x14,400 <_Min_Stack_Size>
     3a8:	41d00613          	addi	x12,x0,1053
     3ac:	00e65a63          	bge	x12,x14,3c0 <__fixdfsi+0x38>
     3b0:	80000537          	lui	x10,0x80000
     3b4:	fff54513          	xori	x10,x10,-1
     3b8:	00a58533          	add	x10,x11,x10
     3bc:	00008067          	jalr	x0,0(x1)
     3c0:	00d7e7b3          	or	x15,x15,x13
     3c4:	43300693          	addi	x13,x0,1075
     3c8:	40e686b3          	sub	x13,x13,x14
     3cc:	01f00613          	addi	x12,x0,31
     3d0:	02d64063          	blt	x12,x13,3f0 <__fixdfsi+0x68>
     3d4:	bed70713          	addi	x14,x14,-1043
     3d8:	00e797b3          	sll	x15,x15,x14
     3dc:	00d55533          	srl	x10,x10,x13
     3e0:	00a7e533          	or	x10,x15,x10
     3e4:	02058063          	beq	x11,x0,404 <_Min_Stack_Size+0x4>
     3e8:	40a00533          	sub	x10,x0,x10
     3ec:	00008067          	jalr	x0,0(x1)
     3f0:	41300693          	addi	x13,x0,1043
     3f4:	40e68733          	sub	x14,x13,x14
     3f8:	00e7d533          	srl	x10,x15,x14
     3fc:	fe9ff06f          	jal	x0,3e4 <__fixdfsi+0x5c>
     400:	00000513          	addi	x10,x0,0
     404:	00008067          	jalr	x0,0(x1)

00000408 <__floatsidf>:
     408:	ff010113          	addi	x2,x2,-16
     40c:	00112623          	sw	x1,12(x2)
     410:	00812423          	sw	x8,8(x2)
     414:	00912223          	sw	x9,4(x2)
     418:	08050663          	beq	x10,x0,4a4 <__floatsidf+0x9c>
     41c:	41f55793          	srai	x15,x10,0x1f
     420:	00a7c433          	xor	x8,x15,x10
     424:	40f40433          	sub	x8,x8,x15
     428:	01f55493          	srli	x9,x10,0x1f
     42c:	00040513          	addi	x10,x8,0
     430:	0a4000ef          	jal	x1,4d4 <__clzsi2>
     434:	41e00713          	addi	x14,x0,1054
     438:	00a00793          	addi	x15,x0,10
     43c:	40a70733          	sub	x14,x14,x10
     440:	04a7c863          	blt	x15,x10,490 <__floatsidf+0x88>
     444:	00b00793          	addi	x15,x0,11
     448:	40a787b3          	sub	x15,x15,x10
     44c:	01550513          	addi	x10,x10,21 # 80000015 <_estack+0x7d000015>
     450:	00f457b3          	srl	x15,x8,x15
     454:	00a41433          	sll	x8,x8,x10
     458:	00048513          	addi	x10,x9,0
     45c:	00c79793          	slli	x15,x15,0xc
     460:	00c7d793          	srli	x15,x15,0xc
     464:	01471713          	slli	x14,x14,0x14
     468:	01f51513          	slli	x10,x10,0x1f
     46c:	00f76733          	or	x14,x14,x15
     470:	00c12083          	lw	x1,12(x2)
     474:	00a767b3          	or	x15,x14,x10
     478:	00040513          	addi	x10,x8,0
     47c:	00812403          	lw	x8,8(x2)
     480:	00412483          	lw	x9,4(x2)
     484:	00078593          	addi	x11,x15,0
     488:	01010113          	addi	x2,x2,16
     48c:	00008067          	jalr	x0,0(x1)
     490:	ff550513          	addi	x10,x10,-11
     494:	00a417b3          	sll	x15,x8,x10
     498:	00048513          	addi	x10,x9,0
     49c:	00000413          	addi	x8,x0,0
     4a0:	fbdff06f          	jal	x0,45c <__floatsidf+0x54>
     4a4:	00000713          	addi	x14,x0,0
     4a8:	00000793          	addi	x15,x0,0
     4ac:	ff1ff06f          	jal	x0,49c <__floatsidf+0x94>

000004b0 <__mulsi3>:
     4b0:	00050613          	addi	x12,x10,0
     4b4:	00000513          	addi	x10,x0,0
     4b8:	0015f693          	andi	x13,x11,1
     4bc:	00068463          	beq	x13,x0,4c4 <__mulsi3+0x14>
     4c0:	00c50533          	add	x10,x10,x12
     4c4:	0015d593          	srli	x11,x11,0x1
     4c8:	00161613          	slli	x12,x12,0x1
     4cc:	fe0596e3          	bne	x11,x0,4b8 <__mulsi3+0x8>
     4d0:	00008067          	jalr	x0,0(x1)

000004d4 <__clzsi2>:
     4d4:	000107b7          	lui	x15,0x10
     4d8:	02f57a63          	bgeu	x10,x15,50c <__clzsi2+0x38>
     4dc:	10053793          	sltiu	x15,x10,256
     4e0:	0017c793          	xori	x15,x15,1
     4e4:	00379793          	slli	x15,x15,0x3
     4e8:	02000713          	addi	x14,x0,32
     4ec:	40f70733          	sub	x14,x14,x15
     4f0:	00f55533          	srl	x10,x10,x15
     4f4:	02000797          	auipc	x15,0x2000
     4f8:	b1c7a783          	lw	x15,-1252(x15) # 2000010 <_GLOBAL_OFFSET_TABLE_+0x10>
     4fc:	00a787b3          	add	x15,x15,x10
     500:	0007c503          	lbu	x10,0(x15)
     504:	40a70533          	sub	x10,x14,x10
     508:	00008067          	jalr	x0,0(x1)
     50c:	01000737          	lui	x14,0x1000
     510:	01000793          	addi	x15,x0,16
     514:	fce56ae3          	bltu	x10,x14,4e8 <__clzsi2+0x14>
     518:	01800793          	addi	x15,x0,24
     51c:	fcdff06f          	jal	x0,4e8 <__clzsi2+0x14>

00000520 <checkint>:
     520:	0145d793          	srli	x15,x11,0x14
     524:	7ff7f793          	andi	x15,x15,2047
     528:	3fe00713          	addi	x14,x0,1022
     52c:	08f75463          	bge	x14,x15,5b4 <checkint+0x94>
     530:	fe010113          	addi	x2,x2,-32
     534:	00912a23          	sw	x9,20(x2)
     538:	00112e23          	sw	x1,28(x2)
     53c:	00812c23          	sw	x8,24(x2)
     540:	43300613          	addi	x12,x0,1075
     544:	00050493          	addi	x9,x10,0
     548:	00200513          	addi	x10,x0,2
     54c:	04f64a63          	blt	x12,x15,5a0 <checkint+0x80>
     550:	40f60633          	sub	x12,x12,x15
     554:	00058413          	addi	x8,x11,0
     558:	fff00513          	addi	x10,x0,-1
     55c:	fff00593          	addi	x11,x0,-1
     560:	00c12623          	sw	x12,12(x2)
     564:	198010ef          	jal	x1,16fc <__ashldi3>
     568:	fff54793          	xori	x15,x10,-1
     56c:	fff5c593          	xori	x11,x11,-1
     570:	0097f7b3          	and	x15,x15,x9
     574:	0085f5b3          	and	x11,x11,x8
     578:	00b7e7b3          	or	x15,x15,x11
     57c:	00000513          	addi	x10,x0,0
     580:	02079063          	bne	x15,x0,5a0 <checkint+0x80>
     584:	00c12603          	lw	x12,12(x2)
     588:	00048513          	addi	x10,x9,0
     58c:	00040593          	addi	x11,x8,0
     590:	134010ef          	jal	x1,16c4 <__lshrdi3>
     594:	00157793          	andi	x15,x10,1
     598:	00200513          	addi	x10,x0,2
     59c:	40f50533          	sub	x10,x10,x15
     5a0:	01c12083          	lw	x1,28(x2)
     5a4:	01812403          	lw	x8,24(x2)
     5a8:	01412483          	lw	x9,20(x2)
     5ac:	02010113          	addi	x2,x2,32
     5b0:	00008067          	jalr	x0,0(x1)
     5b4:	00000513          	addi	x10,x0,0
     5b8:	00008067          	jalr	x0,0(x1)

000005bc <__ieee754_pow>:
     5bc:	f7010113          	addi	x2,x2,-144
     5c0:	07612823          	sw	x22,112(x2)
     5c4:	0145db13          	srli	x22,x11,0x14
     5c8:	08812423          	sw	x8,136(x2)
     5cc:	08912223          	sw	x9,132(x2)
     5d0:	09212023          	sw	x18,128(x2)
     5d4:	07412c23          	sw	x20,120(x2)
     5d8:	07512a23          	sw	x21,116(x2)
     5dc:	07812423          	sw	x24,104(x2)
     5e0:	07912223          	sw	x25,100(x2)
     5e4:	07a12023          	sw	x26,96(x2)
     5e8:	00060c93          	addi	x25,x12,0
     5ec:	00068c13          	addi	x24,x13,0
     5f0:	00068413          	addi	x8,x13,0
     5f4:	0146da13          	srli	x20,x13,0x14
     5f8:	08112623          	sw	x1,140(x2)
     5fc:	07312e23          	sw	x19,124(x2)
     600:	07712623          	sw	x23,108(x2)
     604:	05b12e23          	sw	x27,92(x2)
     608:	fffb0613          	addi	x12,x22,-1
     60c:	7fd00693          	addi	x13,x0,2045
     610:	00050913          	addi	x18,x10,0
     614:	00058493          	addi	x9,x11,0
     618:	00050d13          	addi	x26,x10,0
     61c:	00058a93          	addi	x21,x11,0
     620:	08c6f463          	bgeu	x13,x12,6a8 <__ieee754_pow+0xec>
     624:	01fcd693          	srli	x13,x25,0x1f
     628:	001c9813          	slli	x16,x25,0x1
     62c:	001c1613          	slli	x12,x24,0x1
     630:	00c6e633          	or	x12,x13,x12
     634:	00183593          	sltiu	x11,x16,1
     638:	40b605b3          	sub	x11,x12,x11
     63c:	ffe006b7          	lui	x13,0xffe00
     640:	fff80893          	addi	x17,x16,-1
     644:	01f55513          	srli	x10,x10,0x1f
     648:	00191993          	slli	x19,x18,0x1
     64c:	00d5fa63          	bgeu	x11,x13,660 <__ieee754_pow+0xa4>
     650:	fff68693          	addi	x13,x13,-1 # ffdfffff <_estack+0xfcdfffff>
     654:	1ad59063          	bne	x11,x13,7f4 <__ieee754_pow+0x238>
     658:	ffe00693          	addi	x13,x0,-2
     65c:	1916fc63          	bgeu	x13,x17,7f4 <__ieee754_pow+0x238>
     660:	00c866b3          	or	x13,x16,x12
     664:	16069a63          	bne	x13,x0,7d8 <__ieee754_pow+0x21c>
     668:	000806b7          	lui	x13,0x80
     66c:	0096c6b3          	xor	x13,x13,x9
     670:	01f95613          	srli	x12,x18,0x1f
     674:	00169693          	slli	x13,x13,0x1
     678:	00d666b3          	or	x13,x12,x13
     67c:	fff00637          	lui	x12,0xfff00
     680:	00191593          	slli	x11,x18,0x1
     684:	00d66663          	bltu	x12,x13,690 <__ieee754_pow+0xd4>
     688:	08c69e63          	bne	x13,x12,724 <__ieee754_pow+0x168>
     68c:	08058c63          	beq	x11,x0,724 <__ieee754_pow+0x168>
     690:	000c8613          	addi	x12,x25,0
     694:	000c0693          	addi	x13,x24,0
     698:	00090513          	addi	x10,x18,0
     69c:	00048593          	addi	x11,x9,0
     6a0:	094010ef          	jal	x1,1734 <__adddf3>
     6a4:	0e80006f          	jal	x0,78c <__ieee754_pow+0x1d0>
     6a8:	7ffa7693          	andi	x13,x20,2047
     6ac:	c4268693          	addi	x13,x13,-958 # 7fc42 <_sibss+0x7a906>
     6b0:	07f00613          	addi	x12,x0,127
     6b4:	00000413          	addi	x8,x0,0
     6b8:	3ad67c63          	bgeu	x12,x13,a70 <__ieee754_pow+0x4b4>
     6bc:	001c9813          	slli	x16,x25,0x1
     6c0:	01fcd513          	srli	x10,x25,0x1f
     6c4:	001c1613          	slli	x12,x24,0x1
     6c8:	00c56633          	or	x12,x10,x12
     6cc:	00183593          	sltiu	x11,x16,1
     6d0:	40b605b3          	sub	x11,x12,x11
     6d4:	ffe006b7          	lui	x13,0xffe00
     6d8:	fff80893          	addi	x17,x16,-1
     6dc:	00d5fa63          	bgeu	x11,x13,6f0 <__ieee754_pow+0x134>
     6e0:	fff68693          	addi	x13,x13,-1 # ffdfffff <_estack+0xfcdfffff>
     6e4:	2cd59863          	bne	x11,x13,9b4 <__ieee754_pow+0x3f8>
     6e8:	ffe00693          	addi	x13,x0,-2
     6ec:	2d16f463          	bgeu	x13,x17,9b4 <__ieee754_pow+0x3f8>
     6f0:	00c866b3          	or	x13,x16,x12
     6f4:	f6068ae3          	beq	x13,x0,668 <__ieee754_pow+0xac>
     6f8:	040d1063          	bne	x26,x0,738 <__ieee754_pow+0x17c>
     6fc:	3ff006b7          	lui	x13,0x3ff00
     700:	02da9c63          	bne	x21,x13,738 <__ieee754_pow+0x17c>
     704:	000806b7          	lui	x13,0x80
     708:	0186c6b3          	xor	x13,x13,x24
     70c:	00169693          	slli	x13,x13,0x1
     710:	00d566b3          	or	x13,x10,x13
     714:	fff00637          	lui	x12,0xfff00
     718:	f6d66ce3          	bltu	x12,x13,690 <__ieee754_pow+0xd4>
     71c:	00c69463          	bne	x13,x12,724 <__ieee754_pow+0x168>
     720:	f60818e3          	bne	x16,x0,690 <__ieee754_pow+0xd4>
     724:	00005797          	auipc	x15,0x5
     728:	ba478793          	addi	x15,x15,-1116 # 52c8 <__pow_log_data+0x1088>
     72c:	0007a903          	lw	x18,0(x15)
     730:	0047a483          	lw	x9,4(x15)
     734:	0600006f          	jal	x0,794 <__ieee754_pow+0x1d8>
     738:	01f95593          	srli	x11,x18,0x1f
     73c:	00149693          	slli	x13,x9,0x1
     740:	00d5e6b3          	or	x13,x11,x13
     744:	00191993          	slli	x19,x18,0x1
     748:	f40814e3          	bne	x16,x0,690 <__ieee754_pow+0xd4>
     74c:	ffe005b7          	lui	x11,0xffe00
     750:	f4b610e3          	bne	x12,x11,690 <__ieee754_pow+0xd4>
     754:	00099663          	bne	x19,x0,760 <__ieee754_pow+0x1a4>
     758:	7fe00637          	lui	x12,0x7fe00
     75c:	fcc684e3          	beq	x13,x12,724 <__ieee754_pow+0x168>
     760:	7fe00637          	lui	x12,0x7fe00
     764:	00c6b6b3          	sltu	x13,x13,x12
     768:	fffc4613          	xori	x12,x24,-1
     76c:	0016c693          	xori	x13,x13,1
     770:	01f65613          	srli	x12,x12,0x1f
     774:	48c694e3          	bne	x13,x12,13fc <__ieee754_pow+0xe40>
     778:	000c8613          	addi	x12,x25,0
     77c:	000c0693          	addi	x13,x24,0
     780:	000c8513          	addi	x10,x25,0
     784:	000c0593          	addi	x11,x24,0
     788:	104020ef          	jal	x1,288c <__muldf3>
     78c:	00050913          	addi	x18,x10,0
     790:	00058493          	addi	x9,x11,0 # ffe00000 <_estack+0xfce00000>
     794:	08c12083          	lw	x1,140(x2)
     798:	08812403          	lw	x8,136(x2)
     79c:	07c12983          	lw	x19,124(x2)
     7a0:	07812a03          	lw	x20,120(x2)
     7a4:	07412a83          	lw	x21,116(x2)
     7a8:	07012b03          	lw	x22,112(x2)
     7ac:	06c12b83          	lw	x23,108(x2)
     7b0:	06812c03          	lw	x24,104(x2)
     7b4:	06412c83          	lw	x25,100(x2)
     7b8:	06012d03          	lw	x26,96(x2)
     7bc:	05c12d83          	lw	x27,92(x2)
     7c0:	00090513          	addi	x10,x18,0
     7c4:	00048593          	addi	x11,x9,0
     7c8:	08012903          	lw	x18,128(x2)
     7cc:	08412483          	lw	x9,132(x2)
     7d0:	09010113          	addi	x2,x2,144
     7d4:	00008067          	jalr	x0,0(x1)
     7d8:	00149693          	slli	x13,x9,0x1
     7dc:	00d566b3          	or	x13,x10,x13
     7e0:	ffe005b7          	lui	x11,0xffe00
     7e4:	ead5e6e3          	bltu	x11,x13,690 <__ieee754_pow+0xd4>
     7e8:	f6b690e3          	bne	x13,x11,748 <__ieee754_pow+0x18c>
     7ec:	ea0992e3          	bne	x19,x0,690 <__ieee754_pow+0xd4>
     7f0:	f59ff06f          	jal	x0,748 <__ieee754_pow+0x18c>
     7f4:	00149b93          	slli	x23,x9,0x1
     7f8:	01756bb3          	or	x23,x10,x23
     7fc:	0019b613          	sltiu	x12,x19,1
     800:	40cb8633          	sub	x12,x23,x12
     804:	ffe006b7          	lui	x13,0xffe00
     808:	00048d93          	addi	x27,x9,0
     80c:	fff98593          	addi	x11,x19,-1
     810:	00d67a63          	bgeu	x12,x13,824 <__ieee754_pow+0x268>
     814:	fff68693          	addi	x13,x13,-1 # ffdfffff <_estack+0xfcdfffff>
     818:	0cd61e63          	bne	x12,x13,8f4 <__ieee754_pow+0x338>
     81c:	ffe00693          	addi	x13,x0,-2
     820:	0cb6fa63          	bgeu	x13,x11,8f4 <__ieee754_pow+0x338>
     824:	00048693          	addi	x13,x9,0
     828:	00090613          	addi	x12,x18,0
     82c:	00090513          	addi	x10,x18,0
     830:	00048593          	addi	x11,x9,0
     834:	058020ef          	jal	x1,288c <__muldf3>
     838:	00050a13          	addi	x20,x10,0
     83c:	00058a93          	addi	x21,x11,0 # ffe00000 <_estack+0xfce00000>
     840:	00050913          	addi	x18,x10,0
     844:	00058493          	addi	x9,x11,0
     848:	00000693          	addi	x13,x0,0
     84c:	020dd463          	bge	x27,x0,874 <__ieee754_pow+0x2b8>
     850:	000c8513          	addi	x10,x25,0
     854:	000c0593          	addi	x11,x24,0
     858:	cc9ff0ef          	jal	x1,520 <checkint>
     85c:	00100793          	addi	x15,x0,1
     860:	00000693          	addi	x13,x0,0
     864:	00f51863          	bne	x10,x15,874 <__ieee754_pow+0x2b8>
     868:	800004b7          	lui	x9,0x80000
     86c:	0154c4b3          	xor	x9,x9,x21
     870:	00100693          	addi	x13,x0,1
     874:	0179e7b3          	or	x15,x19,x23
     878:	04079463          	bne	x15,x0,8c0 <__ieee754_pow+0x304>
     87c:	f0045ce3          	bge	x8,x0,794 <__ieee754_pow+0x1d8>
     880:	08812403          	lw	x8,136(x2)
     884:	08c12083          	lw	x1,140(x2)
     888:	08412483          	lw	x9,132(x2)
     88c:	08012903          	lw	x18,128(x2)
     890:	07c12983          	lw	x19,124(x2)
     894:	07812a03          	lw	x20,120(x2)
     898:	07412a83          	lw	x21,116(x2)
     89c:	07012b03          	lw	x22,112(x2)
     8a0:	06c12b83          	lw	x23,108(x2)
     8a4:	06812c03          	lw	x24,104(x2)
     8a8:	06412c83          	lw	x25,100(x2)
     8ac:	06012d03          	lw	x26,96(x2)
     8b0:	05c12d83          	lw	x27,92(x2)
     8b4:	00068513          	addi	x10,x13,0
     8b8:	09010113          	addi	x2,x2,144
     8bc:	3f10006f          	jal	x0,14ac <__math_divzero>
     8c0:	ec045ae3          	bge	x8,x0,794 <__ieee754_pow+0x1d8>
     8c4:	00005797          	auipc	x15,0x5
     8c8:	a0478793          	addi	x15,x15,-1532 # 52c8 <__pow_log_data+0x1088>
     8cc:	0007a503          	lw	x10,0(x15)
     8d0:	0047a583          	lw	x11,4(x15)
     8d4:	00048693          	addi	x13,x9,0 # 80000000 <_estack+0x7d000000>
     8d8:	000a0613          	addi	x12,x20,0
     8dc:	644010ef          	jal	x1,1f20 <__divdf3>
     8e0:	04a12423          	sw	x10,72(x2)
     8e4:	04b12623          	sw	x11,76(x2)
     8e8:	04812903          	lw	x18,72(x2)
     8ec:	04c12483          	lw	x9,76(x2)
     8f0:	ea5ff06f          	jal	x0,794 <__ieee754_pow+0x1d8>
     8f4:	0c0dd063          	bge	x27,x0,9b4 <__ieee754_pow+0x3f8>
     8f8:	000c8513          	addi	x10,x25,0
     8fc:	000c0593          	addi	x11,x24,0
     900:	c21ff0ef          	jal	x1,520 <checkint>
     904:	04051463          	bne	x10,x0,94c <__ieee754_pow+0x390>
     908:	08812403          	lw	x8,136(x2)
     90c:	08c12083          	lw	x1,140(x2)
     910:	07c12983          	lw	x19,124(x2)
     914:	07812a03          	lw	x20,120(x2)
     918:	07412a83          	lw	x21,116(x2)
     91c:	07012b03          	lw	x22,112(x2)
     920:	06c12b83          	lw	x23,108(x2)
     924:	06812c03          	lw	x24,104(x2)
     928:	06412c83          	lw	x25,100(x2)
     92c:	06012d03          	lw	x26,96(x2)
     930:	05c12d83          	lw	x27,92(x2)
     934:	00090513          	addi	x10,x18,0
     938:	00048593          	addi	x11,x9,0
     93c:	08012903          	lw	x18,128(x2)
     940:	08412483          	lw	x9,132(x2)
     944:	09010113          	addi	x2,x2,144
     948:	3b50006f          	jal	x0,14fc <__math_invalid>
     94c:	fff50413          	addi	x8,x10,-1
     950:	00143413          	sltiu	x8,x8,1
     954:	00149a93          	slli	x21,x9,0x1
     958:	01241413          	slli	x8,x8,0x12
     95c:	001ada93          	srli	x21,x21,0x1
     960:	7ffb7b13          	andi	x22,x22,2047
     964:	7ffa7693          	andi	x13,x20,2047
     968:	c4268593          	addi	x11,x13,-958
     96c:	07f00613          	addi	x12,x0,127
     970:	0cb67663          	bgeu	x12,x11,a3c <__ieee754_pow+0x480>
     974:	000d1663          	bne	x26,x0,980 <__ieee754_pow+0x3c4>
     978:	3ff00637          	lui	x12,0x3ff00
     97c:	daca84e3          	beq	x21,x12,724 <__ieee754_pow+0x168>
     980:	3bd00613          	addi	x12,x0,957
     984:	04d66863          	bltu	x12,x13,9d4 <__ieee754_pow+0x418>
     988:	3ff006b7          	lui	x13,0x3ff00
     98c:	00005597          	auipc	x11,0x5
     990:	93c58593          	addi	x11,x11,-1732 # 52c8 <__pow_log_data+0x1088>
     994:	0156e663          	bltu	x13,x21,9a0 <__ieee754_pow+0x3e4>
     998:	02da9263          	bne	x21,x13,9bc <__ieee754_pow+0x400>
     99c:	020d0063          	beq	x26,x0,9bc <__ieee754_pow+0x400>
     9a0:	0005a603          	lw	x12,0(x11)
     9a4:	0045a683          	lw	x13,4(x11)
     9a8:	000c8513          	addi	x10,x25,0
     9ac:	000c0593          	addi	x11,x24,0
     9b0:	cf1ff06f          	jal	x0,6a0 <__ieee754_pow+0xe4>
     9b4:	00000413          	addi	x8,x0,0
     9b8:	fadff06f          	jal	x0,964 <__ieee754_pow+0x3a8>
     9bc:	0005a503          	lw	x10,0(x11)
     9c0:	0045a583          	lw	x11,4(x11)
     9c4:	000c8613          	addi	x12,x25,0
     9c8:	000c0693          	addi	x13,x24,0
     9cc:	57c020ef          	jal	x1,2f48 <__subdf3>
     9d0:	dbdff06f          	jal	x0,78c <__ieee754_pow+0x1d0>
     9d4:	3ff00737          	lui	x14,0x3ff00
     9d8:	00100793          	addi	x15,x0,1
     9dc:	01576663          	bltu	x14,x21,9e8 <__ieee754_pow+0x42c>
     9e0:	00ea9663          	bne	x21,x14,9ec <__ieee754_pow+0x430>
     9e4:	000d0463          	beq	x26,x0,9ec <__ieee754_pow+0x430>
     9e8:	00000793          	addi	x15,x0,0
     9ec:	00001737          	lui	x14,0x1
     9f0:	80070713          	addi	x14,x14,-2048 # 800 <__ieee754_pow+0x244>
     9f4:	00ea3a33          	sltu	x20,x20,x14
     9f8:	00000513          	addi	x10,x0,0
     9fc:	59478a63          	beq	x15,x20,f90 <__ieee754_pow+0x9d4>
     a00:	08812403          	lw	x8,136(x2)
     a04:	08c12083          	lw	x1,140(x2)
     a08:	08412483          	lw	x9,132(x2)
     a0c:	08012903          	lw	x18,128(x2)
     a10:	07c12983          	lw	x19,124(x2)
     a14:	07812a03          	lw	x20,120(x2)
     a18:	07412a83          	lw	x21,116(x2)
     a1c:	07012b03          	lw	x22,112(x2)
     a20:	06c12b83          	lw	x23,108(x2)
     a24:	06812c03          	lw	x24,104(x2)
     a28:	06412c83          	lw	x25,100(x2)
     a2c:	06012d03          	lw	x26,96(x2)
     a30:	05c12d83          	lw	x27,92(x2)
     a34:	09010113          	addi	x2,x2,144
     a38:	2610006f          	jal	x0,1498 <__math_oflow>
     a3c:	020b1a63          	bne	x22,x0,a70 <__ieee754_pow+0x4b4>
     a40:	00005697          	auipc	x13,0x5
     a44:	89868693          	addi	x13,x13,-1896 # 52d8 <__pow_log_data+0x1098>
     a48:	0006a603          	lw	x12,0(x13)
     a4c:	0046a683          	lw	x13,4(x13)
     a50:	00090513          	addi	x10,x18,0
     a54:	00048593          	addi	x11,x9,0
     a58:	635010ef          	jal	x1,288c <__muldf3>
     a5c:	00159a93          	slli	x21,x11,0x1
     a60:	001ada93          	srli	x21,x21,0x1
     a64:	fcc006b7          	lui	x13,0xfcc00
     a68:	00050d13          	addi	x26,x10,0
     a6c:	00da8ab3          	add	x21,x21,x13
     a70:	c0197537          	lui	x10,0xc0197
     a74:	aab50513          	addi	x10,x10,-1365 # c0196aab <_estack+0xbd196aab>
     a78:	00aa8533          	add	x10,x21,x10
     a7c:	fff006b7          	lui	x13,0xfff00
     a80:	00a6f6b3          	and	x13,x13,x10
     a84:	00d55a13          	srli	x20,x10,0xd
     a88:	41455513          	srai	x10,x10,0x14
     a8c:	40da8ab3          	sub	x21,x21,x13
     a90:	07fa7a13          	andi	x20,x20,127
     a94:	975ff0ef          	jal	x1,408 <__floatsidf>
     a98:	002a0693          	addi	x13,x20,2
     a9c:	01fff497          	auipc	x9,0x1fff
     aa0:	5704a483          	lw	x9,1392(x9) # 200000c <_GLOBAL_OFFSET_TABLE_+0xc>
     aa4:	00569693          	slli	x13,x13,0x5
     aa8:	00d486b3          	add	x13,x9,x13
     aac:	0086a783          	lw	x15,8(x13) # fff00008 <_estack+0xfcf00008>
     ab0:	00c6a803          	lw	x16,12(x13)
     ab4:	00a12423          	sw	x10,8(x2)
     ab8:	00f12023          	sw	x15,0(x2)
     abc:	800007b7          	lui	x15,0x80000
     ac0:	01012223          	sw	x16,4(x2)
     ac4:	00fd06b3          	add	x13,x26,x15
     ac8:	00012503          	lw	x10,0(x2)
     acc:	01a6b6b3          	sltu	x13,x13,x26
     ad0:	00b12623          	sw	x11,12(x2)
     ad4:	00412583          	lw	x11,4(x2)
     ad8:	01568db3          	add	x27,x13,x21
     adc:	00000913          	addi	x18,x0,0
     ae0:	00090613          	addi	x12,x18,0
     ae4:	000d8693          	addi	x13,x27,0
     ae8:	5a5010ef          	jal	x1,288c <__muldf3>
     aec:	00004797          	auipc	x15,0x4
     af0:	7dc78793          	addi	x15,x15,2012 # 52c8 <__pow_log_data+0x1088>
     af4:	0007a603          	lw	x12,0(x15)
     af8:	0047a683          	lw	x13,4(x15)
     afc:	005a1a13          	slli	x20,x20,0x5
     b00:	448020ef          	jal	x1,2f48 <__subdf3>
     b04:	00050b93          	addi	x23,x10,0
     b08:	00058b13          	addi	x22,x11,0
     b0c:	00090613          	addi	x12,x18,0
     b10:	000d8693          	addi	x13,x27,0
     b14:	000d0513          	addi	x10,x26,0
     b18:	000a8593          	addi	x11,x21,0
     b1c:	42c020ef          	jal	x1,2f48 <__subdf3>
     b20:	00012603          	lw	x12,0(x2)
     b24:	00412683          	lw	x13,4(x2)
     b28:	565010ef          	jal	x1,288c <__muldf3>
     b2c:	00050613          	addi	x12,x10,0
     b30:	00058693          	addi	x13,x11,0
     b34:	02a12e23          	sw	x10,60(x2)
     b38:	02b12c23          	sw	x11,56(x2)
     b3c:	000b8513          	addi	x10,x23,0
     b40:	000b0593          	addi	x11,x22,0
     b44:	3f1000ef          	jal	x1,1734 <__adddf3>
     b48:	00050993          	addi	x19,x10,0
     b4c:	00058913          	addi	x18,x11,0
     b50:	0004a603          	lw	x12,0(x9)
     b54:	0044a683          	lw	x13,4(x9)
     b58:	00812503          	lw	x10,8(x2)
     b5c:	00c12583          	lw	x11,12(x2)
     b60:	52d010ef          	jal	x1,288c <__muldf3>
     b64:	01448833          	add	x16,x9,x20
     b68:	05882603          	lw	x12,88(x16)
     b6c:	05c82683          	lw	x13,92(x16)
     b70:	03012a23          	sw	x16,52(x2)
     b74:	3c1000ef          	jal	x1,1734 <__adddf3>
     b78:	00050613          	addi	x12,x10,0
     b7c:	00058693          	addi	x13,x11,0
     b80:	02a12823          	sw	x10,48(x2)
     b84:	02b12623          	sw	x11,44(x2)
     b88:	00098513          	addi	x10,x19,0
     b8c:	00090593          	addi	x11,x18,0
     b90:	3a5000ef          	jal	x1,1734 <__adddf3>
     b94:	0104a783          	lw	x15,16(x9)
     b98:	0144a803          	lw	x16,20(x9)
     b9c:	00050a93          	addi	x21,x10,0
     ba0:	00078613          	addi	x12,x15,0
     ba4:	00080693          	addi	x13,x16,0
     ba8:	00058a13          	addi	x20,x11,0
     bac:	00098513          	addi	x10,x19,0
     bb0:	00090593          	addi	x11,x18,0
     bb4:	00f12023          	sw	x15,0(x2)
     bb8:	01012223          	sw	x16,4(x2)
     bbc:	4d1010ef          	jal	x1,288c <__muldf3>
     bc0:	00050613          	addi	x12,x10,0
     bc4:	00058693          	addi	x13,x11,0
     bc8:	02a12423          	sw	x10,40(x2)
     bcc:	02b12223          	sw	x11,36(x2)
     bd0:	00098513          	addi	x10,x19,0
     bd4:	00090593          	addi	x11,x18,0
     bd8:	4b5010ef          	jal	x1,288c <__muldf3>
     bdc:	00012603          	lw	x12,0(x2)
     be0:	00412683          	lw	x13,4(x2)
     be4:	00050d93          	addi	x27,x10,0
     be8:	00058d13          	addi	x26,x11,0
     bec:	000b8513          	addi	x10,x23,0
     bf0:	000b0593          	addi	x11,x22,0
     bf4:	499010ef          	jal	x1,288c <__muldf3>
     bf8:	00050613          	addi	x12,x10,0
     bfc:	00058693          	addi	x13,x11,0
     c00:	02a12023          	sw	x10,32(x2)
     c04:	00b12e23          	sw	x11,28(x2)
     c08:	000b8513          	addi	x10,x23,0
     c0c:	000b0593          	addi	x11,x22,0
     c10:	47d010ef          	jal	x1,288c <__muldf3>
     c14:	00050613          	addi	x12,x10,0
     c18:	00058693          	addi	x13,x11,0
     c1c:	00a12c23          	sw	x10,24(x2)
     c20:	00b12a23          	sw	x11,20(x2)
     c24:	000a8513          	addi	x10,x21,0
     c28:	000a0593          	addi	x11,x20,0
     c2c:	309000ef          	jal	x1,1734 <__adddf3>
     c30:	0404a603          	lw	x12,64(x9)
     c34:	0444a683          	lw	x13,68(x9)
     c38:	00050b93          	addi	x23,x10,0
     c3c:	00058b13          	addi	x22,x11,0
     c40:	00098513          	addi	x10,x19,0
     c44:	00090593          	addi	x11,x18,0
     c48:	445010ef          	jal	x1,288c <__muldf3>
     c4c:	0384a603          	lw	x12,56(x9)
     c50:	03c4a683          	lw	x13,60(x9)
     c54:	2e1000ef          	jal	x1,1734 <__adddf3>
     c58:	000d8613          	addi	x12,x27,0
     c5c:	000d0693          	addi	x13,x26,0
     c60:	42d010ef          	jal	x1,288c <__muldf3>
     c64:	0304a603          	lw	x12,48(x9)
     c68:	0344a683          	lw	x13,52(x9)
     c6c:	00a12023          	sw	x10,0(x2)
     c70:	00b12823          	sw	x11,16(x2)
     c74:	00098513          	addi	x10,x19,0
     c78:	00090593          	addi	x11,x18,0
     c7c:	411010ef          	jal	x1,288c <__muldf3>
     c80:	0284a603          	lw	x12,40(x9)
     c84:	02c4a683          	lw	x13,44(x9)
     c88:	2ad000ef          	jal	x1,1734 <__adddf3>
     c8c:	00050613          	addi	x12,x10,0
     c90:	00058693          	addi	x13,x11,0
     c94:	00012503          	lw	x10,0(x2)
     c98:	01012583          	lw	x11,16(x2)
     c9c:	299000ef          	jal	x1,1734 <__adddf3>
     ca0:	000d8613          	addi	x12,x27,0
     ca4:	000d0693          	addi	x13,x26,0
     ca8:	3e5010ef          	jal	x1,288c <__muldf3>
     cac:	0204a603          	lw	x12,32(x9)
     cb0:	0244a683          	lw	x13,36(x9)
     cb4:	00a12023          	sw	x10,0(x2)
     cb8:	00b12823          	sw	x11,16(x2)
     cbc:	00098513          	addi	x10,x19,0
     cc0:	00090593          	addi	x11,x18,0
     cc4:	3c9010ef          	jal	x1,288c <__muldf3>
     cc8:	0184a603          	lw	x12,24(x9)
     ccc:	01c4a683          	lw	x13,28(x9)
     cd0:	265000ef          	jal	x1,1734 <__adddf3>
     cd4:	00050613          	addi	x12,x10,0
     cd8:	00058693          	addi	x13,x11,0
     cdc:	00012503          	lw	x10,0(x2)
     ce0:	01012583          	lw	x11,16(x2)
     ce4:	251000ef          	jal	x1,1734 <__adddf3>
     ce8:	000d8613          	addi	x12,x27,0
     cec:	000d0693          	addi	x13,x26,0
     cf0:	00a12023          	sw	x10,0(x2)
     cf4:	00b12823          	sw	x11,16(x2)
     cf8:	00098513          	addi	x10,x19,0
     cfc:	00090593          	addi	x11,x18,0
     d00:	38d010ef          	jal	x1,288c <__muldf3>
     d04:	00050613          	addi	x12,x10,0
     d08:	00058693          	addi	x13,x11,0
     d0c:	00012503          	lw	x10,0(x2)
     d10:	01012583          	lw	x11,16(x2)
     d14:	379010ef          	jal	x1,288c <__muldf3>
     d18:	0084a603          	lw	x12,8(x9)
     d1c:	00050d93          	addi	x27,x10,0
     d20:	00c4a683          	lw	x13,12(x9)
     d24:	00812503          	lw	x10,8(x2)
     d28:	00058d13          	addi	x26,x11,0
     d2c:	00c12583          	lw	x11,12(x2)
     d30:	35d010ef          	jal	x1,288c <__muldf3>
     d34:	03412803          	lw	x16,52(x2)
     d38:	06082603          	lw	x12,96(x16)
     d3c:	06482683          	lw	x13,100(x16)
     d40:	1f5000ef          	jal	x1,1734 <__adddf3>
     d44:	03012f83          	lw	x31,48(x2)
     d48:	02c12f03          	lw	x30,44(x2)
     d4c:	00058493          	addi	x9,x11,0
     d50:	000a8613          	addi	x12,x21,0
     d54:	000f0593          	addi	x11,x30,0
     d58:	000a0693          	addi	x13,x20,0
     d5c:	00a12023          	sw	x10,0(x2)
     d60:	000f8513          	addi	x10,x31,0
     d64:	1e4020ef          	jal	x1,2f48 <__subdf3>
     d68:	00098613          	addi	x12,x19,0
     d6c:	00090693          	addi	x13,x18,0
     d70:	1c5000ef          	jal	x1,1734 <__adddf3>
     d74:	00012803          	lw	x16,0(x2)
     d78:	00050613          	addi	x12,x10,0
     d7c:	00058693          	addi	x13,x11,0
     d80:	00080513          	addi	x10,x16,0
     d84:	00048593          	addi	x11,x9,0
     d88:	1ad000ef          	jal	x1,1734 <__adddf3>
     d8c:	02012e83          	lw	x29,32(x2)
     d90:	01c12e03          	lw	x28,28(x2)
     d94:	02812383          	lw	x7,40(x2)
     d98:	02412283          	lw	x5,36(x2)
     d9c:	000e8613          	addi	x12,x29,0
     da0:	000e0693          	addi	x13,x28,0
     da4:	00050913          	addi	x18,x10,0
     da8:	00058493          	addi	x9,x11,0
     dac:	00038513          	addi	x10,x7,0
     db0:	00028593          	addi	x11,x5,0
     db4:	181000ef          	jal	x1,1734 <__adddf3>
     db8:	03c12703          	lw	x14,60(x2)
     dbc:	03812783          	lw	x15,56(x2)
     dc0:	00070613          	addi	x12,x14,0
     dc4:	00078693          	addi	x13,x15,0
     dc8:	2c5010ef          	jal	x1,288c <__muldf3>
     dcc:	00050613          	addi	x12,x10,0
     dd0:	00058693          	addi	x13,x11,0
     dd4:	00090513          	addi	x10,x18,0
     dd8:	00048593          	addi	x11,x9,0
     ddc:	159000ef          	jal	x1,1734 <__adddf3>
     de0:	00050913          	addi	x18,x10,0
     de4:	00058493          	addi	x9,x11,0
     de8:	000b8613          	addi	x12,x23,0
     dec:	000b0693          	addi	x13,x22,0
     df0:	000a8513          	addi	x10,x21,0
     df4:	000a0593          	addi	x11,x20,0
     df8:	150020ef          	jal	x1,2f48 <__subdf3>
     dfc:	01812303          	lw	x6,24(x2)
     e00:	01412883          	lw	x17,20(x2)
     e04:	00030613          	addi	x12,x6,0
     e08:	00088693          	addi	x13,x17,0
     e0c:	129000ef          	jal	x1,1734 <__adddf3>
     e10:	00050613          	addi	x12,x10,0
     e14:	00058693          	addi	x13,x11,0
     e18:	00090513          	addi	x10,x18,0
     e1c:	00048593          	addi	x11,x9,0
     e20:	115000ef          	jal	x1,1734 <__adddf3>
     e24:	00050613          	addi	x12,x10,0
     e28:	00058693          	addi	x13,x11,0
     e2c:	000d8513          	addi	x10,x27,0
     e30:	000d0593          	addi	x11,x26,0
     e34:	101000ef          	jal	x1,1734 <__adddf3>
     e38:	00050613          	addi	x12,x10,0
     e3c:	00058693          	addi	x13,x11,0
     e40:	00050d13          	addi	x26,x10,0
     e44:	00b12623          	sw	x11,12(x2)
     e48:	000b8513          	addi	x10,x23,0
     e4c:	000b0593          	addi	x11,x22,0
     e50:	0e5000ef          	jal	x1,1734 <__adddf3>
     e54:	f80006b7          	lui	x13,0xf8000
     e58:	0196f8b3          	and	x17,x13,x25
     e5c:	00a6fab3          	and	x21,x13,x10
     e60:	00088613          	addi	x12,x17,0
     e64:	01112423          	sw	x17,8(x2)
     e68:	00050913          	addi	x18,x10,0
     e6c:	000c0693          	addi	x13,x24,0
     e70:	000a8513          	addi	x10,x21,0
     e74:	00058493          	addi	x9,x11,0
     e78:	00058993          	addi	x19,x11,0
     e7c:	01812023          	sw	x24,0(x2)
     e80:	20d010ef          	jal	x1,288c <__muldf3>
     e84:	00090613          	addi	x12,x18,0
     e88:	00048693          	addi	x13,x9,0
     e8c:	00058a13          	addi	x20,x11,0
     e90:	00050d93          	addi	x27,x10,0
     e94:	000b0593          	addi	x11,x22,0
     e98:	000b8513          	addi	x10,x23,0
     e9c:	0ac020ef          	jal	x1,2f48 <__subdf3>
     ea0:	00c12783          	lw	x15,12(x2)
     ea4:	000d0613          	addi	x12,x26,0
     ea8:	00078693          	addi	x13,x15,0
     eac:	089000ef          	jal	x1,1734 <__adddf3>
     eb0:	000a8613          	addi	x12,x21,0
     eb4:	00048693          	addi	x13,x9,0
     eb8:	00050b93          	addi	x23,x10,0
     ebc:	00058b13          	addi	x22,x11,0
     ec0:	00090513          	addi	x10,x18,0
     ec4:	00048593          	addi	x11,x9,0
     ec8:	080020ef          	jal	x1,2f48 <__subdf3>
     ecc:	00050613          	addi	x12,x10,0
     ed0:	00058693          	addi	x13,x11,0
     ed4:	000b8513          	addi	x10,x23,0
     ed8:	000b0593          	addi	x11,x22,0
     edc:	059000ef          	jal	x1,1734 <__adddf3>
     ee0:	000c8613          	addi	x12,x25,0
     ee4:	000c0693          	addi	x13,x24,0
     ee8:	1a5010ef          	jal	x1,288c <__muldf3>
     eec:	00812883          	lw	x17,8(x2)
     ef0:	00050913          	addi	x18,x10,0
     ef4:	00058493          	addi	x9,x11,0
     ef8:	00088613          	addi	x12,x17,0
     efc:	000c0693          	addi	x13,x24,0
     f00:	000c8513          	addi	x10,x25,0
     f04:	000c0593          	addi	x11,x24,0
     f08:	040020ef          	jal	x1,2f48 <__subdf3>
     f0c:	000a8613          	addi	x12,x21,0
     f10:	00098693          	addi	x13,x19,0
     f14:	179010ef          	jal	x1,288c <__muldf3>
     f18:	00058693          	addi	x13,x11,0
     f1c:	00050613          	addi	x12,x10,0
     f20:	00048593          	addi	x11,x9,0
     f24:	00090513          	addi	x10,x18,0
     f28:	014a5a93          	srli	x21,x20,0x14
     f2c:	009000ef          	jal	x1,1734 <__adddf3>
     f30:	7ffafa93          	andi	x21,x21,2047
     f34:	c37a8793          	addi	x15,x21,-969
     f38:	03e00693          	addi	x13,x0,62
     f3c:	00050993          	addi	x19,x10,0
     f40:	00058913          	addi	x18,x11,0
     f44:	08f6f663          	bgeu	x13,x15,fd0 <__ieee754_pow+0xa14>
     f48:	0207dc63          	bge	x15,x0,f80 <__ieee754_pow+0x9c4>
     f4c:	00004797          	auipc	x15,0x4
     f50:	37c78793          	addi	x15,x15,892 # 52c8 <__pow_log_data+0x1088>
     f54:	0007a603          	lw	x12,0(x15)
     f58:	0047a683          	lw	x13,4(x15)
     f5c:	000d8513          	addi	x10,x27,0
     f60:	000a0593          	addi	x11,x20,0
     f64:	7d0000ef          	jal	x1,1734 <__adddf3>
     f68:	00050913          	addi	x18,x10,0
     f6c:	00058493          	addi	x9,x11,0
     f70:	820402e3          	beq	x8,x0,794 <__ieee754_pow+0x1d8>
     f74:	800007b7          	lui	x15,0x80000
     f78:	00b7c4b3          	xor	x9,x15,x11
     f7c:	819ff06f          	jal	x0,794 <__ieee754_pow+0x1d8>
     f80:	40800793          	addi	x15,x0,1032
     f84:	0557f463          	bgeu	x15,x21,fcc <__ieee754_pow+0xa10>
     f88:	00040513          	addi	x10,x8,0
     f8c:	a60a5ae3          	bge	x20,x0,a00 <__ieee754_pow+0x444>
     f90:	08812403          	lw	x8,136(x2)
     f94:	08c12083          	lw	x1,140(x2)
     f98:	08412483          	lw	x9,132(x2)
     f9c:	08012903          	lw	x18,128(x2)
     fa0:	07c12983          	lw	x19,124(x2)
     fa4:	07812a03          	lw	x20,120(x2)
     fa8:	07412a83          	lw	x21,116(x2)
     fac:	07012b03          	lw	x22,112(x2)
     fb0:	06c12b83          	lw	x23,108(x2)
     fb4:	06812c03          	lw	x24,104(x2)
     fb8:	06412c83          	lw	x25,100(x2)
     fbc:	06012d03          	lw	x26,96(x2)
     fc0:	05c12d83          	lw	x27,92(x2)
     fc4:	09010113          	addi	x2,x2,144
     fc8:	4a80006f          	jal	x0,1470 <__math_uflow>
     fcc:	00000a93          	addi	x21,x0,0
     fd0:	01fff497          	auipc	x9,0x1fff
     fd4:	0344a483          	lw	x9,52(x9) # 2000004 <_GLOBAL_OFFSET_TABLE_+0x4>
     fd8:	00c4a803          	lw	x16,12(x9)
     fdc:	0084a783          	lw	x15,8(x9)
     fe0:	0004a603          	lw	x12,0(x9)
     fe4:	0044a683          	lw	x13,4(x9)
     fe8:	000d8513          	addi	x10,x27,0
     fec:	000a0593          	addi	x11,x20,0
     ff0:	01012223          	sw	x16,4(x2)
     ff4:	00f12023          	sw	x15,0(x2)
     ff8:	095010ef          	jal	x1,288c <__muldf3>
     ffc:	00012603          	lw	x12,0(x2)
    1000:	00412683          	lw	x13,4(x2)
    1004:	730000ef          	jal	x1,1734 <__adddf3>
    1008:	00012603          	lw	x12,0(x2)
    100c:	00412683          	lw	x13,4(x2)
    1010:	00050b13          	addi	x22,x10,0
    1014:	01640433          	add	x8,x8,x22
    1018:	731010ef          	jal	x1,2f48 <__subdf3>
    101c:	0104a603          	lw	x12,16(x9)
    1020:	0144a683          	lw	x13,20(x9)
    1024:	00050d13          	addi	x26,x10,0
    1028:	00058c93          	addi	x25,x11,0
    102c:	061010ef          	jal	x1,288c <__muldf3>
    1030:	000d8613          	addi	x12,x27,0
    1034:	000a0693          	addi	x13,x20,0
    1038:	6fc000ef          	jal	x1,1734 <__adddf3>
    103c:	0184a603          	lw	x12,24(x9)
    1040:	01c4a683          	lw	x13,28(x9)
    1044:	00050b93          	addi	x23,x10,0
    1048:	00058a13          	addi	x20,x11,0
    104c:	000d0513          	addi	x10,x26,0
    1050:	000c8593          	addi	x11,x25,0
    1054:	039010ef          	jal	x1,288c <__muldf3>
    1058:	00050613          	addi	x12,x10,0
    105c:	00058693          	addi	x13,x11,0
    1060:	000b8513          	addi	x10,x23,0
    1064:	000a0593          	addi	x11,x20,0
    1068:	6cc000ef          	jal	x1,1734 <__adddf3>
    106c:	00050613          	addi	x12,x10,0
    1070:	00058693          	addi	x13,x11,0
    1074:	00098513          	addi	x10,x19,0
    1078:	00090593          	addi	x11,x18,0
    107c:	6b8000ef          	jal	x1,1734 <__adddf3>
    1080:	07fb7793          	andi	x15,x22,127
    1084:	00179a13          	slli	x20,x15,0x1
    1088:	00fa0713          	addi	x14,x20,15
    108c:	00371713          	slli	x14,x14,0x3
    1090:	00e48733          	add	x14,x9,x14
    1094:	00472783          	lw	x15,4(x14)
    1098:	00050613          	addi	x12,x10,0
    109c:	00058693          	addi	x13,x11,0
    10a0:	00d41413          	slli	x8,x8,0xd
    10a4:	00072d03          	lw	x26,0(x14)
    10a8:	00058913          	addi	x18,x11,0
    10ac:	00f40433          	add	x8,x8,x15
    10b0:	00050993          	addi	x19,x10,0
    10b4:	7d8010ef          	jal	x1,288c <__muldf3>
    10b8:	0284a603          	lw	x12,40(x9)
    10bc:	02c4a683          	lw	x13,44(x9)
    10c0:	00050c93          	addi	x25,x10,0
    10c4:	00058b93          	addi	x23,x11,0
    10c8:	00098513          	addi	x10,x19,0
    10cc:	00090593          	addi	x11,x18,0
    10d0:	7bc010ef          	jal	x1,288c <__muldf3>
    10d4:	0204a603          	lw	x12,32(x9)
    10d8:	0244a683          	lw	x13,36(x9)
    10dc:	658000ef          	jal	x1,1734 <__adddf3>
    10e0:	000c8613          	addi	x12,x25,0
    10e4:	000b8693          	addi	x13,x23,0
    10e8:	7a4010ef          	jal	x1,288c <__muldf3>
    10ec:	00ea0793          	addi	x15,x20,14
    10f0:	00379793          	slli	x15,x15,0x3
    10f4:	00f487b3          	add	x15,x9,x15
    10f8:	0007a603          	lw	x12,0(x15) # 80000000 <_estack+0x7d000000>
    10fc:	00a12023          	sw	x10,0(x2)
    1100:	0047a683          	lw	x13,4(x15)
    1104:	00058d93          	addi	x27,x11,0
    1108:	00098513          	addi	x10,x19,0
    110c:	00090593          	addi	x11,x18,0
    1110:	624000ef          	jal	x1,1734 <__adddf3>
    1114:	00012703          	lw	x14,0(x2)
    1118:	00050613          	addi	x12,x10,0
    111c:	00058693          	addi	x13,x11,0
    1120:	00070513          	addi	x10,x14,0
    1124:	000d8593          	addi	x11,x27,0
    1128:	60c000ef          	jal	x1,1734 <__adddf3>
    112c:	0384a603          	lw	x12,56(x9)
    1130:	03c4a683          	lw	x13,60(x9)
    1134:	00050d93          	addi	x27,x10,0
    1138:	00058a13          	addi	x20,x11,0
    113c:	00098513          	addi	x10,x19,0
    1140:	00090593          	addi	x11,x18,0
    1144:	748010ef          	jal	x1,288c <__muldf3>
    1148:	0304a603          	lw	x12,48(x9)
    114c:	0344a683          	lw	x13,52(x9)
    1150:	5e4000ef          	jal	x1,1734 <__adddf3>
    1154:	00050913          	addi	x18,x10,0
    1158:	00058493          	addi	x9,x11,0
    115c:	000c8613          	addi	x12,x25,0
    1160:	000b8693          	addi	x13,x23,0
    1164:	000c8513          	addi	x10,x25,0
    1168:	000b8593          	addi	x11,x23,0
    116c:	720010ef          	jal	x1,288c <__muldf3>
    1170:	00050613          	addi	x12,x10,0
    1174:	00058693          	addi	x13,x11,0
    1178:	00090513          	addi	x10,x18,0
    117c:	00048593          	addi	x11,x9,0
    1180:	70c010ef          	jal	x1,288c <__muldf3>
    1184:	00050613          	addi	x12,x10,0
    1188:	00058693          	addi	x13,x11,0
    118c:	000d8513          	addi	x10,x27,0
    1190:	000a0593          	addi	x11,x20,0
    1194:	5a0000ef          	jal	x1,1734 <__adddf3>
    1198:	240a9663          	bne	x21,x0,13e4 <__ieee754_pow+0xe28>
    119c:	060b4a63          	blt	x22,x0,1210 <__ieee754_pow+0xc54>
    11a0:	c0f004b7          	lui	x9,0xc0f00
    11a4:	009404b3          	add	x9,x8,x9
    11a8:	000d0613          	addi	x12,x26,0
    11ac:	00048693          	addi	x13,x9,0 # c0f00000 <_estack+0xbdf00000>
    11b0:	6dc010ef          	jal	x1,288c <__muldf3>
    11b4:	000d0613          	addi	x12,x26,0
    11b8:	00048693          	addi	x13,x9,0
    11bc:	578000ef          	jal	x1,1734 <__adddf3>
    11c0:	00004797          	auipc	x15,0x4
    11c4:	12078793          	addi	x15,x15,288 # 52e0 <__pow_log_data+0x10a0>
    11c8:	0007a603          	lw	x12,0(x15)
    11cc:	0047a683          	lw	x13,4(x15)
    11d0:	6bc010ef          	jal	x1,288c <__muldf3>
    11d4:	08812403          	lw	x8,136(x2)
    11d8:	08c12083          	lw	x1,140(x2)
    11dc:	08412483          	lw	x9,132(x2)
    11e0:	08012903          	lw	x18,128(x2)
    11e4:	07c12983          	lw	x19,124(x2)
    11e8:	07812a03          	lw	x20,120(x2)
    11ec:	07412a83          	lw	x21,116(x2)
    11f0:	07012b03          	lw	x22,112(x2)
    11f4:	06c12b83          	lw	x23,108(x2)
    11f8:	06812c03          	lw	x24,104(x2)
    11fc:	06412c83          	lw	x25,100(x2)
    1200:	06012d03          	lw	x26,96(x2)
    1204:	05c12d83          	lw	x27,92(x2)
    1208:	09010113          	addi	x2,x2,144
    120c:	3f80006f          	jal	x0,1604 <__math_check_oflow>
    1210:	3fe007b7          	lui	x15,0x3fe00
    1214:	00f40433          	add	x8,x8,x15
    1218:	000d0613          	addi	x12,x26,0
    121c:	00040693          	addi	x13,x8,0
    1220:	66c010ef          	jal	x1,288c <__muldf3>
    1224:	00050613          	addi	x12,x10,0
    1228:	00058693          	addi	x13,x11,0
    122c:	00050d93          	addi	x27,x10,0
    1230:	00058c93          	addi	x25,x11,0
    1234:	000d0513          	addi	x10,x26,0
    1238:	00040593          	addi	x11,x8,0
    123c:	4f8000ef          	jal	x1,1734 <__adddf3>
    1240:	00004717          	auipc	x14,0x4
    1244:	08870713          	addi	x14,x14,136 # 52c8 <__pow_log_data+0x1088>
    1248:	00072983          	lw	x19,0(x14)
    124c:	00472c03          	lw	x24,4(x14)
    1250:	800007b7          	lui	x15,0x80000
    1254:	fff7c793          	xori	x15,x15,-1
    1258:	00b7f733          	and	x14,x15,x11
    125c:	00058493          	addi	x9,x11,0
    1260:	00058b13          	addi	x22,x11,0
    1264:	00098613          	addi	x12,x19,0
    1268:	000c0693          	addi	x13,x24,0
    126c:	00070593          	addi	x11,x14,0
    1270:	000d0a13          	addi	x20,x26,0
    1274:	00050913          	addi	x18,x10,0
    1278:	00050d13          	addi	x26,x10,0
    127c:	500010ef          	jal	x1,277c <__ledf2>
    1280:	00040a93          	addi	x21,x8,0
    1284:	00004b97          	auipc	x23,0x4
    1288:	064b8b93          	addi	x23,x23,100 # 52e8 <__pow_log_data+0x10a8>
    128c:	0e055a63          	bge	x10,x0,1380 <__ieee754_pow+0xdc4>
    1290:	00000613          	addi	x12,x0,0
    1294:	00000693          	addi	x13,x0,0
    1298:	00090513          	addi	x10,x18,0
    129c:	00048593          	addi	x11,x9,0
    12a0:	4dc010ef          	jal	x1,277c <__ledf2>
    12a4:	12054663          	blt	x10,x0,13d0 <__ieee754_pow+0xe14>
    12a8:	00098b13          	addi	x22,x19,0
    12ac:	000c0993          	addi	x19,x24,0
    12b0:	00090613          	addi	x12,x18,0
    12b4:	00048693          	addi	x13,x9,0
    12b8:	000a0513          	addi	x10,x20,0
    12bc:	000a8593          	addi	x11,x21,0
    12c0:	489010ef          	jal	x1,2f48 <__subdf3>
    12c4:	000c8693          	addi	x13,x25,0
    12c8:	000d8613          	addi	x12,x27,0
    12cc:	468000ef          	jal	x1,1734 <__adddf3>
    12d0:	000b0613          	addi	x12,x22,0
    12d4:	00050c93          	addi	x25,x10,0
    12d8:	00058c13          	addi	x24,x11,0
    12dc:	00098693          	addi	x13,x19,0
    12e0:	00090513          	addi	x10,x18,0
    12e4:	00048593          	addi	x11,x9,0
    12e8:	44c000ef          	jal	x1,1734 <__adddf3>
    12ec:	00050613          	addi	x12,x10,0
    12f0:	00058693          	addi	x13,x11,0
    12f4:	00050a93          	addi	x21,x10,0
    12f8:	00058a13          	addi	x20,x11,0
    12fc:	000b0513          	addi	x10,x22,0
    1300:	00098593          	addi	x11,x19,0
    1304:	445010ef          	jal	x1,2f48 <__subdf3>
    1308:	00090613          	addi	x12,x18,0
    130c:	00048693          	addi	x13,x9,0
    1310:	424000ef          	jal	x1,1734 <__adddf3>
    1314:	000c8613          	addi	x12,x25,0
    1318:	000c0693          	addi	x13,x24,0
    131c:	418000ef          	jal	x1,1734 <__adddf3>
    1320:	000a8613          	addi	x12,x21,0
    1324:	000a0693          	addi	x13,x20,0
    1328:	40c000ef          	jal	x1,1734 <__adddf3>
    132c:	000b0613          	addi	x12,x22,0
    1330:	00098693          	addi	x13,x19,0
    1334:	415010ef          	jal	x1,2f48 <__subdf3>
    1338:	00000613          	addi	x12,x0,0
    133c:	00000693          	addi	x13,x0,0
    1340:	00050d13          	addi	x26,x10,0
    1344:	00058b13          	addi	x22,x11,0
    1348:	3a8010ef          	jal	x1,26f0 <__eqdf2>
    134c:	00051863          	bne	x10,x0,135c <__ieee754_pow+0xda0>
    1350:	80000b37          	lui	x22,0x80000
    1354:	00000d13          	addi	x26,x0,0
    1358:	008b7b33          	and	x22,x22,x8
    135c:	000ba603          	lw	x12,0(x23)
    1360:	004ba683          	lw	x13,4(x23)
    1364:	04c12423          	sw	x12,72(x2)
    1368:	04d12623          	sw	x13,76(x2)
    136c:	04812503          	lw	x10,72(x2)
    1370:	04c12583          	lw	x11,76(x2)
    1374:	518010ef          	jal	x1,288c <__muldf3>
    1378:	04a12423          	sw	x10,72(x2)
    137c:	04b12623          	sw	x11,76(x2)
    1380:	000ba603          	lw	x12,0(x23)
    1384:	004ba683          	lw	x13,4(x23)
    1388:	000d0513          	addi	x10,x26,0
    138c:	000b0593          	addi	x11,x22,0 # 80000000 <_estack+0x7d000000>
    1390:	4fc010ef          	jal	x1,288c <__muldf3>
    1394:	08812403          	lw	x8,136(x2)
    1398:	08c12083          	lw	x1,140(x2)
    139c:	08412483          	lw	x9,132(x2)
    13a0:	08012903          	lw	x18,128(x2)
    13a4:	07c12983          	lw	x19,124(x2)
    13a8:	07812a03          	lw	x20,120(x2)
    13ac:	07412a83          	lw	x21,116(x2)
    13b0:	07012b03          	lw	x22,112(x2)
    13b4:	06c12b83          	lw	x23,108(x2)
    13b8:	06812c03          	lw	x24,104(x2)
    13bc:	06412c83          	lw	x25,100(x2)
    13c0:	06012d03          	lw	x26,96(x2)
    13c4:	05c12d83          	lw	x27,92(x2)
    13c8:	09010113          	addi	x2,x2,144
    13cc:	1d40006f          	jal	x0,15a0 <__math_check_uflow>
    13d0:	00004797          	auipc	x15,0x4
    13d4:	f0078793          	addi	x15,x15,-256 # 52d0 <__pow_log_data+0x1090>
    13d8:	0007ab03          	lw	x22,0(x15)
    13dc:	0047a983          	lw	x19,4(x15)
    13e0:	ed1ff06f          	jal	x0,12b0 <__ieee754_pow+0xcf4>
    13e4:	000d0613          	addi	x12,x26,0
    13e8:	00040693          	addi	x13,x8,0
    13ec:	4a0010ef          	jal	x1,288c <__muldf3>
    13f0:	000d0613          	addi	x12,x26,0
    13f4:	00040693          	addi	x13,x8,0
    13f8:	aa8ff06f          	jal	x0,6a0 <__ieee754_pow+0xe4>
    13fc:	00000913          	addi	x18,x0,0
    1400:	00000493          	addi	x9,x0,0
    1404:	b90ff06f          	jal	x0,794 <__ieee754_pow+0x1d8>

00001408 <with_errno>:
    1408:	01fff797          	auipc	x15,0x1fff
    140c:	c007a783          	lw	x15,-1024(x15) # 2000008 <_GLOBAL_OFFSET_TABLE_+0x8>
    1410:	004787b3          	add	x15,x15,x4
    1414:	00c7a023          	sw	x12,0(x15)
    1418:	00008067          	jalr	x0,0(x1)

0000141c <xflow>:
    141c:	fe010113          	addi	x2,x2,-32
    1420:	00112e23          	sw	x1,28(x2)
    1424:	00060793          	addi	x15,x12,0 # 3ff00000 <_estack+0x3cf00000>
    1428:	00060713          	addi	x14,x12,0
    142c:	00050663          	beq	x10,x0,1438 <xflow+0x1c>
    1430:	80000737          	lui	x14,0x80000
    1434:	00c74733          	xor	x14,x14,x12
    1438:	00b12423          	sw	x11,8(x2)
    143c:	00e12623          	sw	x14,12(x2)
    1440:	00812603          	lw	x12,8(x2)
    1444:	00c12683          	lw	x13,12(x2)
    1448:	00058813          	addi	x16,x11,0
    144c:	00080513          	addi	x10,x16,0
    1450:	00078593          	addi	x11,x15,0
    1454:	438010ef          	jal	x1,288c <__muldf3>
    1458:	01c12083          	lw	x1,28(x2)
    145c:	02200613          	addi	x12,x0,34
    1460:	02010113          	addi	x2,x2,32
    1464:	fa5ff06f          	jal	x0,1408 <with_errno>

00001468 <__math_edom>:
    1468:	02100613          	addi	x12,x0,33
    146c:	f9dff06f          	jal	x0,1408 <with_errno>

00001470 <__math_uflow>:
    1470:	00004797          	auipc	x15,0x4
    1474:	e8078793          	addi	x15,x15,-384 # 52f0 <__pow_log_data+0x10b0>
    1478:	0007a583          	lw	x11,0(x15)
    147c:	0047a603          	lw	x12,4(x15)
    1480:	f9dff06f          	jal	x0,141c <xflow>

00001484 <__math_may_uflow>:
    1484:	00004797          	auipc	x15,0x4
    1488:	e7478793          	addi	x15,x15,-396 # 52f8 <__pow_log_data+0x10b8>
    148c:	0007a583          	lw	x11,0(x15)
    1490:	0047a603          	lw	x12,4(x15)
    1494:	f89ff06f          	jal	x0,141c <xflow>

00001498 <__math_oflow>:
    1498:	00004797          	auipc	x15,0x4
    149c:	e6878793          	addi	x15,x15,-408 # 5300 <__pow_log_data+0x10c0>
    14a0:	0007a583          	lw	x11,0(x15)
    14a4:	0047a603          	lw	x12,4(x15)
    14a8:	f75ff06f          	jal	x0,141c <xflow>

000014ac <__math_divzero>:
    14ac:	fe010113          	addi	x2,x2,-32
    14b0:	00112e23          	sw	x1,28(x2)
    14b4:	00004797          	auipc	x15,0x4
    14b8:	e1c78793          	addi	x15,x15,-484 # 52d0 <__pow_log_data+0x1090>
    14bc:	00051663          	bne	x10,x0,14c8 <__math_divzero+0x1c>
    14c0:	00004797          	auipc	x15,0x4
    14c4:	e0878793          	addi	x15,x15,-504 # 52c8 <__pow_log_data+0x1088>
    14c8:	0007a703          	lw	x14,0(x15)
    14cc:	0047a783          	lw	x15,4(x15)
    14d0:	00000613          	addi	x12,x0,0
    14d4:	00e12423          	sw	x14,8(x2)
    14d8:	00f12623          	sw	x15,12(x2)
    14dc:	00812503          	lw	x10,8(x2)
    14e0:	00c12583          	lw	x11,12(x2)
    14e4:	00000693          	addi	x13,x0,0
    14e8:	239000ef          	jal	x1,1f20 <__divdf3>
    14ec:	01c12083          	lw	x1,28(x2)
    14f0:	02200613          	addi	x12,x0,34
    14f4:	02010113          	addi	x2,x2,32
    14f8:	f11ff06f          	jal	x0,1408 <with_errno>

000014fc <__math_invalid>:
    14fc:	fe010113          	addi	x2,x2,-32
    1500:	00050613          	addi	x12,x10,0
    1504:	00058693          	addi	x13,x11,0
    1508:	00112e23          	sw	x1,28(x2)
    150c:	00812c23          	sw	x8,24(x2)
    1510:	00912a23          	sw	x9,20(x2)
    1514:	01212823          	sw	x18,16(x2)
    1518:	01312623          	sw	x19,12(x2)
    151c:	00050493          	addi	x9,x10,0
    1520:	00058413          	addi	x8,x11,0
    1524:	225010ef          	jal	x1,2f48 <__subdf3>
    1528:	00050613          	addi	x12,x10,0
    152c:	00058693          	addi	x13,x11,0
    1530:	1f1000ef          	jal	x1,1f20 <__divdf3>
    1534:	00050993          	addi	x19,x10,0
    1538:	00058913          	addi	x18,x11,0
    153c:	00048613          	addi	x12,x9,0
    1540:	00040693          	addi	x13,x8,0
    1544:	00048513          	addi	x10,x9,0
    1548:	00040593          	addi	x11,x8,0
    154c:	250020ef          	jal	x1,379c <__unorddf2>
    1550:	02051663          	bne	x10,x0,157c <__math_invalid+0x80>
    1554:	01812403          	lw	x8,24(x2)
    1558:	01c12083          	lw	x1,28(x2)
    155c:	01412483          	lw	x9,20(x2)
    1560:	00098513          	addi	x10,x19,0
    1564:	00090593          	addi	x11,x18,0
    1568:	00c12983          	lw	x19,12(x2)
    156c:	01012903          	lw	x18,16(x2)
    1570:	02100613          	addi	x12,x0,33
    1574:	02010113          	addi	x2,x2,32
    1578:	e91ff06f          	jal	x0,1408 <with_errno>
    157c:	01c12083          	lw	x1,28(x2)
    1580:	01812403          	lw	x8,24(x2)
    1584:	01412483          	lw	x9,20(x2)
    1588:	00098513          	addi	x10,x19,0
    158c:	00090593          	addi	x11,x18,0
    1590:	00c12983          	lw	x19,12(x2)
    1594:	01012903          	lw	x18,16(x2)
    1598:	02010113          	addi	x2,x2,32
    159c:	00008067          	jalr	x0,0(x1)

000015a0 <__math_check_uflow>:
    15a0:	ff010113          	addi	x2,x2,-16
    15a4:	00000613          	addi	x12,x0,0
    15a8:	00000693          	addi	x13,x0,0
    15ac:	00812423          	sw	x8,8(x2)
    15b0:	00912223          	sw	x9,4(x2)
    15b4:	00112623          	sw	x1,12(x2)
    15b8:	00050493          	addi	x9,x10,0
    15bc:	00058413          	addi	x8,x11,0
    15c0:	130010ef          	jal	x1,26f0 <__eqdf2>
    15c4:	02051263          	bne	x10,x0,15e8 <__math_check_uflow+0x48>
    15c8:	00040593          	addi	x11,x8,0
    15cc:	00812403          	lw	x8,8(x2)
    15d0:	00c12083          	lw	x1,12(x2)
    15d4:	00048513          	addi	x10,x9,0
    15d8:	00412483          	lw	x9,4(x2)
    15dc:	02200613          	addi	x12,x0,34
    15e0:	01010113          	addi	x2,x2,16
    15e4:	e25ff06f          	jal	x0,1408 <with_errno>
    15e8:	00c12083          	lw	x1,12(x2)
    15ec:	00040593          	addi	x11,x8,0
    15f0:	00812403          	lw	x8,8(x2)
    15f4:	00048513          	addi	x10,x9,0
    15f8:	00412483          	lw	x9,4(x2)
    15fc:	01010113          	addi	x2,x2,16
    1600:	00008067          	jalr	x0,0(x1)

00001604 <__math_check_oflow>:
    1604:	fe010113          	addi	x2,x2,-32
    1608:	00004797          	auipc	x15,0x4
    160c:	d0078793          	addi	x15,x15,-768 # 5308 <__pow_log_data+0x10c8>
    1610:	01212823          	sw	x18,16(x2)
    1614:	01312623          	sw	x19,12(x2)
    1618:	0007a903          	lw	x18,0(x15)
    161c:	0047a983          	lw	x19,4(x15)
    1620:	01412423          	sw	x20,8(x2)
    1624:	00159a13          	slli	x20,x11,0x1
    1628:	00812c23          	sw	x8,24(x2)
    162c:	001a5a13          	srli	x20,x20,0x1
    1630:	00050413          	addi	x8,x10,0
    1634:	00912a23          	sw	x9,20(x2)
    1638:	00090613          	addi	x12,x18,0
    163c:	00058493          	addi	x9,x11,0
    1640:	00098693          	addi	x13,x19,0
    1644:	00040513          	addi	x10,x8,0
    1648:	000a0593          	addi	x11,x20,0
    164c:	00112e23          	sw	x1,28(x2)
    1650:	14c020ef          	jal	x1,379c <__unorddf2>
    1654:	04051463          	bne	x10,x0,169c <__math_check_oflow+0x98>
    1658:	00090613          	addi	x12,x18,0
    165c:	00098693          	addi	x13,x19,0
    1660:	00040513          	addi	x10,x8,0
    1664:	000a0593          	addi	x11,x20,0
    1668:	114010ef          	jal	x1,277c <__ledf2>
    166c:	02a05863          	bge	x0,x10,169c <__math_check_oflow+0x98>
    1670:	00040513          	addi	x10,x8,0
    1674:	01812403          	lw	x8,24(x2)
    1678:	01c12083          	lw	x1,28(x2)
    167c:	01012903          	lw	x18,16(x2)
    1680:	00c12983          	lw	x19,12(x2)
    1684:	00812a03          	lw	x20,8(x2)
    1688:	00048593          	addi	x11,x9,0
    168c:	01412483          	lw	x9,20(x2)
    1690:	02200613          	addi	x12,x0,34
    1694:	02010113          	addi	x2,x2,32
    1698:	d71ff06f          	jal	x0,1408 <with_errno>
    169c:	01c12083          	lw	x1,28(x2)
    16a0:	00040513          	addi	x10,x8,0
    16a4:	01812403          	lw	x8,24(x2)
    16a8:	01012903          	lw	x18,16(x2)
    16ac:	00c12983          	lw	x19,12(x2)
    16b0:	00812a03          	lw	x20,8(x2)
    16b4:	00048593          	addi	x11,x9,0
    16b8:	01412483          	lw	x9,20(x2)
    16bc:	02010113          	addi	x2,x2,32
    16c0:	00008067          	jalr	x0,0(x1)

000016c4 <__lshrdi3>:
    16c4:	02060063          	beq	x12,x0,16e4 <__lshrdi3+0x20>
    16c8:	02000793          	addi	x15,x0,32
    16cc:	40c787b3          	sub	x15,x15,x12
    16d0:	00f04c63          	blt	x0,x15,16e8 <__lshrdi3+0x24>
    16d4:	fe060613          	addi	x12,x12,-32
    16d8:	00c5d533          	srl	x10,x11,x12
    16dc:	00000713          	addi	x14,x0,0
    16e0:	00070593          	addi	x11,x14,0 # 80000000 <_estack+0x7d000000>
    16e4:	00008067          	jalr	x0,0(x1)
    16e8:	00c5d733          	srl	x14,x11,x12
    16ec:	00c55533          	srl	x10,x10,x12
    16f0:	00f595b3          	sll	x11,x11,x15
    16f4:	00b56533          	or	x10,x10,x11
    16f8:	fe9ff06f          	jal	x0,16e0 <__lshrdi3+0x1c>

000016fc <__ashldi3>:
    16fc:	02060063          	beq	x12,x0,171c <__ashldi3+0x20>
    1700:	02000793          	addi	x15,x0,32
    1704:	40c787b3          	sub	x15,x15,x12
    1708:	00f04c63          	blt	x0,x15,1720 <__ashldi3+0x24>
    170c:	fe060613          	addi	x12,x12,-32
    1710:	00c515b3          	sll	x11,x10,x12
    1714:	00000713          	addi	x14,x0,0
    1718:	00070513          	addi	x10,x14,0
    171c:	00008067          	jalr	x0,0(x1)
    1720:	00c51733          	sll	x14,x10,x12
    1724:	00c595b3          	sll	x11,x11,x12
    1728:	00f55533          	srl	x10,x10,x15
    172c:	00a5e5b3          	or	x11,x11,x10
    1730:	fe9ff06f          	jal	x0,1718 <__ashldi3+0x1c>

00001734 <__adddf3>:
    1734:	00100737          	lui	x14,0x100
    1738:	fff70713          	addi	x14,x14,-1 # fffff <_sibss+0xfacc3>
    173c:	fe010113          	addi	x2,x2,-32
    1740:	00b777b3          	and	x15,x14,x11
    1744:	0146d893          	srli	x17,x13,0x14
    1748:	00d77733          	and	x14,x14,x13
    174c:	00812c23          	sw	x8,24(x2)
    1750:	00912a23          	sw	x9,20(x2)
    1754:	0145d413          	srli	x8,x11,0x14
    1758:	01f5d493          	srli	x9,x11,0x1f
    175c:	00379593          	slli	x11,x15,0x3
    1760:	01d55793          	srli	x15,x10,0x1d
    1764:	7ff47413          	andi	x8,x8,2047
    1768:	00b7e7b3          	or	x15,x15,x11
    176c:	7ff8f893          	andi	x17,x17,2047
    1770:	00371593          	slli	x11,x14,0x3
    1774:	00112e23          	sw	x1,28(x2)
    1778:	01d65713          	srli	x14,x12,0x1d
    177c:	01212823          	sw	x18,16(x2)
    1780:	01312623          	sw	x19,12(x2)
    1784:	01f6d693          	srli	x13,x13,0x1f
    1788:	00b76733          	or	x14,x14,x11
    178c:	00351513          	slli	x10,x10,0x3
    1790:	00361613          	slli	x12,x12,0x3
    1794:	411405b3          	sub	x11,x8,x17
    1798:	30d49a63          	bne	x9,x13,1aac <__adddf3+0x378>
    179c:	16b05463          	bge	x0,x11,1904 <__adddf3+0x1d0>
    17a0:	0a089063          	bne	x17,x0,1840 <__adddf3+0x10c>
    17a4:	00c766b3          	or	x13,x14,x12
    17a8:	70068863          	beq	x13,x0,1eb8 <__adddf3+0x784>
    17ac:	fff58693          	addi	x13,x11,-1
    17b0:	08069063          	bne	x13,x0,1830 <__adddf3+0xfc>
    17b4:	00c50633          	add	x12,x10,x12
    17b8:	00a636b3          	sltu	x13,x12,x10
    17bc:	00e78733          	add	x14,x15,x14
    17c0:	00d707b3          	add	x15,x14,x13
    17c4:	00800737          	lui	x14,0x800
    17c8:	00e7f733          	and	x14,x15,x14
    17cc:	00060513          	addi	x10,x12,0
    17d0:	2a071863          	bne	x14,x0,1a80 <__adddf3+0x34c>
    17d4:	00100413          	addi	x8,x0,1
    17d8:	00757713          	andi	x14,x10,7
    17dc:	02070063          	beq	x14,x0,17fc <__adddf3+0xc8>
    17e0:	00f57713          	andi	x14,x10,15
    17e4:	00400693          	addi	x13,x0,4
    17e8:	00d70a63          	beq	x14,x13,17fc <__adddf3+0xc8>
    17ec:	00450713          	addi	x14,x10,4
    17f0:	00a736b3          	sltu	x13,x14,x10
    17f4:	00d787b3          	add	x15,x15,x13
    17f8:	00070513          	addi	x10,x14,0 # 800000 <_sibss+0x7facc4>
    17fc:	008005b7          	lui	x11,0x800
    1800:	00b7f5b3          	and	x11,x15,x11
    1804:	6c058c63          	beq	x11,x0,1edc <__adddf3+0x7a8>
    1808:	00140413          	addi	x8,x8,1
    180c:	7ff00713          	addi	x14,x0,2047
    1810:	0ae40263          	beq	x8,x14,18b4 <__adddf3+0x180>
    1814:	ff800737          	lui	x14,0xff800
    1818:	fff70713          	addi	x14,x14,-1 # ff7fffff <_estack+0xfc7fffff>
    181c:	00e7f7b3          	and	x15,x15,x14
    1820:	00355513          	srli	x10,x10,0x3
    1824:	01d79593          	slli	x11,x15,0x1d
    1828:	00a5e5b3          	or	x11,x11,x10
    182c:	6240006f          	jal	x0,1e50 <__adddf3+0x71c>
    1830:	7ff00813          	addi	x16,x0,2047
    1834:	09059463          	bne	x11,x16,18bc <__adddf3+0x188>
    1838:	7ff00413          	addi	x8,x0,2047
    183c:	f9dff06f          	jal	x0,17d8 <__adddf3+0xa4>
    1840:	7ff00693          	addi	x13,x0,2047
    1844:	f8d40ae3          	beq	x8,x13,17d8 <__adddf3+0xa4>
    1848:	03800693          	addi	x13,x0,56
    184c:	06b6cc63          	blt	x13,x11,18c4 <__adddf3+0x190>
    1850:	008006b7          	lui	x13,0x800
    1854:	00d76733          	or	x14,x14,x13
    1858:	00058693          	addi	x13,x11,0 # 800000 <_sibss+0x7facc4>
    185c:	01f00593          	addi	x11,x0,31
    1860:	06d5c863          	blt	x11,x13,18d0 <__adddf3+0x19c>
    1864:	02000813          	addi	x16,x0,32
    1868:	40d80833          	sub	x16,x16,x13
    186c:	00d658b3          	srl	x17,x12,x13
    1870:	010715b3          	sll	x11,x14,x16
    1874:	01061833          	sll	x16,x12,x16
    1878:	0115e5b3          	or	x11,x11,x17
    187c:	01003833          	sltu	x16,x0,x16
    1880:	0105e633          	or	x12,x11,x16
    1884:	00d756b3          	srl	x13,x14,x13
    1888:	00a60533          	add	x10,x12,x10
    188c:	00f686b3          	add	x13,x13,x15
    1890:	00c53633          	sltu	x12,x10,x12
    1894:	00c687b3          	add	x15,x13,x12
    1898:	00800737          	lui	x14,0x800
    189c:	00e7f733          	and	x14,x15,x14
    18a0:	f2070ce3          	beq	x14,x0,17d8 <__adddf3+0xa4>
    18a4:	00140413          	addi	x8,x8,1
    18a8:	7ff00713          	addi	x14,x0,2047
    18ac:	1ce41c63          	bne	x8,x14,1a84 <__adddf3+0x350>
    18b0:	7ff00413          	addi	x8,x0,2047
    18b4:	00000793          	addi	x15,x0,0
    18b8:	1900006f          	jal	x0,1a48 <__adddf3+0x314>
    18bc:	03800593          	addi	x11,x0,56
    18c0:	f8d5dee3          	bge	x11,x13,185c <__adddf3+0x128>
    18c4:	00000693          	addi	x13,x0,0
    18c8:	00100613          	addi	x12,x0,1
    18cc:	fbdff06f          	jal	x0,1888 <__adddf3+0x154>
    18d0:	fe068593          	addi	x11,x13,-32 # 7fffe0 <_sibss+0x7faca4>
    18d4:	02000893          	addi	x17,x0,32
    18d8:	00b755b3          	srl	x11,x14,x11
    18dc:	00000813          	addi	x16,x0,0
    18e0:	01168863          	beq	x13,x17,18f0 <__adddf3+0x1bc>
    18e4:	04000813          	addi	x16,x0,64
    18e8:	40d80833          	sub	x16,x16,x13
    18ec:	01071833          	sll	x16,x14,x16
    18f0:	00c86833          	or	x16,x16,x12
    18f4:	01003833          	sltu	x16,x0,x16
    18f8:	0105e633          	or	x12,x11,x16
    18fc:	00000693          	addi	x13,x0,0
    1900:	f89ff06f          	jal	x0,1888 <__adddf3+0x154>
    1904:	0c058e63          	beq	x11,x0,19e0 <__adddf3+0x2ac>
    1908:	408885b3          	sub	x11,x17,x8
    190c:	02041463          	bne	x8,x0,1934 <__adddf3+0x200>
    1910:	00a7e6b3          	or	x13,x15,x10
    1914:	58068e63          	beq	x13,x0,1eb0 <__adddf3+0x77c>
    1918:	fff58693          	addi	x13,x11,-1
    191c:	e8068ce3          	beq	x13,x0,17b4 <__adddf3+0x80>
    1920:	7ff00813          	addi	x16,x0,2047
    1924:	07059a63          	bne	x11,x16,1998 <__adddf3+0x264>
    1928:	00070793          	addi	x15,x14,0 # 800000 <_sibss+0x7facc4>
    192c:	00060513          	addi	x10,x12,0
    1930:	f09ff06f          	jal	x0,1838 <__adddf3+0x104>
    1934:	7ff00693          	addi	x13,x0,2047
    1938:	fed888e3          	beq	x17,x13,1928 <__adddf3+0x1f4>
    193c:	03800693          	addi	x13,x0,56
    1940:	06b6c063          	blt	x13,x11,19a0 <__adddf3+0x26c>
    1944:	008006b7          	lui	x13,0x800
    1948:	00d7e7b3          	or	x15,x15,x13
    194c:	00058693          	addi	x13,x11,0
    1950:	01f00593          	addi	x11,x0,31
    1954:	04d5cc63          	blt	x11,x13,19ac <__adddf3+0x278>
    1958:	02000813          	addi	x16,x0,32
    195c:	40d80833          	sub	x16,x16,x13
    1960:	010795b3          	sll	x11,x15,x16
    1964:	00d55333          	srl	x6,x10,x13
    1968:	01051833          	sll	x16,x10,x16
    196c:	0065e5b3          	or	x11,x11,x6
    1970:	01003833          	sltu	x16,x0,x16
    1974:	0105e5b3          	or	x11,x11,x16
    1978:	00d7d6b3          	srl	x13,x15,x13
    197c:	00c58633          	add	x12,x11,x12
    1980:	00e686b3          	add	x13,x13,x14
    1984:	00b635b3          	sltu	x11,x12,x11
    1988:	00060513          	addi	x10,x12,0
    198c:	00b687b3          	add	x15,x13,x11
    1990:	00088413          	addi	x8,x17,0
    1994:	f05ff06f          	jal	x0,1898 <__adddf3+0x164>
    1998:	03800593          	addi	x11,x0,56
    199c:	fad5dae3          	bge	x11,x13,1950 <__adddf3+0x21c>
    19a0:	00000693          	addi	x13,x0,0
    19a4:	00100593          	addi	x11,x0,1
    19a8:	fd5ff06f          	jal	x0,197c <__adddf3+0x248>
    19ac:	fe068593          	addi	x11,x13,-32 # 7fffe0 <_sibss+0x7faca4>
    19b0:	02000313          	addi	x6,x0,32
    19b4:	00b7d5b3          	srl	x11,x15,x11
    19b8:	00000813          	addi	x16,x0,0
    19bc:	00668863          	beq	x13,x6,19cc <__adddf3+0x298>
    19c0:	04000813          	addi	x16,x0,64
    19c4:	40d80833          	sub	x16,x16,x13
    19c8:	01079833          	sll	x16,x15,x16
    19cc:	00a86833          	or	x16,x16,x10
    19d0:	01003833          	sltu	x16,x0,x16
    19d4:	0105e5b3          	or	x11,x11,x16
    19d8:	00000693          	addi	x13,x0,0
    19dc:	fa1ff06f          	jal	x0,197c <__adddf3+0x248>
    19e0:	00140693          	addi	x13,x8,1
    19e4:	7fe6f593          	andi	x11,x13,2046
    19e8:	06059463          	bne	x11,x0,1a50 <__adddf3+0x31c>
    19ec:	00a7e6b3          	or	x13,x15,x10
    19f0:	04041063          	bne	x8,x0,1a30 <__adddf3+0x2fc>
    19f4:	4c068663          	beq	x13,x0,1ec0 <__adddf3+0x78c>
    19f8:	00c766b3          	or	x13,x14,x12
    19fc:	dc068ee3          	beq	x13,x0,17d8 <__adddf3+0xa4>
    1a00:	00c50633          	add	x12,x10,x12
    1a04:	00a636b3          	sltu	x13,x12,x10
    1a08:	00e78733          	add	x14,x15,x14
    1a0c:	00d707b3          	add	x15,x14,x13
    1a10:	00800737          	lui	x14,0x800
    1a14:	00e7f733          	and	x14,x15,x14
    1a18:	00060513          	addi	x10,x12,0
    1a1c:	da070ee3          	beq	x14,x0,17d8 <__adddf3+0xa4>
    1a20:	ff800737          	lui	x14,0xff800
    1a24:	fff70713          	addi	x14,x14,-1 # ff7fffff <_estack+0xfc7fffff>
    1a28:	00e7f7b3          	and	x15,x15,x14
    1a2c:	da9ff06f          	jal	x0,17d4 <__adddf3+0xa0>
    1a30:	ee068ce3          	beq	x13,x0,1928 <__adddf3+0x1f4>
    1a34:	00c76633          	or	x12,x14,x12
    1a38:	e00600e3          	beq	x12,x0,1838 <__adddf3+0x104>
    1a3c:	00000493          	addi	x9,x0,0
    1a40:	7ff00413          	addi	x8,x0,2047
    1a44:	000807b7          	lui	x15,0x80
    1a48:	00000593          	addi	x11,x0,0
    1a4c:	4080006f          	jal	x0,1e54 <__adddf3+0x720>
    1a50:	7ff00593          	addi	x11,x0,2047
    1a54:	e4b68ee3          	beq	x13,x11,18b0 <__adddf3+0x17c>
    1a58:	00c50633          	add	x12,x10,x12
    1a5c:	00a63533          	sltu	x10,x12,x10
    1a60:	00e78733          	add	x14,x15,x14
    1a64:	00a70733          	add	x14,x14,x10
    1a68:	01f71513          	slli	x10,x14,0x1f
    1a6c:	00165613          	srli	x12,x12,0x1
    1a70:	00c56533          	or	x10,x10,x12
    1a74:	00175793          	srli	x15,x14,0x1
    1a78:	00068413          	addi	x8,x13,0
    1a7c:	d5dff06f          	jal	x0,17d8 <__adddf3+0xa4>
    1a80:	00200413          	addi	x8,x0,2
    1a84:	ff800737          	lui	x14,0xff800
    1a88:	fff70713          	addi	x14,x14,-1 # ff7fffff <_estack+0xfc7fffff>
    1a8c:	00e7f7b3          	and	x15,x15,x14
    1a90:	00155713          	srli	x14,x10,0x1
    1a94:	00157513          	andi	x10,x10,1
    1a98:	00a76733          	or	x14,x14,x10
    1a9c:	01f79513          	slli	x10,x15,0x1f
    1aa0:	00e56533          	or	x10,x10,x14
    1aa4:	0017d793          	srli	x15,x15,0x1
    1aa8:	d31ff06f          	jal	x0,17d8 <__adddf3+0xa4>
    1aac:	0eb05e63          	bge	x0,x11,1ba8 <__adddf3+0x474>
    1ab0:	04089663          	bne	x17,x0,1afc <__adddf3+0x3c8>
    1ab4:	00c766b3          	or	x13,x14,x12
    1ab8:	40068063          	beq	x13,x0,1eb8 <__adddf3+0x784>
    1abc:	fff58693          	addi	x13,x11,-1
    1ac0:	02069063          	bne	x13,x0,1ae0 <__adddf3+0x3ac>
    1ac4:	40c50633          	sub	x12,x10,x12
    1ac8:	00c536b3          	sltu	x13,x10,x12
    1acc:	40e78733          	sub	x14,x15,x14
    1ad0:	00060513          	addi	x10,x12,0
    1ad4:	40d707b3          	sub	x15,x14,x13
    1ad8:	00100413          	addi	x8,x0,1
    1adc:	07c0006f          	jal	x0,1b58 <__adddf3+0x424>
    1ae0:	7ff00813          	addi	x16,x0,2047
    1ae4:	d5058ae3          	beq	x11,x16,1838 <__adddf3+0x104>
    1ae8:	03800593          	addi	x11,x0,56
    1aec:	02d5d663          	bge	x11,x13,1b18 <__adddf3+0x3e4>
    1af0:	00000693          	addi	x13,x0,0
    1af4:	00100613          	addi	x12,x0,1
    1af8:	04c0006f          	jal	x0,1b44 <__adddf3+0x410>
    1afc:	7ff00693          	addi	x13,x0,2047
    1b00:	ccd40ce3          	beq	x8,x13,17d8 <__adddf3+0xa4>
    1b04:	03800693          	addi	x13,x0,56
    1b08:	feb6c4e3          	blt	x13,x11,1af0 <__adddf3+0x3bc>
    1b0c:	008006b7          	lui	x13,0x800
    1b10:	00d76733          	or	x14,x14,x13
    1b14:	00058693          	addi	x13,x11,0
    1b18:	01f00593          	addi	x11,x0,31
    1b1c:	04d5cc63          	blt	x11,x13,1b74 <__adddf3+0x440>
    1b20:	02000813          	addi	x16,x0,32
    1b24:	40d80833          	sub	x16,x16,x13
    1b28:	00d658b3          	srl	x17,x12,x13
    1b2c:	010715b3          	sll	x11,x14,x16
    1b30:	01061833          	sll	x16,x12,x16
    1b34:	0115e5b3          	or	x11,x11,x17
    1b38:	01003833          	sltu	x16,x0,x16
    1b3c:	0105e633          	or	x12,x11,x16
    1b40:	00d756b3          	srl	x13,x14,x13
    1b44:	40c50633          	sub	x12,x10,x12
    1b48:	00c53733          	sltu	x14,x10,x12
    1b4c:	40d786b3          	sub	x13,x15,x13
    1b50:	00060513          	addi	x10,x12,0
    1b54:	40e687b3          	sub	x15,x13,x14
    1b58:	00800737          	lui	x14,0x800
    1b5c:	00e7f6b3          	and	x13,x15,x14
    1b60:	c6068ce3          	beq	x13,x0,17d8 <__adddf3+0xa4>
    1b64:	fff70713          	addi	x14,x14,-1 # 7fffff <_sibss+0x7facc3>
    1b68:	00e7f9b3          	and	x19,x15,x14
    1b6c:	00050913          	addi	x18,x10,0
    1b70:	1fc0006f          	jal	x0,1d6c <__adddf3+0x638>
    1b74:	fe068593          	addi	x11,x13,-32 # 7fffe0 <_sibss+0x7faca4>
    1b78:	02000893          	addi	x17,x0,32
    1b7c:	00b755b3          	srl	x11,x14,x11
    1b80:	00000813          	addi	x16,x0,0
    1b84:	01168863          	beq	x13,x17,1b94 <__adddf3+0x460>
    1b88:	04000813          	addi	x16,x0,64
    1b8c:	40d80833          	sub	x16,x16,x13
    1b90:	01071833          	sll	x16,x14,x16
    1b94:	00c86833          	or	x16,x16,x12
    1b98:	01003833          	sltu	x16,x0,x16
    1b9c:	0105e633          	or	x12,x11,x16
    1ba0:	00000693          	addi	x13,x0,0
    1ba4:	fa1ff06f          	jal	x0,1b44 <__adddf3+0x410>
    1ba8:	0e058c63          	beq	x11,x0,1ca0 <__adddf3+0x56c>
    1bac:	40888833          	sub	x16,x17,x8
    1bb0:	04041263          	bne	x8,x0,1bf4 <__adddf3+0x4c0>
    1bb4:	00a7e5b3          	or	x11,x15,x10
    1bb8:	30058a63          	beq	x11,x0,1ecc <__adddf3+0x798>
    1bbc:	fff80593          	addi	x11,x16,-1
    1bc0:	00059e63          	bne	x11,x0,1bdc <__adddf3+0x4a8>
    1bc4:	40a60533          	sub	x10,x12,x10
    1bc8:	40f70733          	sub	x14,x14,x15
    1bcc:	00a63633          	sltu	x12,x12,x10
    1bd0:	40c707b3          	sub	x15,x14,x12
    1bd4:	00068493          	addi	x9,x13,0
    1bd8:	f01ff06f          	jal	x0,1ad8 <__adddf3+0x3a4>
    1bdc:	7ff00313          	addi	x6,x0,2047
    1be0:	06681c63          	bne	x16,x6,1c58 <__adddf3+0x524>
    1be4:	00070793          	addi	x15,x14,0
    1be8:	00060513          	addi	x10,x12,0
    1bec:	7ff00413          	addi	x8,x0,2047
    1bf0:	0d80006f          	jal	x0,1cc8 <__adddf3+0x594>
    1bf4:	7ff00593          	addi	x11,x0,2047
    1bf8:	feb886e3          	beq	x17,x11,1be4 <__adddf3+0x4b0>
    1bfc:	03800593          	addi	x11,x0,56
    1c00:	0705c063          	blt	x11,x16,1c60 <__adddf3+0x52c>
    1c04:	008005b7          	lui	x11,0x800
    1c08:	00b7e7b3          	or	x15,x15,x11
    1c0c:	00080593          	addi	x11,x16,0
    1c10:	01f00813          	addi	x16,x0,31
    1c14:	04b84c63          	blt	x16,x11,1c6c <__adddf3+0x538>
    1c18:	02000313          	addi	x6,x0,32
    1c1c:	40b30333          	sub	x6,x6,x11
    1c20:	00b55e33          	srl	x28,x10,x11
    1c24:	00679833          	sll	x16,x15,x6
    1c28:	00651333          	sll	x6,x10,x6
    1c2c:	01c86833          	or	x16,x16,x28
    1c30:	00603333          	sltu	x6,x0,x6
    1c34:	00686533          	or	x10,x16,x6
    1c38:	00b7d5b3          	srl	x11,x15,x11
    1c3c:	40a60533          	sub	x10,x12,x10
    1c40:	40b705b3          	sub	x11,x14,x11
    1c44:	00a63633          	sltu	x12,x12,x10
    1c48:	40c587b3          	sub	x15,x11,x12
    1c4c:	00088413          	addi	x8,x17,0
    1c50:	00068493          	addi	x9,x13,0
    1c54:	f05ff06f          	jal	x0,1b58 <__adddf3+0x424>
    1c58:	03800813          	addi	x16,x0,56
    1c5c:	fab85ae3          	bge	x16,x11,1c10 <__adddf3+0x4dc>
    1c60:	00000593          	addi	x11,x0,0
    1c64:	00100513          	addi	x10,x0,1
    1c68:	fd5ff06f          	jal	x0,1c3c <__adddf3+0x508>
    1c6c:	fe058813          	addi	x16,x11,-32 # 7fffe0 <_sibss+0x7faca4>
    1c70:	02000e13          	addi	x28,x0,32
    1c74:	0107d833          	srl	x16,x15,x16
    1c78:	00000313          	addi	x6,x0,0
    1c7c:	01c58863          	beq	x11,x28,1c8c <__adddf3+0x558>
    1c80:	04000313          	addi	x6,x0,64
    1c84:	40b30333          	sub	x6,x6,x11
    1c88:	00679333          	sll	x6,x15,x6
    1c8c:	00a36333          	or	x6,x6,x10
    1c90:	00603333          	sltu	x6,x0,x6
    1c94:	00686533          	or	x10,x16,x6
    1c98:	00000593          	addi	x11,x0,0
    1c9c:	fa1ff06f          	jal	x0,1c3c <__adddf3+0x508>
    1ca0:	00140593          	addi	x11,x8,1
    1ca4:	7fe5f593          	andi	x11,x11,2046
    1ca8:	08059863          	bne	x11,x0,1d38 <__adddf3+0x604>
    1cac:	00a7e833          	or	x16,x15,x10
    1cb0:	00c765b3          	or	x11,x14,x12
    1cb4:	06041263          	bne	x8,x0,1d18 <__adddf3+0x5e4>
    1cb8:	00081c63          	bne	x16,x0,1cd0 <__adddf3+0x59c>
    1cbc:	10058e63          	beq	x11,x0,1dd8 <__adddf3+0x6a4>
    1cc0:	00070793          	addi	x15,x14,0
    1cc4:	00060513          	addi	x10,x12,0
    1cc8:	00068493          	addi	x9,x13,0
    1ccc:	b0dff06f          	jal	x0,17d8 <__adddf3+0xa4>
    1cd0:	b00584e3          	beq	x11,x0,17d8 <__adddf3+0xa4>
    1cd4:	40c508b3          	sub	x17,x10,x12
    1cd8:	011535b3          	sltu	x11,x10,x17
    1cdc:	40e78833          	sub	x16,x15,x14
    1ce0:	40b80833          	sub	x16,x16,x11
    1ce4:	008005b7          	lui	x11,0x800
    1ce8:	00b875b3          	and	x11,x16,x11
    1cec:	00058c63          	beq	x11,x0,1d04 <__adddf3+0x5d0>
    1cf0:	40a60533          	sub	x10,x12,x10
    1cf4:	40f70733          	sub	x14,x14,x15
    1cf8:	00a63633          	sltu	x12,x12,x10
    1cfc:	40c707b3          	sub	x15,x14,x12
    1d00:	fc9ff06f          	jal	x0,1cc8 <__adddf3+0x594>
    1d04:	0108e5b3          	or	x11,x17,x16
    1d08:	0c058863          	beq	x11,x0,1dd8 <__adddf3+0x6a4>
    1d0c:	00080793          	addi	x15,x16,0
    1d10:	00088513          	addi	x10,x17,0
    1d14:	ac5ff06f          	jal	x0,17d8 <__adddf3+0xa4>
    1d18:	00081c63          	bne	x16,x0,1d30 <__adddf3+0x5fc>
    1d1c:	1e058663          	beq	x11,x0,1f08 <__adddf3+0x7d4>
    1d20:	00070793          	addi	x15,x14,0
    1d24:	00060513          	addi	x10,x12,0
    1d28:	00068493          	addi	x9,x13,0
    1d2c:	b0dff06f          	jal	x0,1838 <__adddf3+0x104>
    1d30:	b00584e3          	beq	x11,x0,1838 <__adddf3+0x104>
    1d34:	d09ff06f          	jal	x0,1a3c <__adddf3+0x308>
    1d38:	40c505b3          	sub	x11,x10,x12
    1d3c:	00b53833          	sltu	x16,x10,x11
    1d40:	40e789b3          	sub	x19,x15,x14
    1d44:	410989b3          	sub	x19,x19,x16
    1d48:	00800837          	lui	x16,0x800
    1d4c:	0109f833          	and	x16,x19,x16
    1d50:	00058913          	addi	x18,x11,0 # 800000 <_sibss+0x7facc4>
    1d54:	06080c63          	beq	x16,x0,1dcc <__adddf3+0x698>
    1d58:	40a60933          	sub	x18,x12,x10
    1d5c:	40f70733          	sub	x14,x14,x15
    1d60:	01263633          	sltu	x12,x12,x18
    1d64:	40c709b3          	sub	x19,x14,x12
    1d68:	00068493          	addi	x9,x13,0
    1d6c:	06098a63          	beq	x19,x0,1de0 <__adddf3+0x6ac>
    1d70:	00098513          	addi	x10,x19,0
    1d74:	f60fe0ef          	jal	x1,4d4 <__clzsi2>
    1d78:	ff850793          	addi	x15,x10,-8
    1d7c:	02000693          	addi	x13,x0,32
    1d80:	40f686b3          	sub	x13,x13,x15
    1d84:	00f99733          	sll	x14,x19,x15
    1d88:	00d956b3          	srl	x13,x18,x13
    1d8c:	00e6e6b3          	or	x13,x13,x14
    1d90:	00f919b3          	sll	x19,x18,x15
    1d94:	1087c263          	blt	x15,x8,1e98 <__adddf3+0x764>
    1d98:	408787b3          	sub	x15,x15,x8
    1d9c:	00178793          	addi	x15,x15,1 # 80001 <_sibss+0x7acc5>
    1da0:	02000713          	addi	x14,x0,32
    1da4:	40f70733          	sub	x14,x14,x15
    1da8:	00e69533          	sll	x10,x13,x14
    1dac:	00f9d633          	srl	x12,x19,x15
    1db0:	00e99733          	sll	x14,x19,x14
    1db4:	00c56533          	or	x10,x10,x12
    1db8:	00e03733          	sltu	x14,x0,x14
    1dbc:	00e56533          	or	x10,x10,x14
    1dc0:	00f6d7b3          	srl	x15,x13,x15
    1dc4:	00000413          	addi	x8,x0,0
    1dc8:	a11ff06f          	jal	x0,17d8 <__adddf3+0xa4>
    1dcc:	0135e5b3          	or	x11,x11,x19
    1dd0:	f8059ee3          	bne	x11,x0,1d6c <__adddf3+0x638>
    1dd4:	00000413          	addi	x8,x0,0
    1dd8:	00000793          	addi	x15,x0,0
    1ddc:	1240006f          	jal	x0,1f00 <__adddf3+0x7cc>
    1de0:	00090513          	addi	x10,x18,0
    1de4:	ef0fe0ef          	jal	x1,4d4 <__clzsi2>
    1de8:	01850793          	addi	x15,x10,24
    1dec:	01f00713          	addi	x14,x0,31
    1df0:	f8f756e3          	bge	x14,x15,1d7c <__adddf3+0x648>
    1df4:	ff850513          	addi	x10,x10,-8
    1df8:	00a916b3          	sll	x13,x18,x10
    1dfc:	0487c063          	blt	x15,x8,1e3c <__adddf3+0x708>
    1e00:	40878533          	sub	x10,x15,x8
    1e04:	00150793          	addi	x15,x10,1
    1e08:	f8f75ce3          	bge	x14,x15,1da0 <__adddf3+0x66c>
    1e0c:	fe150513          	addi	x10,x10,-31
    1e10:	02000613          	addi	x12,x0,32
    1e14:	00a6d733          	srl	x14,x13,x10
    1e18:	00000513          	addi	x10,x0,0
    1e1c:	00c78863          	beq	x15,x12,1e2c <__adddf3+0x6f8>
    1e20:	04000513          	addi	x10,x0,64
    1e24:	40f50533          	sub	x10,x10,x15
    1e28:	00a69533          	sll	x10,x13,x10
    1e2c:	00a03533          	sltu	x10,x0,x10
    1e30:	00e56533          	or	x10,x10,x14
    1e34:	00000793          	addi	x15,x0,0
    1e38:	f8dff06f          	jal	x0,1dc4 <__adddf3+0x690>
    1e3c:	40f40433          	sub	x8,x8,x15
    1e40:	ff8007b7          	lui	x15,0xff800
    1e44:	fff78793          	addi	x15,x15,-1 # ff7fffff <_estack+0xfc7fffff>
    1e48:	00f6f7b3          	and	x15,x13,x15
    1e4c:	01d79593          	slli	x11,x15,0x1d
    1e50:	0037d793          	srli	x15,x15,0x3
    1e54:	01441413          	slli	x8,x8,0x14
    1e58:	7ff00737          	lui	x14,0x7ff00
    1e5c:	00c79793          	slli	x15,x15,0xc
    1e60:	00c7d793          	srli	x15,x15,0xc
    1e64:	00e47433          	and	x8,x8,x14
    1e68:	00f46433          	or	x8,x8,x15
    1e6c:	01f49493          	slli	x9,x9,0x1f
    1e70:	009467b3          	or	x15,x8,x9
    1e74:	01c12083          	lw	x1,28(x2)
    1e78:	01812403          	lw	x8,24(x2)
    1e7c:	01412483          	lw	x9,20(x2)
    1e80:	01012903          	lw	x18,16(x2)
    1e84:	00c12983          	lw	x19,12(x2)
    1e88:	00058513          	addi	x10,x11,0
    1e8c:	00078593          	addi	x11,x15,0
    1e90:	02010113          	addi	x2,x2,32
    1e94:	00008067          	jalr	x0,0(x1)
    1e98:	40f40433          	sub	x8,x8,x15
    1e9c:	ff8007b7          	lui	x15,0xff800
    1ea0:	fff78793          	addi	x15,x15,-1 # ff7fffff <_estack+0xfc7fffff>
    1ea4:	00f6f7b3          	and	x15,x13,x15
    1ea8:	00098513          	addi	x10,x19,0
    1eac:	92dff06f          	jal	x0,17d8 <__adddf3+0xa4>
    1eb0:	00070793          	addi	x15,x14,0 # 7ff00000 <_estack+0x7cf00000>
    1eb4:	00060513          	addi	x10,x12,0
    1eb8:	00058413          	addi	x8,x11,0
    1ebc:	91dff06f          	jal	x0,17d8 <__adddf3+0xa4>
    1ec0:	00070793          	addi	x15,x14,0
    1ec4:	00060513          	addi	x10,x12,0
    1ec8:	911ff06f          	jal	x0,17d8 <__adddf3+0xa4>
    1ecc:	00070793          	addi	x15,x14,0
    1ed0:	00060513          	addi	x10,x12,0
    1ed4:	00080413          	addi	x8,x16,0 # 800000 <_sibss+0x7facc4>
    1ed8:	df1ff06f          	jal	x0,1cc8 <__adddf3+0x594>
    1edc:	01d79713          	slli	x14,x15,0x1d
    1ee0:	00355513          	srli	x10,x10,0x3
    1ee4:	7ff00693          	addi	x13,x0,2047
    1ee8:	00a76733          	or	x14,x14,x10
    1eec:	0037d793          	srli	x15,x15,0x3
    1ef0:	02d41463          	bne	x8,x13,1f18 <__adddf3+0x7e4>
    1ef4:	00f76733          	or	x14,x14,x15
    1ef8:	000807b7          	lui	x15,0x80
    1efc:	9a070ae3          	beq	x14,x0,18b0 <__adddf3+0x17c>
    1f00:	00000493          	addi	x9,x0,0
    1f04:	f51ff06f          	jal	x0,1e54 <__adddf3+0x720>
    1f08:	00000493          	addi	x9,x0,0
    1f0c:	7ff00413          	addi	x8,x0,2047
    1f10:	000807b7          	lui	x15,0x80
    1f14:	f41ff06f          	jal	x0,1e54 <__adddf3+0x720>
    1f18:	00070593          	addi	x11,x14,0
    1f1c:	f39ff06f          	jal	x0,1e54 <__adddf3+0x720>

00001f20 <__divdf3>:
    1f20:	fb010113          	addi	x2,x2,-80
    1f24:	05212023          	sw	x18,64(x2)
    1f28:	0145d913          	srli	x18,x11,0x14
    1f2c:	04812423          	sw	x8,72(x2)
    1f30:	03312e23          	sw	x19,60(x2)
    1f34:	03412c23          	sw	x20,56(x2)
    1f38:	03512a23          	sw	x21,52(x2)
    1f3c:	03812423          	sw	x24,40(x2)
    1f40:	00c59413          	slli	x8,x11,0xc
    1f44:	04112623          	sw	x1,76(x2)
    1f48:	04912223          	sw	x9,68(x2)
    1f4c:	03612823          	sw	x22,48(x2)
    1f50:	03712623          	sw	x23,44(x2)
    1f54:	03912223          	sw	x25,36(x2)
    1f58:	03a12023          	sw	x26,32(x2)
    1f5c:	01b12e23          	sw	x27,28(x2)
    1f60:	7ff97913          	andi	x18,x18,2047
    1f64:	00050993          	addi	x19,x10,0
    1f68:	00060c13          	addi	x24,x12,0
    1f6c:	00068a13          	addi	x20,x13,0
    1f70:	00c45413          	srli	x8,x8,0xc
    1f74:	01f5da93          	srli	x21,x11,0x1f
    1f78:	0a090263          	beq	x18,x0,201c <__divdf3+0xfc>
    1f7c:	7ff00793          	addi	x15,x0,2047
    1f80:	10f90263          	beq	x18,x15,2084 <__divdf3+0x164>
    1f84:	01d55b13          	srli	x22,x10,0x1d
    1f88:	00341413          	slli	x8,x8,0x3
    1f8c:	008b6b33          	or	x22,x22,x8
    1f90:	008007b7          	lui	x15,0x800
    1f94:	00fb6b33          	or	x22,x22,x15
    1f98:	00351493          	slli	x9,x10,0x3
    1f9c:	c0190913          	addi	x18,x18,-1023
    1fa0:	00000b93          	addi	x23,x0,0
    1fa4:	014a5713          	srli	x14,x20,0x14
    1fa8:	00ca1413          	slli	x8,x20,0xc
    1fac:	7ff77713          	andi	x14,x14,2047
    1fb0:	00c45413          	srli	x8,x8,0xc
    1fb4:	01fa5a13          	srli	x20,x20,0x1f
    1fb8:	10070463          	beq	x14,x0,20c0 <__divdf3+0x1a0>
    1fbc:	7ff00793          	addi	x15,x0,2047
    1fc0:	16f70863          	beq	x14,x15,2130 <__divdf3+0x210>
    1fc4:	00341413          	slli	x8,x8,0x3
    1fc8:	01dc5793          	srli	x15,x24,0x1d
    1fcc:	0087e7b3          	or	x15,x15,x8
    1fd0:	00800437          	lui	x8,0x800
    1fd4:	0087e433          	or	x8,x15,x8
    1fd8:	003c1693          	slli	x13,x24,0x3
    1fdc:	c0170713          	addi	x14,x14,-1023
    1fe0:	00000613          	addi	x12,x0,0
    1fe4:	002b9793          	slli	x15,x23,0x2
    1fe8:	00c7e7b3          	or	x15,x15,x12
    1fec:	40e90933          	sub	x18,x18,x14
    1ff0:	fff78793          	addi	x15,x15,-1 # 7fffff <_sibss+0x7facc3>
    1ff4:	00e00713          	addi	x14,x0,14
    1ff8:	014ac9b3          	xor	x19,x21,x20
    1ffc:	18f76e63          	bltu	x14,x15,2198 <__divdf3+0x278>
    2000:	00003717          	auipc	x14,0x3
    2004:	28870713          	addi	x14,x14,648 # 5288 <__pow_log_data+0x1048>
    2008:	00279793          	slli	x15,x15,0x2
    200c:	00e787b3          	add	x15,x15,x14
    2010:	0007a783          	lw	x15,0(x15)
    2014:	00e787b3          	add	x15,x15,x14
    2018:	00078067          	jalr	x0,0(x15)
    201c:	00a46b33          	or	x22,x8,x10
    2020:	080b0063          	beq	x22,x0,20a0 <__divdf3+0x180>
    2024:	02040e63          	beq	x8,x0,2060 <__divdf3+0x140>
    2028:	00040513          	addi	x10,x8,0 # 800000 <_sibss+0x7facc4>
    202c:	ca8fe0ef          	jal	x1,4d4 <__clzsi2>
    2030:	ff550793          	addi	x15,x10,-11
    2034:	01d00b13          	addi	x22,x0,29
    2038:	ff850713          	addi	x14,x10,-8
    203c:	40fb0b33          	sub	x22,x22,x15
    2040:	00e41433          	sll	x8,x8,x14
    2044:	0169db33          	srl	x22,x19,x22
    2048:	008b6b33          	or	x22,x22,x8
    204c:	00e99433          	sll	x8,x19,x14
    2050:	c0d00913          	addi	x18,x0,-1011
    2054:	40a90933          	sub	x18,x18,x10
    2058:	00040493          	addi	x9,x8,0
    205c:	f45ff06f          	jal	x0,1fa0 <__divdf3+0x80>
    2060:	c74fe0ef          	jal	x1,4d4 <__clzsi2>
    2064:	00050b13          	addi	x22,x10,0
    2068:	015b0793          	addi	x15,x22,21
    206c:	01c00713          	addi	x14,x0,28
    2070:	02050513          	addi	x10,x10,32
    2074:	fcf750e3          	bge	x14,x15,2034 <__divdf3+0x114>
    2078:	ff8b0b13          	addi	x22,x22,-8
    207c:	01699b33          	sll	x22,x19,x22
    2080:	fd1ff06f          	jal	x0,2050 <__divdf3+0x130>
    2084:	00a46b33          	or	x22,x8,x10
    2088:	020b0463          	beq	x22,x0,20b0 <__divdf3+0x190>
    208c:	00050493          	addi	x9,x10,0
    2090:	00040b13          	addi	x22,x8,0
    2094:	7ff00913          	addi	x18,x0,2047
    2098:	00300b93          	addi	x23,x0,3
    209c:	f09ff06f          	jal	x0,1fa4 <__divdf3+0x84>
    20a0:	00000493          	addi	x9,x0,0
    20a4:	00000913          	addi	x18,x0,0
    20a8:	00100b93          	addi	x23,x0,1
    20ac:	ef9ff06f          	jal	x0,1fa4 <__divdf3+0x84>
    20b0:	00000493          	addi	x9,x0,0
    20b4:	7ff00913          	addi	x18,x0,2047
    20b8:	00200b93          	addi	x23,x0,2
    20bc:	ee9ff06f          	jal	x0,1fa4 <__divdf3+0x84>
    20c0:	018466b3          	or	x13,x8,x24
    20c4:	08068263          	beq	x13,x0,2148 <__divdf3+0x228>
    20c8:	04040063          	beq	x8,x0,2108 <__divdf3+0x1e8>
    20cc:	00040513          	addi	x10,x8,0
    20d0:	c04fe0ef          	jal	x1,4d4 <__clzsi2>
    20d4:	ff550713          	addi	x14,x10,-11
    20d8:	01d00793          	addi	x15,x0,29
    20dc:	ff850693          	addi	x13,x10,-8
    20e0:	40e787b3          	sub	x15,x15,x14
    20e4:	00d41433          	sll	x8,x8,x13
    20e8:	00fc57b3          	srl	x15,x24,x15
    20ec:	0087e7b3          	or	x15,x15,x8
    20f0:	00dc1433          	sll	x8,x24,x13
    20f4:	c0d00713          	addi	x14,x0,-1011
    20f8:	00040693          	addi	x13,x8,0
    20fc:	40a70733          	sub	x14,x14,x10
    2100:	00078413          	addi	x8,x15,0
    2104:	eddff06f          	jal	x0,1fe0 <__divdf3+0xc0>
    2108:	000c0513          	addi	x10,x24,0
    210c:	bc8fe0ef          	jal	x1,4d4 <__clzsi2>
    2110:	00050793          	addi	x15,x10,0
    2114:	01578713          	addi	x14,x15,21
    2118:	01c00693          	addi	x13,x0,28
    211c:	02050513          	addi	x10,x10,32
    2120:	fae6dce3          	bge	x13,x14,20d8 <__divdf3+0x1b8>
    2124:	ff878793          	addi	x15,x15,-8
    2128:	00fc17b3          	sll	x15,x24,x15
    212c:	fc9ff06f          	jal	x0,20f4 <__divdf3+0x1d4>
    2130:	018466b3          	or	x13,x8,x24
    2134:	02068263          	beq	x13,x0,2158 <__divdf3+0x238>
    2138:	000c0693          	addi	x13,x24,0
    213c:	7ff00713          	addi	x14,x0,2047
    2140:	00300613          	addi	x12,x0,3
    2144:	ea1ff06f          	jal	x0,1fe4 <__divdf3+0xc4>
    2148:	00000413          	addi	x8,x0,0
    214c:	00000713          	addi	x14,x0,0
    2150:	00100613          	addi	x12,x0,1
    2154:	e91ff06f          	jal	x0,1fe4 <__divdf3+0xc4>
    2158:	00000413          	addi	x8,x0,0
    215c:	7ff00713          	addi	x14,x0,2047
    2160:	00200613          	addi	x12,x0,2
    2164:	e81ff06f          	jal	x0,1fe4 <__divdf3+0xc4>
    2168:	000a8993          	addi	x19,x21,0
    216c:	000b0413          	addi	x8,x22,0
    2170:	00048693          	addi	x13,x9,0
    2174:	00200793          	addi	x15,x0,2
    2178:	54fb8c63          	beq	x23,x15,26d0 <__divdf3+0x7b0>
    217c:	00300793          	addi	x15,x0,3
    2180:	52fb8e63          	beq	x23,x15,26bc <__divdf3+0x79c>
    2184:	00100793          	addi	x15,x0,1
    2188:	3afb9463          	bne	x23,x15,2530 <__divdf3+0x610>
    218c:	00000413          	addi	x8,x0,0
    2190:	00000713          	addi	x14,x0,0
    2194:	4ec0006f          	jal	x0,2680 <__divdf3+0x760>
    2198:	01646663          	bltu	x8,x22,21a4 <__divdf3+0x284>
    219c:	448b1863          	bne	x22,x8,25ec <__divdf3+0x6cc>
    21a0:	44d4e663          	bltu	x9,x13,25ec <__divdf3+0x6cc>
    21a4:	01fb1713          	slli	x14,x22,0x1f
    21a8:	0014d793          	srli	x15,x9,0x1
    21ac:	01f49d13          	slli	x26,x9,0x1f
    21b0:	001b5b13          	srli	x22,x22,0x1
    21b4:	00f764b3          	or	x9,x14,x15
    21b8:	0186dc13          	srli	x24,x13,0x18
    21bc:	00841413          	slli	x8,x8,0x8
    21c0:	01045793          	srli	x15,x8,0x10
    21c4:	008c6c33          	or	x24,x24,x8
    21c8:	00078593          	addi	x11,x15,0
    21cc:	000b0513          	addi	x10,x22,0
    21d0:	010c1a93          	slli	x21,x24,0x10
    21d4:	00f12623          	sw	x15,12(x2)
    21d8:	00869c93          	slli	x25,x13,0x8
    21dc:	010ada93          	srli	x21,x21,0x10
    21e0:	610010ef          	jal	x1,37f0 <__hidden___udivsi3>
    21e4:	00050593          	addi	x11,x10,0
    21e8:	00050b93          	addi	x23,x10,0
    21ec:	000a8513          	addi	x10,x21,0
    21f0:	ac0fe0ef          	jal	x1,4b0 <__mulsi3>
    21f4:	00c12583          	lw	x11,12(x2)
    21f8:	00050413          	addi	x8,x10,0
    21fc:	000b0513          	addi	x10,x22,0
    2200:	638010ef          	jal	x1,3838 <__umodsi3>
    2204:	01051513          	slli	x10,x10,0x10
    2208:	0104d793          	srli	x15,x9,0x10
    220c:	00a7e7b3          	or	x15,x15,x10
    2210:	000b8b13          	addi	x22,x23,0
    2214:	0087fe63          	bgeu	x15,x8,2230 <__divdf3+0x310>
    2218:	00fc07b3          	add	x15,x24,x15
    221c:	fffb8b13          	addi	x22,x23,-1
    2220:	0187e863          	bltu	x15,x24,2230 <__divdf3+0x310>
    2224:	0087f663          	bgeu	x15,x8,2230 <__divdf3+0x310>
    2228:	ffeb8b13          	addi	x22,x23,-2
    222c:	018787b3          	add	x15,x15,x24
    2230:	00c12583          	lw	x11,12(x2)
    2234:	40878433          	sub	x8,x15,x8
    2238:	00040513          	addi	x10,x8,0
    223c:	5b4010ef          	jal	x1,37f0 <__hidden___udivsi3>
    2240:	00050593          	addi	x11,x10,0
    2244:	00050d93          	addi	x27,x10,0
    2248:	000a8513          	addi	x10,x21,0
    224c:	a64fe0ef          	jal	x1,4b0 <__mulsi3>
    2250:	00c12583          	lw	x11,12(x2)
    2254:	00050b93          	addi	x23,x10,0
    2258:	00040513          	addi	x10,x8,0
    225c:	5dc010ef          	jal	x1,3838 <__umodsi3>
    2260:	01049793          	slli	x15,x9,0x10
    2264:	01051513          	slli	x10,x10,0x10
    2268:	0107d793          	srli	x15,x15,0x10
    226c:	00a7e7b3          	or	x15,x15,x10
    2270:	000d8713          	addi	x14,x27,0
    2274:	0177fe63          	bgeu	x15,x23,2290 <__divdf3+0x370>
    2278:	00fc07b3          	add	x15,x24,x15
    227c:	fffd8713          	addi	x14,x27,-1
    2280:	0187e863          	bltu	x15,x24,2290 <__divdf3+0x370>
    2284:	0177f663          	bgeu	x15,x23,2290 <__divdf3+0x370>
    2288:	ffed8713          	addi	x14,x27,-2
    228c:	018787b3          	add	x15,x15,x24
    2290:	010b1813          	slli	x16,x22,0x10
    2294:	00010eb7          	lui	x29,0x10
    2298:	00e86833          	or	x16,x16,x14
    229c:	fffe8b13          	addi	x22,x29,-1 # ffff <_sibss+0xacc3>
    22a0:	016878b3          	and	x17,x16,x22
    22a4:	016cfb33          	and	x22,x25,x22
    22a8:	417787b3          	sub	x15,x15,x23
    22ac:	01085713          	srli	x14,x16,0x10
    22b0:	010cdb93          	srli	x23,x25,0x10
    22b4:	00088513          	addi	x10,x17,0
    22b8:	000b0593          	addi	x11,x22,0
    22bc:	9f4fe0ef          	jal	x1,4b0 <__mulsi3>
    22c0:	00050313          	addi	x6,x10,0
    22c4:	000b8593          	addi	x11,x23,0
    22c8:	00088513          	addi	x10,x17,0
    22cc:	9e4fe0ef          	jal	x1,4b0 <__mulsi3>
    22d0:	00050893          	addi	x17,x10,0
    22d4:	000b0593          	addi	x11,x22,0
    22d8:	00070513          	addi	x10,x14,0
    22dc:	9d4fe0ef          	jal	x1,4b0 <__mulsi3>
    22e0:	00050e13          	addi	x28,x10,0
    22e4:	000b8593          	addi	x11,x23,0
    22e8:	00070513          	addi	x10,x14,0
    22ec:	9c4fe0ef          	jal	x1,4b0 <__mulsi3>
    22f0:	01035713          	srli	x14,x6,0x10
    22f4:	01c888b3          	add	x17,x17,x28
    22f8:	01170733          	add	x14,x14,x17
    22fc:	00050613          	addi	x12,x10,0
    2300:	01c77463          	bgeu	x14,x28,2308 <__divdf3+0x3e8>
    2304:	01d50633          	add	x12,x10,x29
    2308:	01075693          	srli	x13,x14,0x10
    230c:	00c686b3          	add	x13,x13,x12
    2310:	00010637          	lui	x12,0x10
    2314:	fff60613          	addi	x12,x12,-1 # ffff <_sibss+0xacc3>
    2318:	00c77733          	and	x14,x14,x12
    231c:	01071713          	slli	x14,x14,0x10
    2320:	00c37333          	and	x6,x6,x12
    2324:	00670733          	add	x14,x14,x6
    2328:	00d7e863          	bltu	x15,x13,2338 <__divdf3+0x418>
    232c:	00080413          	addi	x8,x16,0
    2330:	04d79863          	bne	x15,x13,2380 <__divdf3+0x460>
    2334:	04ed7663          	bgeu	x26,x14,2380 <__divdf3+0x460>
    2338:	019d0633          	add	x12,x26,x25
    233c:	01a635b3          	sltu	x11,x12,x26
    2340:	01858533          	add	x10,x11,x24
    2344:	00a787b3          	add	x15,x15,x10
    2348:	fff80413          	addi	x8,x16,-1
    234c:	00060d13          	addi	x26,x12,0
    2350:	00fc6663          	bltu	x24,x15,235c <__divdf3+0x43c>
    2354:	02fc1663          	bne	x24,x15,2380 <__divdf3+0x460>
    2358:	02059463          	bne	x11,x0,2380 <__divdf3+0x460>
    235c:	00d7e663          	bltu	x15,x13,2368 <__divdf3+0x448>
    2360:	02f69063          	bne	x13,x15,2380 <__divdf3+0x460>
    2364:	00e67e63          	bgeu	x12,x14,2380 <__divdf3+0x460>
    2368:	00cc8633          	add	x12,x25,x12
    236c:	00060d13          	addi	x26,x12,0
    2370:	01963633          	sltu	x12,x12,x25
    2374:	01860633          	add	x12,x12,x24
    2378:	ffe80413          	addi	x8,x16,-2
    237c:	00c787b3          	add	x15,x15,x12
    2380:	40ed0db3          	sub	x27,x26,x14
    2384:	40d787b3          	sub	x15,x15,x13
    2388:	01bd3d33          	sltu	x26,x26,x27
    238c:	41a784b3          	sub	x9,x15,x26
    2390:	fff00693          	addi	x13,x0,-1
    2394:	189c0e63          	beq	x24,x9,2530 <__divdf3+0x610>
    2398:	00c12583          	lw	x11,12(x2)
    239c:	00048513          	addi	x10,x9,0
    23a0:	450010ef          	jal	x1,37f0 <__hidden___udivsi3>
    23a4:	00050593          	addi	x11,x10,0
    23a8:	00050a13          	addi	x20,x10,0
    23ac:	000a8513          	addi	x10,x21,0
    23b0:	900fe0ef          	jal	x1,4b0 <__mulsi3>
    23b4:	00c12583          	lw	x11,12(x2)
    23b8:	00050d13          	addi	x26,x10,0
    23bc:	00048513          	addi	x10,x9,0
    23c0:	478010ef          	jal	x1,3838 <__umodsi3>
    23c4:	01051513          	slli	x10,x10,0x10
    23c8:	010dd693          	srli	x13,x27,0x10
    23cc:	00a6e6b3          	or	x13,x13,x10
    23d0:	000a0493          	addi	x9,x20,0
    23d4:	01a6fe63          	bgeu	x13,x26,23f0 <__divdf3+0x4d0>
    23d8:	00dc06b3          	add	x13,x24,x13
    23dc:	fffa0493          	addi	x9,x20,-1
    23e0:	0186e863          	bltu	x13,x24,23f0 <__divdf3+0x4d0>
    23e4:	01a6f663          	bgeu	x13,x26,23f0 <__divdf3+0x4d0>
    23e8:	ffea0493          	addi	x9,x20,-2
    23ec:	018686b3          	add	x13,x13,x24
    23f0:	00c12583          	lw	x11,12(x2)
    23f4:	41a68a33          	sub	x20,x13,x26
    23f8:	000a0513          	addi	x10,x20,0
    23fc:	3f4010ef          	jal	x1,37f0 <__hidden___udivsi3>
    2400:	00050593          	addi	x11,x10,0
    2404:	00050d13          	addi	x26,x10,0
    2408:	000a8513          	addi	x10,x21,0
    240c:	8a4fe0ef          	jal	x1,4b0 <__mulsi3>
    2410:	00c12583          	lw	x11,12(x2)
    2414:	00050a93          	addi	x21,x10,0
    2418:	000a0513          	addi	x10,x20,0
    241c:	41c010ef          	jal	x1,3838 <__umodsi3>
    2420:	010d9793          	slli	x15,x27,0x10
    2424:	01051513          	slli	x10,x10,0x10
    2428:	0107d793          	srli	x15,x15,0x10
    242c:	00a7e7b3          	or	x15,x15,x10
    2430:	000d0713          	addi	x14,x26,0
    2434:	0157fe63          	bgeu	x15,x21,2450 <__divdf3+0x530>
    2438:	00fc07b3          	add	x15,x24,x15
    243c:	fffd0713          	addi	x14,x26,-1
    2440:	0187e863          	bltu	x15,x24,2450 <__divdf3+0x530>
    2444:	0157f663          	bgeu	x15,x21,2450 <__divdf3+0x530>
    2448:	ffed0713          	addi	x14,x26,-2
    244c:	018787b3          	add	x15,x15,x24
    2450:	01049813          	slli	x16,x9,0x10
    2454:	00e86833          	or	x16,x16,x14
    2458:	01081893          	slli	x17,x16,0x10
    245c:	0108d893          	srli	x17,x17,0x10
    2460:	415787b3          	sub	x15,x15,x21
    2464:	01085713          	srli	x14,x16,0x10
    2468:	00088513          	addi	x10,x17,0
    246c:	000b0593          	addi	x11,x22,0
    2470:	840fe0ef          	jal	x1,4b0 <__mulsi3>
    2474:	00050313          	addi	x6,x10,0
    2478:	000b8593          	addi	x11,x23,0
    247c:	00088513          	addi	x10,x17,0
    2480:	830fe0ef          	jal	x1,4b0 <__mulsi3>
    2484:	00050893          	addi	x17,x10,0
    2488:	000b0593          	addi	x11,x22,0
    248c:	00070513          	addi	x10,x14,0
    2490:	820fe0ef          	jal	x1,4b0 <__mulsi3>
    2494:	00050e13          	addi	x28,x10,0
    2498:	000b8593          	addi	x11,x23,0
    249c:	00070513          	addi	x10,x14,0
    24a0:	810fe0ef          	jal	x1,4b0 <__mulsi3>
    24a4:	01035713          	srli	x14,x6,0x10
    24a8:	01c888b3          	add	x17,x17,x28
    24ac:	01170733          	add	x14,x14,x17
    24b0:	00050693          	addi	x13,x10,0
    24b4:	01c77663          	bgeu	x14,x28,24c0 <__divdf3+0x5a0>
    24b8:	00010637          	lui	x12,0x10
    24bc:	00c506b3          	add	x13,x10,x12
    24c0:	01075613          	srli	x12,x14,0x10
    24c4:	00d60633          	add	x12,x12,x13
    24c8:	000106b7          	lui	x13,0x10
    24cc:	fff68693          	addi	x13,x13,-1 # ffff <_sibss+0xacc3>
    24d0:	00d77733          	and	x14,x14,x13
    24d4:	01071713          	slli	x14,x14,0x10
    24d8:	00d37333          	and	x6,x6,x13
    24dc:	00670733          	add	x14,x14,x6
    24e0:	00c7e863          	bltu	x15,x12,24f0 <__divdf3+0x5d0>
    24e4:	00080693          	addi	x13,x16,0
    24e8:	04c79263          	bne	x15,x12,252c <__divdf3+0x60c>
    24ec:	04070263          	beq	x14,x0,2530 <__divdf3+0x610>
    24f0:	00fc07b3          	add	x15,x24,x15
    24f4:	fff80693          	addi	x13,x16,-1
    24f8:	00078593          	addi	x11,x15,0
    24fc:	0387e463          	bltu	x15,x24,2524 <__divdf3+0x604>
    2500:	00c7e663          	bltu	x15,x12,250c <__divdf3+0x5ec>
    2504:	02c79463          	bne	x15,x12,252c <__divdf3+0x60c>
    2508:	02ecf063          	bgeu	x25,x14,2528 <__divdf3+0x608>
    250c:	001c9513          	slli	x10,x25,0x1
    2510:	019535b3          	sltu	x11,x10,x25
    2514:	018585b3          	add	x11,x11,x24
    2518:	ffe80693          	addi	x13,x16,-2
    251c:	00b785b3          	add	x11,x15,x11
    2520:	00050c93          	addi	x25,x10,0
    2524:	00c59463          	bne	x11,x12,252c <__divdf3+0x60c>
    2528:	01970463          	beq	x14,x25,2530 <__divdf3+0x610>
    252c:	0016e693          	ori	x13,x13,1
    2530:	3ff90793          	addi	x15,x18,1023
    2534:	0cf05863          	bge	x0,x15,2604 <__divdf3+0x6e4>
    2538:	0076f713          	andi	x14,x13,7
    253c:	02070063          	beq	x14,x0,255c <__divdf3+0x63c>
    2540:	00f6f713          	andi	x14,x13,15
    2544:	00400613          	addi	x12,x0,4
    2548:	00c70a63          	beq	x14,x12,255c <__divdf3+0x63c>
    254c:	00468713          	addi	x14,x13,4
    2550:	00d73633          	sltu	x12,x14,x13
    2554:	00c40433          	add	x8,x8,x12
    2558:	00070693          	addi	x13,x14,0
    255c:	01000737          	lui	x14,0x1000
    2560:	00e47733          	and	x14,x8,x14
    2564:	00070a63          	beq	x14,x0,2578 <__divdf3+0x658>
    2568:	ff0007b7          	lui	x15,0xff000
    256c:	fff78793          	addi	x15,x15,-1 # feffffff <_estack+0xfbffffff>
    2570:	00f47433          	and	x8,x8,x15
    2574:	40090793          	addi	x15,x18,1024
    2578:	7fe00713          	addi	x14,x0,2046
    257c:	14f74a63          	blt	x14,x15,26d0 <__divdf3+0x7b0>
    2580:	01d41713          	slli	x14,x8,0x1d
    2584:	0036d693          	srli	x13,x13,0x3
    2588:	00d76733          	or	x14,x14,x13
    258c:	00345413          	srli	x8,x8,0x3
    2590:	00c41413          	slli	x8,x8,0xc
    2594:	00c45413          	srli	x8,x8,0xc
    2598:	01479793          	slli	x15,x15,0x14
    259c:	04c12083          	lw	x1,76(x2)
    25a0:	0087e7b3          	or	x15,x15,x8
    25a4:	04812403          	lw	x8,72(x2)
    25a8:	01f99993          	slli	x19,x19,0x1f
    25ac:	0137e6b3          	or	x13,x15,x19
    25b0:	04412483          	lw	x9,68(x2)
    25b4:	04012903          	lw	x18,64(x2)
    25b8:	03c12983          	lw	x19,60(x2)
    25bc:	03812a03          	lw	x20,56(x2)
    25c0:	03412a83          	lw	x21,52(x2)
    25c4:	03012b03          	lw	x22,48(x2)
    25c8:	02c12b83          	lw	x23,44(x2)
    25cc:	02812c03          	lw	x24,40(x2)
    25d0:	02412c83          	lw	x25,36(x2)
    25d4:	02012d03          	lw	x26,32(x2)
    25d8:	01c12d83          	lw	x27,28(x2)
    25dc:	00070513          	addi	x10,x14,0 # 1000000 <_sibss+0xffacc4>
    25e0:	00068593          	addi	x11,x13,0
    25e4:	05010113          	addi	x2,x2,80
    25e8:	00008067          	jalr	x0,0(x1)
    25ec:	fff90913          	addi	x18,x18,-1
    25f0:	00000d13          	addi	x26,x0,0
    25f4:	bc5ff06f          	jal	x0,21b8 <__divdf3+0x298>
    25f8:	000a0993          	addi	x19,x20,0
    25fc:	00060b93          	addi	x23,x12,0 # 10000 <_sibss+0xacc4>
    2600:	b75ff06f          	jal	x0,2174 <__divdf3+0x254>
    2604:	00100613          	addi	x12,x0,1
    2608:	00078c63          	beq	x15,x0,2620 <__divdf3+0x700>
    260c:	40f60633          	sub	x12,x12,x15
    2610:	03800713          	addi	x14,x0,56
    2614:	b6c74ce3          	blt	x14,x12,218c <__divdf3+0x26c>
    2618:	01f00713          	addi	x14,x0,31
    261c:	06c74663          	blt	x14,x12,2688 <__divdf3+0x768>
    2620:	41e90913          	addi	x18,x18,1054
    2624:	00c6d7b3          	srl	x15,x13,x12
    2628:	012696b3          	sll	x13,x13,x18
    262c:	00d036b3          	sltu	x13,x0,x13
    2630:	01241933          	sll	x18,x8,x18
    2634:	0126e6b3          	or	x13,x13,x18
    2638:	00d7e7b3          	or	x15,x15,x13
    263c:	00c45433          	srl	x8,x8,x12
    2640:	0077f713          	andi	x14,x15,7
    2644:	02070063          	beq	x14,x0,2664 <__divdf3+0x744>
    2648:	00f7f713          	andi	x14,x15,15
    264c:	00400693          	addi	x13,x0,4
    2650:	00d70a63          	beq	x14,x13,2664 <__divdf3+0x744>
    2654:	00478713          	addi	x14,x15,4
    2658:	00f736b3          	sltu	x13,x14,x15
    265c:	00d40433          	add	x8,x8,x13
    2660:	00070793          	addi	x15,x14,0
    2664:	00800737          	lui	x14,0x800
    2668:	00e47733          	and	x14,x8,x14
    266c:	06071a63          	bne	x14,x0,26e0 <__divdf3+0x7c0>
    2670:	01d41713          	slli	x14,x8,0x1d
    2674:	0037d793          	srli	x15,x15,0x3
    2678:	00f76733          	or	x14,x14,x15
    267c:	00345413          	srli	x8,x8,0x3
    2680:	00000793          	addi	x15,x0,0
    2684:	f0dff06f          	jal	x0,2590 <__divdf3+0x670>
    2688:	fe100713          	addi	x14,x0,-31
    268c:	40f707b3          	sub	x15,x14,x15
    2690:	02000593          	addi	x11,x0,32
    2694:	00f457b3          	srl	x15,x8,x15
    2698:	00000713          	addi	x14,x0,0
    269c:	00b60663          	beq	x12,x11,26a8 <__divdf3+0x788>
    26a0:	43e90913          	addi	x18,x18,1086
    26a4:	01241733          	sll	x14,x8,x18
    26a8:	00d76733          	or	x14,x14,x13
    26ac:	00e03733          	sltu	x14,x0,x14
    26b0:	00e7e7b3          	or	x15,x15,x14
    26b4:	00000413          	addi	x8,x0,0
    26b8:	f89ff06f          	jal	x0,2640 <__divdf3+0x720>
    26bc:	00080437          	lui	x8,0x80
    26c0:	00000713          	addi	x14,x0,0
    26c4:	7ff00793          	addi	x15,x0,2047
    26c8:	00000993          	addi	x19,x0,0
    26cc:	ec5ff06f          	jal	x0,2590 <__divdf3+0x670>
    26d0:	00000413          	addi	x8,x0,0
    26d4:	00000713          	addi	x14,x0,0
    26d8:	7ff00793          	addi	x15,x0,2047
    26dc:	eb5ff06f          	jal	x0,2590 <__divdf3+0x670>
    26e0:	00000413          	addi	x8,x0,0
    26e4:	00000713          	addi	x14,x0,0
    26e8:	00100793          	addi	x15,x0,1
    26ec:	ea5ff06f          	jal	x0,2590 <__divdf3+0x670>

000026f0 <__eqdf2>:
    26f0:	0145d813          	srli	x16,x11,0x14
    26f4:	00100737          	lui	x14,0x100
    26f8:	fff70713          	addi	x14,x14,-1 # fffff <_sibss+0xfacc3>
    26fc:	0146d313          	srli	x6,x13,0x14
    2700:	7ff87813          	andi	x16,x16,2047
    2704:	7ff00e13          	addi	x28,x0,2047
    2708:	00b777b3          	and	x15,x14,x11
    270c:	00050893          	addi	x17,x10,0
    2710:	00d77733          	and	x14,x14,x13
    2714:	01f5d593          	srli	x11,x11,0x1f
    2718:	7ff37313          	andi	x6,x6,2047
    271c:	01f6d693          	srli	x13,x13,0x1f
    2720:	00100513          	addi	x10,x0,1
    2724:	01c80663          	beq	x16,x28,2730 <__eqdf2+0x40>
    2728:	03c31463          	bne	x6,x28,2750 <__eqdf2+0x60>
    272c:	00008067          	jalr	x0,0(x1)
    2730:	05031463          	bne	x6,x16,2778 <__eqdf2+0x88>
    2734:	00e7e7b3          	or	x15,x15,x14
    2738:	00c7e7b3          	or	x15,x15,x12
    273c:	0117e7b3          	or	x15,x15,x17
    2740:	02079c63          	bne	x15,x0,2778 <__eqdf2+0x88>
    2744:	40d585b3          	sub	x11,x11,x13
    2748:	00b03533          	sltu	x10,x0,x11
    274c:	00008067          	jalr	x0,0(x1)
    2750:	00100513          	addi	x10,x0,1
    2754:	02681263          	bne	x16,x6,2778 <__eqdf2+0x88>
    2758:	02e79063          	bne	x15,x14,2778 <__eqdf2+0x88>
    275c:	00c89e63          	bne	x17,x12,2778 <__eqdf2+0x88>
    2760:	00d58a63          	beq	x11,x13,2774 <__eqdf2+0x84>
    2764:	00081a63          	bne	x16,x0,2778 <__eqdf2+0x88>
    2768:	0117e7b3          	or	x15,x15,x17
    276c:	00f03533          	sltu	x10,x0,x15
    2770:	00008067          	jalr	x0,0(x1)
    2774:	00000513          	addi	x10,x0,0
    2778:	00008067          	jalr	x0,0(x1)

0000277c <__ledf2>:
    277c:	0146d793          	srli	x15,x13,0x14
    2780:	0145d313          	srli	x6,x11,0x14
    2784:	00100737          	lui	x14,0x100
    2788:	fff70713          	addi	x14,x14,-1 # fffff <_sibss+0xfacc3>
    278c:	00050813          	addi	x16,x10,0
    2790:	00050e13          	addi	x28,x10,0
    2794:	7ff37313          	andi	x6,x6,2047
    2798:	7ff7f513          	andi	x10,x15,2047
    279c:	7ff00793          	addi	x15,x0,2047
    27a0:	00b778b3          	and	x17,x14,x11
    27a4:	00060e93          	addi	x29,x12,0
    27a8:	00d77733          	and	x14,x14,x13
    27ac:	01f5d593          	srli	x11,x11,0x1f
    27b0:	01f6d693          	srli	x13,x13,0x1f
    27b4:	02f31c63          	bne	x6,x15,27ec <__ledf2+0x70>
    27b8:	0108e8b3          	or	x17,x17,x16
    27bc:	0c089463          	bne	x17,x0,2884 <__ledf2+0x108>
    27c0:	00650a63          	beq	x10,x6,27d4 <__ledf2+0x58>
    27c4:	00100513          	addi	x10,x0,1
    27c8:	0a058c63          	beq	x11,x0,2880 <__ledf2+0x104>
    27cc:	fff00513          	addi	x10,x0,-1
    27d0:	00008067          	jalr	x0,0(x1)
    27d4:	00c76733          	or	x14,x14,x12
    27d8:	00200513          	addi	x10,x0,2
    27dc:	0a071263          	bne	x14,x0,2880 <__ledf2+0x104>
    27e0:	fed592e3          	bne	x11,x13,27c4 <__ledf2+0x48>
    27e4:	00000513          	addi	x10,x0,0
    27e8:	00008067          	jalr	x0,0(x1)
    27ec:	04f51063          	bne	x10,x15,282c <__ledf2+0xb0>
    27f0:	00c76733          	or	x14,x14,x12
    27f4:	00200513          	addi	x10,x0,2
    27f8:	08071463          	bne	x14,x0,2880 <__ledf2+0x104>
    27fc:	00030c63          	beq	x6,x0,2814 <__ledf2+0x98>
    2800:	fcd592e3          	bne	x11,x13,27c4 <__ledf2+0x48>
    2804:	fff00513          	addi	x10,x0,-1
    2808:	06058c63          	beq	x11,x0,2880 <__ledf2+0x104>
    280c:	00058513          	addi	x10,x11,0
    2810:	00008067          	jalr	x0,0(x1)
    2814:	0108e8b3          	or	x17,x17,x16
    2818:	fe0894e3          	bne	x17,x0,2800 <__ledf2+0x84>
    281c:	fff00513          	addi	x10,x0,-1
    2820:	06068063          	beq	x13,x0,2880 <__ledf2+0x104>
    2824:	00068513          	addi	x10,x13,0
    2828:	00008067          	jalr	x0,0(x1)
    282c:	02030663          	beq	x6,x0,2858 <__ledf2+0xdc>
    2830:	f8050ae3          	beq	x10,x0,27c4 <__ledf2+0x48>
    2834:	f8d598e3          	bne	x11,x13,27c4 <__ledf2+0x48>
    2838:	f86546e3          	blt	x10,x6,27c4 <__ledf2+0x48>
    283c:	fca344e3          	blt	x6,x10,2804 <__ledf2+0x88>
    2840:	f91762e3          	bltu	x14,x17,27c4 <__ledf2+0x48>
    2844:	fce890e3          	bne	x17,x14,2804 <__ledf2+0x88>
    2848:	f7ceeee3          	bltu	x29,x28,27c4 <__ledf2+0x48>
    284c:	00000513          	addi	x10,x0,0
    2850:	03de7863          	bgeu	x28,x29,2880 <__ledf2+0x104>
    2854:	fb1ff06f          	jal	x0,2804 <__ledf2+0x88>
    2858:	0108e833          	or	x16,x17,x16
    285c:	00050663          	beq	x10,x0,2868 <__ledf2+0xec>
    2860:	fa080ee3          	beq	x16,x0,281c <__ledf2+0xa0>
    2864:	f9dff06f          	jal	x0,2800 <__ledf2+0x84>
    2868:	00c76633          	or	x12,x14,x12
    286c:	00060863          	beq	x12,x0,287c <__ledf2+0x100>
    2870:	fa0806e3          	beq	x16,x0,281c <__ledf2+0xa0>
    2874:	fcd586e3          	beq	x11,x13,2840 <__ledf2+0xc4>
    2878:	f4dff06f          	jal	x0,27c4 <__ledf2+0x48>
    287c:	f40814e3          	bne	x16,x0,27c4 <__ledf2+0x48>
    2880:	00008067          	jalr	x0,0(x1)
    2884:	00200513          	addi	x10,x0,2
    2888:	00008067          	jalr	x0,0(x1)

0000288c <__muldf3>:
    288c:	fd010113          	addi	x2,x2,-48
    2890:	01512a23          	sw	x21,20(x2)
    2894:	0145da93          	srli	x21,x11,0x14
    2898:	02812423          	sw	x8,40(x2)
    289c:	02912223          	sw	x9,36(x2)
    28a0:	03212023          	sw	x18,32(x2)
    28a4:	01312e23          	sw	x19,28(x2)
    28a8:	01612823          	sw	x22,16(x2)
    28ac:	00c59493          	slli	x9,x11,0xc
    28b0:	02112623          	sw	x1,44(x2)
    28b4:	01412c23          	sw	x20,24(x2)
    28b8:	01712623          	sw	x23,12(x2)
    28bc:	7ffafa93          	andi	x21,x21,2047
    28c0:	00050413          	addi	x8,x10,0
    28c4:	00060b13          	addi	x22,x12,0
    28c8:	00068913          	addi	x18,x13,0
    28cc:	00c4d493          	srli	x9,x9,0xc
    28d0:	01f5d993          	srli	x19,x11,0x1f
    28d4:	3c0a8063          	beq	x21,x0,2c94 <__muldf3+0x408>
    28d8:	7ff00793          	addi	x15,x0,2047
    28dc:	42fa8263          	beq	x21,x15,2d00 <__muldf3+0x474>
    28e0:	00349493          	slli	x9,x9,0x3
    28e4:	01d55793          	srli	x15,x10,0x1d
    28e8:	0097e7b3          	or	x15,x15,x9
    28ec:	008004b7          	lui	x9,0x800
    28f0:	0097e4b3          	or	x9,x15,x9
    28f4:	00351a13          	slli	x20,x10,0x3
    28f8:	c01a8a93          	addi	x21,x21,-1023
    28fc:	00000b93          	addi	x23,x0,0
    2900:	01495713          	srli	x14,x18,0x14
    2904:	00c91413          	slli	x8,x18,0xc
    2908:	7ff77713          	andi	x14,x14,2047
    290c:	00c45413          	srli	x8,x8,0xc
    2910:	01f95913          	srli	x18,x18,0x1f
    2914:	42070263          	beq	x14,x0,2d38 <__muldf3+0x4ac>
    2918:	7ff00793          	addi	x15,x0,2047
    291c:	48f70663          	beq	x14,x15,2da8 <__muldf3+0x51c>
    2920:	00341413          	slli	x8,x8,0x3
    2924:	01db5793          	srli	x15,x22,0x1d
    2928:	0087e7b3          	or	x15,x15,x8
    292c:	00800437          	lui	x8,0x800
    2930:	0087e433          	or	x8,x15,x8
    2934:	c0170693          	addi	x13,x14,-1023
    2938:	003b1793          	slli	x15,x22,0x3
    293c:	00000613          	addi	x12,x0,0
    2940:	002b9713          	slli	x14,x23,0x2
    2944:	00da8ab3          	add	x21,x21,x13
    2948:	00c76733          	or	x14,x14,x12
    294c:	00a00693          	addi	x13,x0,10
    2950:	0129c833          	xor	x16,x19,x18
    2954:	001a8893          	addi	x17,x21,1
    2958:	4ce6c863          	blt	x13,x14,2e28 <__muldf3+0x59c>
    295c:	00200693          	addi	x13,x0,2
    2960:	48e6c063          	blt	x13,x14,2de0 <__muldf3+0x554>
    2964:	fff70713          	addi	x14,x14,-1
    2968:	00100693          	addi	x13,x0,1
    296c:	48e6fc63          	bgeu	x13,x14,2e04 <__muldf3+0x578>
    2970:	00010937          	lui	x18,0x10
    2974:	fff90e13          	addi	x28,x18,-1 # ffff <_sibss+0xacc3>
    2978:	010a5293          	srli	x5,x20,0x10
    297c:	01c7ffb3          	and	x31,x15,x28
    2980:	01ca7a33          	and	x20,x20,x28
    2984:	0107df13          	srli	x30,x15,0x10
    2988:	000a0513          	addi	x10,x20,0
    298c:	000f8593          	addi	x11,x31,0
    2990:	b21fd0ef          	jal	x1,4b0 <__mulsi3>
    2994:	00050793          	addi	x15,x10,0
    2998:	000f0593          	addi	x11,x30,0
    299c:	000a0513          	addi	x10,x20,0
    29a0:	b11fd0ef          	jal	x1,4b0 <__mulsi3>
    29a4:	00050e93          	addi	x29,x10,0
    29a8:	000f8593          	addi	x11,x31,0
    29ac:	00028513          	addi	x10,x5,0
    29b0:	b01fd0ef          	jal	x1,4b0 <__mulsi3>
    29b4:	00050393          	addi	x7,x10,0
    29b8:	000f0593          	addi	x11,x30,0
    29bc:	00028513          	addi	x10,x5,0
    29c0:	af1fd0ef          	jal	x1,4b0 <__mulsi3>
    29c4:	0107d313          	srli	x6,x15,0x10
    29c8:	007e8eb3          	add	x29,x29,x7
    29cc:	01d30333          	add	x6,x6,x29
    29d0:	00050713          	addi	x14,x10,0
    29d4:	00737463          	bgeu	x6,x7,29dc <__muldf3+0x150>
    29d8:	01250733          	add	x14,x10,x18
    29dc:	01035993          	srli	x19,x6,0x10
    29e0:	01c37333          	and	x6,x6,x28
    29e4:	01c7f7b3          	and	x15,x15,x28
    29e8:	01031313          	slli	x6,x6,0x10
    29ec:	01c47e33          	and	x28,x8,x28
    29f0:	00f30333          	add	x6,x6,x15
    29f4:	01045913          	srli	x18,x8,0x10
    29f8:	000a0513          	addi	x10,x20,0
    29fc:	000e0593          	addi	x11,x28,0
    2a00:	ab1fd0ef          	jal	x1,4b0 <__mulsi3>
    2a04:	00050393          	addi	x7,x10,0
    2a08:	00090593          	addi	x11,x18,0
    2a0c:	000a0513          	addi	x10,x20,0
    2a10:	aa1fd0ef          	jal	x1,4b0 <__mulsi3>
    2a14:	00050e93          	addi	x29,x10,0
    2a18:	000e0593          	addi	x11,x28,0
    2a1c:	00028513          	addi	x10,x5,0
    2a20:	a91fd0ef          	jal	x1,4b0 <__mulsi3>
    2a24:	00050413          	addi	x8,x10,0
    2a28:	00090593          	addi	x11,x18,0
    2a2c:	00028513          	addi	x10,x5,0
    2a30:	a81fd0ef          	jal	x1,4b0 <__mulsi3>
    2a34:	0103d693          	srli	x13,x7,0x10
    2a38:	008e8eb3          	add	x29,x29,x8
    2a3c:	01d686b3          	add	x13,x13,x29
    2a40:	00050793          	addi	x15,x10,0
    2a44:	0086f663          	bgeu	x13,x8,2a50 <__muldf3+0x1c4>
    2a48:	00010637          	lui	x12,0x10
    2a4c:	00c507b3          	add	x15,x10,x12
    2a50:	00010a37          	lui	x20,0x10
    2a54:	fffa0e93          	addi	x29,x20,-1 # ffff <_sibss+0xacc3>
    2a58:	0106d293          	srli	x5,x13,0x10
    2a5c:	00f282b3          	add	x5,x5,x15
    2a60:	01d6f7b3          	and	x15,x13,x29
    2a64:	01d3f3b3          	and	x7,x7,x29
    2a68:	01079793          	slli	x15,x15,0x10
    2a6c:	007787b3          	add	x15,x15,x7
    2a70:	01d4feb3          	and	x29,x9,x29
    2a74:	00f98433          	add	x8,x19,x15
    2a78:	000e8513          	addi	x10,x29,0
    2a7c:	0104d993          	srli	x19,x9,0x10
    2a80:	000f8593          	addi	x11,x31,0
    2a84:	a2dfd0ef          	jal	x1,4b0 <__mulsi3>
    2a88:	00050493          	addi	x9,x10,0
    2a8c:	000f0593          	addi	x11,x30,0
    2a90:	000e8513          	addi	x10,x29,0
    2a94:	a1dfd0ef          	jal	x1,4b0 <__mulsi3>
    2a98:	00050393          	addi	x7,x10,0
    2a9c:	000f8593          	addi	x11,x31,0
    2aa0:	00098513          	addi	x10,x19,0
    2aa4:	a0dfd0ef          	jal	x1,4b0 <__mulsi3>
    2aa8:	00050f93          	addi	x31,x10,0
    2aac:	000f0593          	addi	x11,x30,0
    2ab0:	00098513          	addi	x10,x19,0
    2ab4:	9fdfd0ef          	jal	x1,4b0 <__mulsi3>
    2ab8:	0104d693          	srli	x13,x9,0x10
    2abc:	01f383b3          	add	x7,x7,x31
    2ac0:	007686b3          	add	x13,x13,x7
    2ac4:	00050613          	addi	x12,x10,0
    2ac8:	01f6f463          	bgeu	x13,x31,2ad0 <__muldf3+0x244>
    2acc:	01450633          	add	x12,x10,x20
    2ad0:	00010a37          	lui	x20,0x10
    2ad4:	fffa0393          	addi	x7,x20,-1 # ffff <_sibss+0xacc3>
    2ad8:	0106df93          	srli	x31,x13,0x10
    2adc:	0076f6b3          	and	x13,x13,x7
    2ae0:	01069693          	slli	x13,x13,0x10
    2ae4:	0074f4b3          	and	x9,x9,x7
    2ae8:	00cf8fb3          	add	x31,x31,x12
    2aec:	00968f33          	add	x30,x13,x9
    2af0:	000e8513          	addi	x10,x29,0
    2af4:	000e0593          	addi	x11,x28,0
    2af8:	9b9fd0ef          	jal	x1,4b0 <__mulsi3>
    2afc:	00050493          	addi	x9,x10,0
    2b00:	00090593          	addi	x11,x18,0
    2b04:	000e8513          	addi	x10,x29,0
    2b08:	9a9fd0ef          	jal	x1,4b0 <__mulsi3>
    2b0c:	00050e93          	addi	x29,x10,0
    2b10:	000e0593          	addi	x11,x28,0
    2b14:	00098513          	addi	x10,x19,0
    2b18:	999fd0ef          	jal	x1,4b0 <__mulsi3>
    2b1c:	00050e13          	addi	x28,x10,0
    2b20:	00090593          	addi	x11,x18,0
    2b24:	00098513          	addi	x10,x19,0
    2b28:	989fd0ef          	jal	x1,4b0 <__mulsi3>
    2b2c:	0104d613          	srli	x12,x9,0x10
    2b30:	01ce8eb3          	add	x29,x29,x28
    2b34:	01d60633          	add	x12,x12,x29
    2b38:	00050593          	addi	x11,x10,0
    2b3c:	01c67463          	bgeu	x12,x28,2b44 <__muldf3+0x2b8>
    2b40:	014505b3          	add	x11,x10,x20
    2b44:	007676b3          	and	x13,x12,x7
    2b48:	01069693          	slli	x13,x13,0x10
    2b4c:	0074f4b3          	and	x9,x9,x7
    2b50:	00870733          	add	x14,x14,x8
    2b54:	009686b3          	add	x13,x13,x9
    2b58:	005682b3          	add	x5,x13,x5
    2b5c:	00f737b3          	sltu	x15,x14,x15
    2b60:	00f287b3          	add	x15,x5,x15
    2b64:	00d2b6b3          	sltu	x13,x5,x13
    2b68:	0057b2b3          	sltu	x5,x15,x5
    2b6c:	01065613          	srli	x12,x12,0x10
    2b70:	0056e6b3          	or	x13,x13,x5
    2b74:	00c686b3          	add	x13,x13,x12
    2b78:	01e70633          	add	x12,x14,x30
    2b7c:	01f78fb3          	add	x31,x15,x31
    2b80:	00e63733          	sltu	x14,x12,x14
    2b84:	00ef8733          	add	x14,x31,x14
    2b88:	00ffb433          	sltu	x8,x31,x15
    2b8c:	01f73fb3          	sltu	x31,x14,x31
    2b90:	01f46433          	or	x8,x8,x31
    2b94:	00d40433          	add	x8,x8,x13
    2b98:	00b40433          	add	x8,x8,x11
    2b9c:	01775793          	srli	x15,x14,0x17
    2ba0:	00941413          	slli	x8,x8,0x9
    2ba4:	00f46433          	or	x8,x8,x15
    2ba8:	00961793          	slli	x15,x12,0x9
    2bac:	0067e7b3          	or	x15,x15,x6
    2bb0:	00f037b3          	sltu	x15,x0,x15
    2bb4:	01765613          	srli	x12,x12,0x17
    2bb8:	00971713          	slli	x14,x14,0x9
    2bbc:	00c7e7b3          	or	x15,x15,x12
    2bc0:	00e7e7b3          	or	x15,x15,x14
    2bc4:	01000737          	lui	x14,0x1000
    2bc8:	00e47733          	and	x14,x8,x14
    2bcc:	28070063          	beq	x14,x0,2e4c <__muldf3+0x5c0>
    2bd0:	0017d713          	srli	x14,x15,0x1
    2bd4:	0017f793          	andi	x15,x15,1
    2bd8:	00f76733          	or	x14,x14,x15
    2bdc:	01f41793          	slli	x15,x8,0x1f
    2be0:	00f767b3          	or	x15,x14,x15
    2be4:	00145413          	srli	x8,x8,0x1
    2be8:	3ff88693          	addi	x13,x17,1023
    2bec:	26d05463          	bge	x0,x13,2e54 <__muldf3+0x5c8>
    2bf0:	0077f713          	andi	x14,x15,7
    2bf4:	02070063          	beq	x14,x0,2c14 <__muldf3+0x388>
    2bf8:	00f7f713          	andi	x14,x15,15
    2bfc:	00400613          	addi	x12,x0,4
    2c00:	00c70a63          	beq	x14,x12,2c14 <__muldf3+0x388>
    2c04:	00478713          	addi	x14,x15,4
    2c08:	00f73633          	sltu	x12,x14,x15
    2c0c:	00c40433          	add	x8,x8,x12
    2c10:	00070793          	addi	x15,x14,0 # 1000000 <_sibss+0xffacc4>
    2c14:	01000737          	lui	x14,0x1000
    2c18:	00e47733          	and	x14,x8,x14
    2c1c:	00070a63          	beq	x14,x0,2c30 <__muldf3+0x3a4>
    2c20:	ff000737          	lui	x14,0xff000
    2c24:	fff70713          	addi	x14,x14,-1 # feffffff <_estack+0xfbffffff>
    2c28:	00e47433          	and	x8,x8,x14
    2c2c:	40088693          	addi	x13,x17,1024
    2c30:	7fe00713          	addi	x14,x0,2046
    2c34:	2ed74a63          	blt	x14,x13,2f28 <__muldf3+0x69c>
    2c38:	01d41713          	slli	x14,x8,0x1d
    2c3c:	0037d793          	srli	x15,x15,0x3
    2c40:	00f76733          	or	x14,x14,x15
    2c44:	00345413          	srli	x8,x8,0x3
    2c48:	00c41413          	slli	x8,x8,0xc
    2c4c:	00c45413          	srli	x8,x8,0xc
    2c50:	01469693          	slli	x13,x13,0x14
    2c54:	02c12083          	lw	x1,44(x2)
    2c58:	0086e6b3          	or	x13,x13,x8
    2c5c:	02812403          	lw	x8,40(x2)
    2c60:	01f81813          	slli	x16,x16,0x1f
    2c64:	0106e7b3          	or	x15,x13,x16
    2c68:	02412483          	lw	x9,36(x2)
    2c6c:	02012903          	lw	x18,32(x2)
    2c70:	01c12983          	lw	x19,28(x2)
    2c74:	01812a03          	lw	x20,24(x2)
    2c78:	01412a83          	lw	x21,20(x2)
    2c7c:	01012b03          	lw	x22,16(x2)
    2c80:	00c12b83          	lw	x23,12(x2)
    2c84:	00070513          	addi	x10,x14,0
    2c88:	00078593          	addi	x11,x15,0
    2c8c:	03010113          	addi	x2,x2,48
    2c90:	00008067          	jalr	x0,0(x1)
    2c94:	00a4ea33          	or	x20,x9,x10
    2c98:	080a0063          	beq	x20,x0,2d18 <__muldf3+0x48c>
    2c9c:	04048063          	beq	x9,x0,2cdc <__muldf3+0x450>
    2ca0:	00048513          	addi	x10,x9,0 # 800000 <_sibss+0x7facc4>
    2ca4:	831fd0ef          	jal	x1,4d4 <__clzsi2>
    2ca8:	ff550713          	addi	x14,x10,-11
    2cac:	01d00793          	addi	x15,x0,29
    2cb0:	ff850693          	addi	x13,x10,-8
    2cb4:	40e787b3          	sub	x15,x15,x14
    2cb8:	00d494b3          	sll	x9,x9,x13
    2cbc:	00f457b3          	srl	x15,x8,x15
    2cc0:	0097e7b3          	or	x15,x15,x9
    2cc4:	00d414b3          	sll	x9,x8,x13
    2cc8:	c0d00a93          	addi	x21,x0,-1011
    2ccc:	00048a13          	addi	x20,x9,0
    2cd0:	40aa8ab3          	sub	x21,x21,x10
    2cd4:	00078493          	addi	x9,x15,0
    2cd8:	c25ff06f          	jal	x0,28fc <__muldf3+0x70>
    2cdc:	ff8fd0ef          	jal	x1,4d4 <__clzsi2>
    2ce0:	00050793          	addi	x15,x10,0
    2ce4:	01578713          	addi	x14,x15,21
    2ce8:	01c00693          	addi	x13,x0,28
    2cec:	02050513          	addi	x10,x10,32
    2cf0:	fae6dee3          	bge	x13,x14,2cac <__muldf3+0x420>
    2cf4:	ff878793          	addi	x15,x15,-8
    2cf8:	00f417b3          	sll	x15,x8,x15
    2cfc:	fcdff06f          	jal	x0,2cc8 <__muldf3+0x43c>
    2d00:	00a4ea33          	or	x20,x9,x10
    2d04:	020a0263          	beq	x20,x0,2d28 <__muldf3+0x49c>
    2d08:	00050a13          	addi	x20,x10,0
    2d0c:	7ff00a93          	addi	x21,x0,2047
    2d10:	00300b93          	addi	x23,x0,3
    2d14:	bedff06f          	jal	x0,2900 <__muldf3+0x74>
    2d18:	00000493          	addi	x9,x0,0
    2d1c:	00000a93          	addi	x21,x0,0
    2d20:	00100b93          	addi	x23,x0,1
    2d24:	bddff06f          	jal	x0,2900 <__muldf3+0x74>
    2d28:	00000493          	addi	x9,x0,0
    2d2c:	7ff00a93          	addi	x21,x0,2047
    2d30:	00200b93          	addi	x23,x0,2
    2d34:	bcdff06f          	jal	x0,2900 <__muldf3+0x74>
    2d38:	016467b3          	or	x15,x8,x22
    2d3c:	08078263          	beq	x15,x0,2dc0 <__muldf3+0x534>
    2d40:	04040063          	beq	x8,x0,2d80 <__muldf3+0x4f4>
    2d44:	00040513          	addi	x10,x8,0 # 800000 <_sibss+0x7facc4>
    2d48:	f8cfd0ef          	jal	x1,4d4 <__clzsi2>
    2d4c:	ff550693          	addi	x13,x10,-11
    2d50:	01d00713          	addi	x14,x0,29
    2d54:	ff850793          	addi	x15,x10,-8
    2d58:	40d70733          	sub	x14,x14,x13
    2d5c:	00f41433          	sll	x8,x8,x15
    2d60:	00eb5733          	srl	x14,x22,x14
    2d64:	00876733          	or	x14,x14,x8
    2d68:	00fb1433          	sll	x8,x22,x15
    2d6c:	c0d00693          	addi	x13,x0,-1011
    2d70:	00040793          	addi	x15,x8,0
    2d74:	40a686b3          	sub	x13,x13,x10
    2d78:	00070413          	addi	x8,x14,0
    2d7c:	bc1ff06f          	jal	x0,293c <__muldf3+0xb0>
    2d80:	000b0513          	addi	x10,x22,0
    2d84:	f50fd0ef          	jal	x1,4d4 <__clzsi2>
    2d88:	00050793          	addi	x15,x10,0
    2d8c:	01578693          	addi	x13,x15,21
    2d90:	01c00713          	addi	x14,x0,28
    2d94:	02050513          	addi	x10,x10,32
    2d98:	fad75ce3          	bge	x14,x13,2d50 <__muldf3+0x4c4>
    2d9c:	ff878793          	addi	x15,x15,-8
    2da0:	00fb1733          	sll	x14,x22,x15
    2da4:	fc9ff06f          	jal	x0,2d6c <__muldf3+0x4e0>
    2da8:	016467b3          	or	x15,x8,x22
    2dac:	02078263          	beq	x15,x0,2dd0 <__muldf3+0x544>
    2db0:	000b0793          	addi	x15,x22,0
    2db4:	7ff00693          	addi	x13,x0,2047
    2db8:	00300613          	addi	x12,x0,3
    2dbc:	b85ff06f          	jal	x0,2940 <__muldf3+0xb4>
    2dc0:	00000413          	addi	x8,x0,0
    2dc4:	00000693          	addi	x13,x0,0
    2dc8:	00100613          	addi	x12,x0,1
    2dcc:	b75ff06f          	jal	x0,2940 <__muldf3+0xb4>
    2dd0:	00000413          	addi	x8,x0,0
    2dd4:	7ff00693          	addi	x13,x0,2047
    2dd8:	00200613          	addi	x12,x0,2
    2ddc:	b65ff06f          	jal	x0,2940 <__muldf3+0xb4>
    2de0:	00100693          	addi	x13,x0,1
    2de4:	00e696b3          	sll	x13,x13,x14
    2de8:	5306f713          	andi	x14,x13,1328
    2dec:	04071863          	bne	x14,x0,2e3c <__muldf3+0x5b0>
    2df0:	2406f593          	andi	x11,x13,576
    2df4:	10059c63          	bne	x11,x0,2f0c <__muldf3+0x680>
    2df8:	0886f693          	andi	x13,x13,136
    2dfc:	b6068ae3          	beq	x13,x0,2970 <__muldf3+0xe4>
    2e00:	00090813          	addi	x16,x18,0
    2e04:	00200713          	addi	x14,x0,2
    2e08:	12e60063          	beq	x12,x14,2f28 <__muldf3+0x69c>
    2e0c:	00300713          	addi	x14,x0,3
    2e10:	10e60663          	beq	x12,x14,2f1c <__muldf3+0x690>
    2e14:	00100713          	addi	x14,x0,1
    2e18:	dce618e3          	bne	x12,x14,2be8 <__muldf3+0x35c>
    2e1c:	00000413          	addi	x8,x0,0
    2e20:	00000713          	addi	x14,x0,0
    2e24:	0ac0006f          	jal	x0,2ed0 <__muldf3+0x644>
    2e28:	00f00693          	addi	x13,x0,15
    2e2c:	0ed70863          	beq	x14,x13,2f1c <__muldf3+0x690>
    2e30:	00b00693          	addi	x13,x0,11
    2e34:	00098813          	addi	x16,x19,0
    2e38:	fcd704e3          	beq	x14,x13,2e00 <__muldf3+0x574>
    2e3c:	00048413          	addi	x8,x9,0
    2e40:	000a0793          	addi	x15,x20,0
    2e44:	000b8613          	addi	x12,x23,0
    2e48:	fbdff06f          	jal	x0,2e04 <__muldf3+0x578>
    2e4c:	000a8893          	addi	x17,x21,0
    2e50:	d99ff06f          	jal	x0,2be8 <__muldf3+0x35c>
    2e54:	00100613          	addi	x12,x0,1
    2e58:	00068c63          	beq	x13,x0,2e70 <__muldf3+0x5e4>
    2e5c:	40d60633          	sub	x12,x12,x13
    2e60:	03800713          	addi	x14,x0,56
    2e64:	fac74ce3          	blt	x14,x12,2e1c <__muldf3+0x590>
    2e68:	01f00713          	addi	x14,x0,31
    2e6c:	06c74663          	blt	x14,x12,2ed8 <__muldf3+0x64c>
    2e70:	41e88893          	addi	x17,x17,1054
    2e74:	00c7d733          	srl	x14,x15,x12
    2e78:	011797b3          	sll	x15,x15,x17
    2e7c:	00f037b3          	sltu	x15,x0,x15
    2e80:	011418b3          	sll	x17,x8,x17
    2e84:	0117e7b3          	or	x15,x15,x17
    2e88:	00e7e7b3          	or	x15,x15,x14
    2e8c:	00c45433          	srl	x8,x8,x12
    2e90:	0077f713          	andi	x14,x15,7
    2e94:	02070063          	beq	x14,x0,2eb4 <__muldf3+0x628>
    2e98:	00f7f713          	andi	x14,x15,15
    2e9c:	00400693          	addi	x13,x0,4
    2ea0:	00d70a63          	beq	x14,x13,2eb4 <__muldf3+0x628>
    2ea4:	00478713          	addi	x14,x15,4
    2ea8:	00f736b3          	sltu	x13,x14,x15
    2eac:	00d40433          	add	x8,x8,x13
    2eb0:	00070793          	addi	x15,x14,0
    2eb4:	00800737          	lui	x14,0x800
    2eb8:	00e47733          	and	x14,x8,x14
    2ebc:	06071e63          	bne	x14,x0,2f38 <__muldf3+0x6ac>
    2ec0:	01d41713          	slli	x14,x8,0x1d
    2ec4:	0037d793          	srli	x15,x15,0x3
    2ec8:	00f76733          	or	x14,x14,x15
    2ecc:	00345413          	srli	x8,x8,0x3
    2ed0:	00000693          	addi	x13,x0,0
    2ed4:	d75ff06f          	jal	x0,2c48 <__muldf3+0x3bc>
    2ed8:	fe100713          	addi	x14,x0,-31
    2edc:	40d70733          	sub	x14,x14,x13
    2ee0:	02000593          	addi	x11,x0,32
    2ee4:	00e45733          	srl	x14,x8,x14
    2ee8:	00000693          	addi	x13,x0,0
    2eec:	00b60663          	beq	x12,x11,2ef8 <__muldf3+0x66c>
    2ef0:	43e88893          	addi	x17,x17,1086
    2ef4:	011416b3          	sll	x13,x8,x17
    2ef8:	00f6e6b3          	or	x13,x13,x15
    2efc:	00d036b3          	sltu	x13,x0,x13
    2f00:	00d767b3          	or	x15,x14,x13
    2f04:	00000413          	addi	x8,x0,0
    2f08:	f89ff06f          	jal	x0,2e90 <__muldf3+0x604>
    2f0c:	00080437          	lui	x8,0x80
    2f10:	7ff00693          	addi	x13,x0,2047
    2f14:	00000813          	addi	x16,x0,0
    2f18:	d31ff06f          	jal	x0,2c48 <__muldf3+0x3bc>
    2f1c:	00080437          	lui	x8,0x80
    2f20:	00000713          	addi	x14,x0,0
    2f24:	fedff06f          	jal	x0,2f10 <__muldf3+0x684>
    2f28:	00000413          	addi	x8,x0,0
    2f2c:	00000713          	addi	x14,x0,0
    2f30:	7ff00693          	addi	x13,x0,2047
    2f34:	d15ff06f          	jal	x0,2c48 <__muldf3+0x3bc>
    2f38:	00000413          	addi	x8,x0,0
    2f3c:	00000713          	addi	x14,x0,0
    2f40:	00100693          	addi	x13,x0,1
    2f44:	d05ff06f          	jal	x0,2c48 <__muldf3+0x3bc>

00002f48 <__subdf3>:
    2f48:	00100837          	lui	x16,0x100
    2f4c:	fff80813          	addi	x16,x16,-1 # fffff <_sibss+0xfacc3>
    2f50:	fe010113          	addi	x2,x2,-32
    2f54:	00b878b3          	and	x17,x16,x11
    2f58:	0145d713          	srli	x14,x11,0x14
    2f5c:	01d55793          	srli	x15,x10,0x1d
    2f60:	00812c23          	sw	x8,24(x2)
    2f64:	00912a23          	sw	x9,20(x2)
    2f68:	7ff77413          	andi	x8,x14,2047
    2f6c:	01f5d493          	srli	x9,x11,0x1f
    2f70:	00389713          	slli	x14,x17,0x3
    2f74:	00d875b3          	and	x11,x16,x13
    2f78:	0146d813          	srli	x16,x13,0x14
    2f7c:	00e7e7b3          	or	x15,x15,x14
    2f80:	00359593          	slli	x11,x11,0x3
    2f84:	01d65713          	srli	x14,x12,0x1d
    2f88:	00112e23          	sw	x1,28(x2)
    2f8c:	01212823          	sw	x18,16(x2)
    2f90:	01312623          	sw	x19,12(x2)
    2f94:	7ff87813          	andi	x16,x16,2047
    2f98:	7ff00893          	addi	x17,x0,2047
    2f9c:	00351513          	slli	x10,x10,0x3
    2fa0:	01f6d693          	srli	x13,x13,0x1f
    2fa4:	00b76733          	or	x14,x14,x11
    2fa8:	00361613          	slli	x12,x12,0x3
    2fac:	07181c63          	bne	x16,x17,3024 <__subdf3+0xdc>
    2fb0:	00c768b3          	or	x17,x14,x12
    2fb4:	80140593          	addi	x11,x8,-2047 # 7f801 <_sibss+0x7a4c5>
    2fb8:	00088e63          	beq	x17,x0,2fd4 <__subdf3+0x8c>
    2fbc:	00068313          	addi	x6,x13,0
    2fc0:	42d49a63          	bne	x9,x13,33f4 <__subdf3+0x4ac>
    2fc4:	26058863          	beq	x11,x0,3234 <__subdf3+0x2ec>
    2fc8:	76041a63          	bne	x8,x0,373c <__subdf3+0x7f4>
    2fcc:	7ff00413          	addi	x8,x0,2047
    2fd0:	1f80006f          	jal	x0,31c8 <__subdf3+0x280>
    2fd4:	0016c313          	xori	x6,x13,1
    2fd8:	42649c63          	bne	x9,x6,3410 <__subdf3+0x4c8>
    2fdc:	24058c63          	beq	x11,x0,3234 <__subdf3+0x2ec>
    2fe0:	fe0406e3          	beq	x8,x0,2fcc <__subdf3+0x84>
    2fe4:	00000793          	addi	x15,x0,0
    2fe8:	00000513          	addi	x10,x0,0
    2fec:	7ff00413          	addi	x8,x0,2047
    2ff0:	008006b7          	lui	x13,0x800
    2ff4:	00d7f6b3          	and	x13,x15,x13
    2ff8:	74068c63          	beq	x13,x0,3750 <__subdf3+0x808>
    2ffc:	00140413          	addi	x8,x8,1
    3000:	7ff00713          	addi	x14,x0,2047
    3004:	10e40663          	beq	x8,x14,3110 <__subdf3+0x1c8>
    3008:	ff800737          	lui	x14,0xff800
    300c:	fff70713          	addi	x14,x14,-1 # ff7fffff <_estack+0xfc7fffff>
    3010:	00e7f7b3          	and	x15,x15,x14
    3014:	00355513          	srli	x10,x10,0x3
    3018:	01d79693          	slli	x13,x15,0x1d
    301c:	00a6e6b3          	or	x13,x13,x10
    3020:	6bc0006f          	jal	x0,36dc <__subdf3+0x794>
    3024:	0016c313          	xori	x6,x13,1
    3028:	410405b3          	sub	x11,x8,x16
    302c:	2c649a63          	bne	x9,x6,3300 <__subdf3+0x3b8>
    3030:	12b05863          	bge	x0,x11,3160 <__subdf3+0x218>
    3034:	06081663          	bne	x16,x0,30a0 <__subdf3+0x158>
    3038:	00c766b3          	or	x13,x14,x12
    303c:	70068663          	beq	x13,x0,3748 <__subdf3+0x800>
    3040:	fff58693          	addi	x13,x11,-1
    3044:	04069863          	bne	x13,x0,3094 <__subdf3+0x14c>
    3048:	00c50633          	add	x12,x10,x12
    304c:	00a636b3          	sltu	x13,x12,x10
    3050:	00e78733          	add	x14,x15,x14
    3054:	00d707b3          	add	x15,x14,x13
    3058:	00800737          	lui	x14,0x800
    305c:	00e7f733          	and	x14,x15,x14
    3060:	00060513          	addi	x10,x12,0 # 10000 <_sibss+0xacc4>
    3064:	26071863          	bne	x14,x0,32d4 <__subdf3+0x38c>
    3068:	00100413          	addi	x8,x0,1
    306c:	00757713          	andi	x14,x10,7
    3070:	f80700e3          	beq	x14,x0,2ff0 <__subdf3+0xa8>
    3074:	00f57713          	andi	x14,x10,15
    3078:	00400693          	addi	x13,x0,4
    307c:	f6d70ae3          	beq	x14,x13,2ff0 <__subdf3+0xa8>
    3080:	00450713          	addi	x14,x10,4
    3084:	00a736b3          	sltu	x13,x14,x10
    3088:	00d787b3          	add	x15,x15,x13
    308c:	00070513          	addi	x10,x14,0 # 800000 <_sibss+0x7facc4>
    3090:	f61ff06f          	jal	x0,2ff0 <__subdf3+0xa8>
    3094:	09159263          	bne	x11,x17,3118 <__subdf3+0x1d0>
    3098:	7ff00413          	addi	x8,x0,2047
    309c:	fd1ff06f          	jal	x0,306c <__subdf3+0x124>
    30a0:	fd1406e3          	beq	x8,x17,306c <__subdf3+0x124>
    30a4:	03800693          	addi	x13,x0,56
    30a8:	06b6cc63          	blt	x13,x11,3120 <__subdf3+0x1d8>
    30ac:	008006b7          	lui	x13,0x800
    30b0:	00d76733          	or	x14,x14,x13
    30b4:	00058693          	addi	x13,x11,0
    30b8:	01f00593          	addi	x11,x0,31
    30bc:	06d5c863          	blt	x11,x13,312c <__subdf3+0x1e4>
    30c0:	02000813          	addi	x16,x0,32
    30c4:	40d80833          	sub	x16,x16,x13
    30c8:	00d658b3          	srl	x17,x12,x13
    30cc:	010715b3          	sll	x11,x14,x16
    30d0:	01061833          	sll	x16,x12,x16
    30d4:	0115e5b3          	or	x11,x11,x17
    30d8:	01003833          	sltu	x16,x0,x16
    30dc:	0105e633          	or	x12,x11,x16
    30e0:	00d756b3          	srl	x13,x14,x13
    30e4:	00a60533          	add	x10,x12,x10
    30e8:	00f686b3          	add	x13,x13,x15
    30ec:	00c53633          	sltu	x12,x10,x12
    30f0:	00c687b3          	add	x15,x13,x12
    30f4:	00800737          	lui	x14,0x800
    30f8:	00e7f733          	and	x14,x15,x14
    30fc:	f60708e3          	beq	x14,x0,306c <__subdf3+0x124>
    3100:	00140413          	addi	x8,x8,1
    3104:	7ff00713          	addi	x14,x0,2047
    3108:	1ce41863          	bne	x8,x14,32d8 <__subdf3+0x390>
    310c:	7ff00413          	addi	x8,x0,2047
    3110:	00000793          	addi	x15,x0,0
    3114:	1880006f          	jal	x0,329c <__subdf3+0x354>
    3118:	03800593          	addi	x11,x0,56
    311c:	f8d5dee3          	bge	x11,x13,30b8 <__subdf3+0x170>
    3120:	00000693          	addi	x13,x0,0
    3124:	00100613          	addi	x12,x0,1
    3128:	fbdff06f          	jal	x0,30e4 <__subdf3+0x19c>
    312c:	fe068593          	addi	x11,x13,-32 # 7fffe0 <_sibss+0x7faca4>
    3130:	02000893          	addi	x17,x0,32
    3134:	00b755b3          	srl	x11,x14,x11
    3138:	00000813          	addi	x16,x0,0
    313c:	01168863          	beq	x13,x17,314c <__subdf3+0x204>
    3140:	04000813          	addi	x16,x0,64
    3144:	40d80833          	sub	x16,x16,x13
    3148:	01071833          	sll	x16,x14,x16
    314c:	00c86833          	or	x16,x16,x12
    3150:	01003833          	sltu	x16,x0,x16
    3154:	0105e633          	or	x12,x11,x16
    3158:	00000693          	addi	x13,x0,0
    315c:	f89ff06f          	jal	x0,30e4 <__subdf3+0x19c>
    3160:	0c058a63          	beq	x11,x0,3234 <__subdf3+0x2ec>
    3164:	408806b3          	sub	x13,x16,x8
    3168:	04040e63          	beq	x8,x0,31c4 <__subdf3+0x27c>
    316c:	03800593          	addi	x11,x0,56
    3170:	08d5c263          	blt	x11,x13,31f4 <__subdf3+0x2ac>
    3174:	008005b7          	lui	x11,0x800
    3178:	00b7e7b3          	or	x15,x15,x11
    317c:	01f00593          	addi	x11,x0,31
    3180:	08d5c063          	blt	x11,x13,3200 <__subdf3+0x2b8>
    3184:	02000893          	addi	x17,x0,32
    3188:	40d888b3          	sub	x17,x17,x13
    318c:	011795b3          	sll	x11,x15,x17
    3190:	00d55333          	srl	x6,x10,x13
    3194:	011518b3          	sll	x17,x10,x17
    3198:	0065e5b3          	or	x11,x11,x6
    319c:	011038b3          	sltu	x17,x0,x17
    31a0:	0115e5b3          	or	x11,x11,x17
    31a4:	00d7d6b3          	srl	x13,x15,x13
    31a8:	00c58633          	add	x12,x11,x12
    31ac:	00e686b3          	add	x13,x13,x14
    31b0:	00b635b3          	sltu	x11,x12,x11
    31b4:	00060513          	addi	x10,x12,0
    31b8:	00b687b3          	add	x15,x13,x11
    31bc:	00080413          	addi	x8,x16,0
    31c0:	f35ff06f          	jal	x0,30f4 <__subdf3+0x1ac>
    31c4:	00068413          	addi	x8,x13,0
    31c8:	00a7e6b3          	or	x13,x15,x10
    31cc:	00068a63          	beq	x13,x0,31e0 <__subdf3+0x298>
    31d0:	fff40693          	addi	x13,x8,-1
    31d4:	e6068ae3          	beq	x13,x0,3048 <__subdf3+0x100>
    31d8:	7ff00593          	addi	x11,x0,2047
    31dc:	00b41863          	bne	x8,x11,31ec <__subdf3+0x2a4>
    31e0:	00070793          	addi	x15,x14,0 # 800000 <_sibss+0x7facc4>
    31e4:	00060513          	addi	x10,x12,0
    31e8:	e85ff06f          	jal	x0,306c <__subdf3+0x124>
    31ec:	03800593          	addi	x11,x0,56
    31f0:	f8d5d6e3          	bge	x11,x13,317c <__subdf3+0x234>
    31f4:	00000693          	addi	x13,x0,0
    31f8:	00100593          	addi	x11,x0,1
    31fc:	fadff06f          	jal	x0,31a8 <__subdf3+0x260>
    3200:	fe068593          	addi	x11,x13,-32
    3204:	02000313          	addi	x6,x0,32
    3208:	00b7d5b3          	srl	x11,x15,x11
    320c:	00000893          	addi	x17,x0,0
    3210:	00668863          	beq	x13,x6,3220 <__subdf3+0x2d8>
    3214:	04000893          	addi	x17,x0,64
    3218:	40d888b3          	sub	x17,x17,x13
    321c:	011798b3          	sll	x17,x15,x17
    3220:	00a8e8b3          	or	x17,x17,x10
    3224:	011038b3          	sltu	x17,x0,x17
    3228:	0115e5b3          	or	x11,x11,x17
    322c:	00000693          	addi	x13,x0,0
    3230:	f79ff06f          	jal	x0,31a8 <__subdf3+0x260>
    3234:	00140693          	addi	x13,x8,1
    3238:	7fe6f593          	andi	x11,x13,2046
    323c:	06059463          	bne	x11,x0,32a4 <__subdf3+0x35c>
    3240:	00a7e6b3          	or	x13,x15,x10
    3244:	04041063          	bne	x8,x0,3284 <__subdf3+0x33c>
    3248:	f8068ce3          	beq	x13,x0,31e0 <__subdf3+0x298>
    324c:	00c766b3          	or	x13,x14,x12
    3250:	e0068ee3          	beq	x13,x0,306c <__subdf3+0x124>
    3254:	00c50633          	add	x12,x10,x12
    3258:	00a636b3          	sltu	x13,x12,x10
    325c:	00e78733          	add	x14,x15,x14
    3260:	00d707b3          	add	x15,x14,x13
    3264:	00800737          	lui	x14,0x800
    3268:	00e7f733          	and	x14,x15,x14
    326c:	00060513          	addi	x10,x12,0
    3270:	de070ee3          	beq	x14,x0,306c <__subdf3+0x124>
    3274:	ff800737          	lui	x14,0xff800
    3278:	fff70713          	addi	x14,x14,-1 # ff7fffff <_estack+0xfc7fffff>
    327c:	00e7f7b3          	and	x15,x15,x14
    3280:	de9ff06f          	jal	x0,3068 <__subdf3+0x120>
    3284:	4a068c63          	beq	x13,x0,373c <__subdf3+0x7f4>
    3288:	00c76633          	or	x12,x14,x12
    328c:	e00606e3          	beq	x12,x0,3098 <__subdf3+0x150>
    3290:	00000493          	addi	x9,x0,0
    3294:	7ff00413          	addi	x8,x0,2047
    3298:	000807b7          	lui	x15,0x80
    329c:	00000693          	addi	x13,x0,0
    32a0:	4400006f          	jal	x0,36e0 <__subdf3+0x798>
    32a4:	7ff00593          	addi	x11,x0,2047
    32a8:	e6b682e3          	beq	x13,x11,310c <__subdf3+0x1c4>
    32ac:	00c50633          	add	x12,x10,x12
    32b0:	00a63533          	sltu	x10,x12,x10
    32b4:	00e78733          	add	x14,x15,x14
    32b8:	00a70733          	add	x14,x14,x10
    32bc:	01f71513          	slli	x10,x14,0x1f
    32c0:	00165613          	srli	x12,x12,0x1
    32c4:	00c56533          	or	x10,x10,x12
    32c8:	00175793          	srli	x15,x14,0x1
    32cc:	00068413          	addi	x8,x13,0
    32d0:	d9dff06f          	jal	x0,306c <__subdf3+0x124>
    32d4:	00200413          	addi	x8,x0,2
    32d8:	ff800737          	lui	x14,0xff800
    32dc:	fff70713          	addi	x14,x14,-1 # ff7fffff <_estack+0xfc7fffff>
    32e0:	00e7f7b3          	and	x15,x15,x14
    32e4:	00155713          	srli	x14,x10,0x1
    32e8:	00157513          	andi	x10,x10,1
    32ec:	00a76733          	or	x14,x14,x10
    32f0:	01f79513          	slli	x10,x15,0x1f
    32f4:	00e56533          	or	x10,x10,x14
    32f8:	0017d793          	srli	x15,x15,0x1
    32fc:	d71ff06f          	jal	x0,306c <__subdf3+0x124>
    3300:	12b05663          	bge	x0,x11,342c <__subdf3+0x4e4>
    3304:	04081463          	bne	x16,x0,334c <__subdf3+0x404>
    3308:	00c766b3          	or	x13,x14,x12
    330c:	42068e63          	beq	x13,x0,3748 <__subdf3+0x800>
    3310:	fff58693          	addi	x13,x11,-1 # 7fffff <_sibss+0x7facc3>
    3314:	02069063          	bne	x13,x0,3334 <__subdf3+0x3ec>
    3318:	40c50633          	sub	x12,x10,x12
    331c:	00c536b3          	sltu	x13,x10,x12
    3320:	40e78733          	sub	x14,x15,x14
    3324:	00060513          	addi	x10,x12,0
    3328:	40d707b3          	sub	x15,x14,x13
    332c:	00100413          	addi	x8,x0,1
    3330:	0740006f          	jal	x0,33a4 <__subdf3+0x45c>
    3334:	d71582e3          	beq	x11,x17,3098 <__subdf3+0x150>
    3338:	03800593          	addi	x11,x0,56
    333c:	02d5d463          	bge	x11,x13,3364 <__subdf3+0x41c>
    3340:	00000693          	addi	x13,x0,0
    3344:	00100613          	addi	x12,x0,1
    3348:	0480006f          	jal	x0,3390 <__subdf3+0x448>
    334c:	d31400e3          	beq	x8,x17,306c <__subdf3+0x124>
    3350:	03800693          	addi	x13,x0,56
    3354:	feb6c6e3          	blt	x13,x11,3340 <__subdf3+0x3f8>
    3358:	008006b7          	lui	x13,0x800
    335c:	00d76733          	or	x14,x14,x13
    3360:	00058693          	addi	x13,x11,0
    3364:	01f00593          	addi	x11,x0,31
    3368:	04d5cc63          	blt	x11,x13,33c0 <__subdf3+0x478>
    336c:	02000813          	addi	x16,x0,32
    3370:	40d80833          	sub	x16,x16,x13
    3374:	00d658b3          	srl	x17,x12,x13
    3378:	010715b3          	sll	x11,x14,x16
    337c:	01061833          	sll	x16,x12,x16
    3380:	0115e5b3          	or	x11,x11,x17
    3384:	01003833          	sltu	x16,x0,x16
    3388:	0105e633          	or	x12,x11,x16
    338c:	00d756b3          	srl	x13,x14,x13
    3390:	40c50633          	sub	x12,x10,x12
    3394:	00c53733          	sltu	x14,x10,x12
    3398:	40d786b3          	sub	x13,x15,x13
    339c:	00060513          	addi	x10,x12,0
    33a0:	40e687b3          	sub	x15,x13,x14
    33a4:	00800737          	lui	x14,0x800
    33a8:	00e7f6b3          	and	x13,x15,x14
    33ac:	cc0680e3          	beq	x13,x0,306c <__subdf3+0x124>
    33b0:	fff70713          	addi	x14,x14,-1 # 7fffff <_sibss+0x7facc3>
    33b4:	00e7f9b3          	and	x19,x15,x14
    33b8:	00050913          	addi	x18,x10,0
    33bc:	23c0006f          	jal	x0,35f8 <__subdf3+0x6b0>
    33c0:	fe068593          	addi	x11,x13,-32 # 7fffe0 <_sibss+0x7faca4>
    33c4:	02000893          	addi	x17,x0,32
    33c8:	00b755b3          	srl	x11,x14,x11
    33cc:	00000813          	addi	x16,x0,0
    33d0:	01168863          	beq	x13,x17,33e0 <__subdf3+0x498>
    33d4:	04000813          	addi	x16,x0,64
    33d8:	40d80833          	sub	x16,x16,x13
    33dc:	01071833          	sll	x16,x14,x16
    33e0:	00c86833          	or	x16,x16,x12
    33e4:	01003833          	sltu	x16,x0,x16
    33e8:	0105e633          	or	x12,x11,x16
    33ec:	00000693          	addi	x13,x0,0
    33f0:	fa1ff06f          	jal	x0,3390 <__subdf3+0x448>
    33f4:	12058c63          	beq	x11,x0,352c <__subdf3+0x5e4>
    33f8:	06040663          	beq	x8,x0,3464 <__subdf3+0x51c>
    33fc:	00070793          	addi	x15,x14,0
    3400:	00060513          	addi	x10,x12,0
    3404:	7ff00413          	addi	x8,x0,2047
    3408:	00068493          	addi	x9,x13,0
    340c:	c61ff06f          	jal	x0,306c <__subdf3+0x124>
    3410:	10058e63          	beq	x11,x0,352c <__subdf3+0x5e4>
    3414:	04040e63          	beq	x8,x0,3470 <__subdf3+0x528>
    3418:	00000793          	addi	x15,x0,0
    341c:	00000513          	addi	x10,x0,0
    3420:	7ff00413          	addi	x8,x0,2047
    3424:	00030493          	addi	x9,x6,0
    3428:	bc9ff06f          	jal	x0,2ff0 <__subdf3+0xa8>
    342c:	10058063          	beq	x11,x0,352c <__subdf3+0x5e4>
    3430:	408806b3          	sub	x13,x16,x8
    3434:	06041063          	bne	x8,x0,3494 <__subdf3+0x54c>
    3438:	00030493          	addi	x9,x6,0
    343c:	00068413          	addi	x8,x13,0
    3440:	00a7e6b3          	or	x13,x15,x10
    3444:	d8068ee3          	beq	x13,x0,31e0 <__subdf3+0x298>
    3448:	fff40693          	addi	x13,x8,-1
    344c:	02069663          	bne	x13,x0,3478 <__subdf3+0x530>
    3450:	40a60533          	sub	x10,x12,x10
    3454:	40f70733          	sub	x14,x14,x15
    3458:	00a63633          	sltu	x12,x12,x10
    345c:	40c707b3          	sub	x15,x14,x12
    3460:	ecdff06f          	jal	x0,332c <__subdf3+0x3e4>
    3464:	00068493          	addi	x9,x13,0
    3468:	7ff00413          	addi	x8,x0,2047
    346c:	fd5ff06f          	jal	x0,3440 <__subdf3+0x4f8>
    3470:	00030493          	addi	x9,x6,0
    3474:	ff5ff06f          	jal	x0,3468 <__subdf3+0x520>
    3478:	7ff00593          	addi	x11,x0,2047
    347c:	d6b402e3          	beq	x8,x11,31e0 <__subdf3+0x298>
    3480:	03800593          	addi	x11,x0,56
    3484:	02d5d263          	bge	x11,x13,34a8 <__subdf3+0x560>
    3488:	00000693          	addi	x13,x0,0
    348c:	00100593          	addi	x11,x0,1
    3490:	0440006f          	jal	x0,34d4 <__subdf3+0x58c>
    3494:	03800593          	addi	x11,x0,56
    3498:	08d5c663          	blt	x11,x13,3524 <__subdf3+0x5dc>
    349c:	008005b7          	lui	x11,0x800
    34a0:	00b7e7b3          	or	x15,x15,x11
    34a4:	00030493          	addi	x9,x6,0
    34a8:	01f00593          	addi	x11,x0,31
    34ac:	04d5c263          	blt	x11,x13,34f0 <__subdf3+0x5a8>
    34b0:	02000893          	addi	x17,x0,32
    34b4:	40d888b3          	sub	x17,x17,x13
    34b8:	011795b3          	sll	x11,x15,x17
    34bc:	00d55333          	srl	x6,x10,x13
    34c0:	011518b3          	sll	x17,x10,x17
    34c4:	0065e5b3          	or	x11,x11,x6
    34c8:	011038b3          	sltu	x17,x0,x17
    34cc:	0115e5b3          	or	x11,x11,x17
    34d0:	00d7d6b3          	srl	x13,x15,x13
    34d4:	40b605b3          	sub	x11,x12,x11
    34d8:	40d706b3          	sub	x13,x14,x13
    34dc:	00b63633          	sltu	x12,x12,x11
    34e0:	00058513          	addi	x10,x11,0 # 800000 <_sibss+0x7facc4>
    34e4:	40c687b3          	sub	x15,x13,x12
    34e8:	00080413          	addi	x8,x16,0
    34ec:	eb9ff06f          	jal	x0,33a4 <__subdf3+0x45c>
    34f0:	fe068593          	addi	x11,x13,-32
    34f4:	02000313          	addi	x6,x0,32
    34f8:	00b7d5b3          	srl	x11,x15,x11
    34fc:	00000893          	addi	x17,x0,0
    3500:	00668863          	beq	x13,x6,3510 <__subdf3+0x5c8>
    3504:	04000893          	addi	x17,x0,64
    3508:	40d888b3          	sub	x17,x17,x13
    350c:	011798b3          	sll	x17,x15,x17
    3510:	00a8e8b3          	or	x17,x17,x10
    3514:	011038b3          	sltu	x17,x0,x17
    3518:	0115e5b3          	or	x11,x11,x17
    351c:	00000693          	addi	x13,x0,0
    3520:	fb5ff06f          	jal	x0,34d4 <__subdf3+0x58c>
    3524:	00030493          	addi	x9,x6,0
    3528:	f61ff06f          	jal	x0,3488 <__subdf3+0x540>
    352c:	00140693          	addi	x13,x8,1
    3530:	7fe6f693          	andi	x13,x13,2046
    3534:	08069863          	bne	x13,x0,35c4 <__subdf3+0x67c>
    3538:	00c766b3          	or	x13,x14,x12
    353c:	00a7e5b3          	or	x11,x15,x10
    3540:	06041263          	bne	x8,x0,35a4 <__subdf3+0x65c>
    3544:	00059c63          	bne	x11,x0,355c <__subdf3+0x614>
    3548:	22068a63          	beq	x13,x0,377c <__subdf3+0x834>
    354c:	00070793          	addi	x15,x14,0
    3550:	00060513          	addi	x10,x12,0
    3554:	00030493          	addi	x9,x6,0
    3558:	b15ff06f          	jal	x0,306c <__subdf3+0x124>
    355c:	b00688e3          	beq	x13,x0,306c <__subdf3+0x124>
    3560:	40c50833          	sub	x16,x10,x12
    3564:	010536b3          	sltu	x13,x10,x16
    3568:	40e785b3          	sub	x11,x15,x14
    356c:	40d585b3          	sub	x11,x11,x13
    3570:	008006b7          	lui	x13,0x800
    3574:	00d5f6b3          	and	x13,x11,x13
    3578:	00068c63          	beq	x13,x0,3590 <__subdf3+0x648>
    357c:	40a60533          	sub	x10,x12,x10
    3580:	40f70733          	sub	x14,x14,x15
    3584:	00a63633          	sltu	x12,x12,x10
    3588:	40c707b3          	sub	x15,x14,x12
    358c:	fc9ff06f          	jal	x0,3554 <__subdf3+0x60c>
    3590:	00b866b3          	or	x13,x16,x11
    3594:	1e068463          	beq	x13,x0,377c <__subdf3+0x834>
    3598:	00058793          	addi	x15,x11,0
    359c:	00080513          	addi	x10,x16,0
    35a0:	acdff06f          	jal	x0,306c <__subdf3+0x124>
    35a4:	00059c63          	bne	x11,x0,35bc <__subdf3+0x674>
    35a8:	1c068e63          	beq	x13,x0,3784 <__subdf3+0x83c>
    35ac:	00070793          	addi	x15,x14,0
    35b0:	00060513          	addi	x10,x12,0
    35b4:	00030493          	addi	x9,x6,0
    35b8:	ae1ff06f          	jal	x0,3098 <__subdf3+0x150>
    35bc:	ac068ee3          	beq	x13,x0,3098 <__subdf3+0x150>
    35c0:	cd1ff06f          	jal	x0,3290 <__subdf3+0x348>
    35c4:	40c506b3          	sub	x13,x10,x12
    35c8:	00d535b3          	sltu	x11,x10,x13
    35cc:	40e789b3          	sub	x19,x15,x14
    35d0:	40b989b3          	sub	x19,x19,x11
    35d4:	008005b7          	lui	x11,0x800
    35d8:	00b9f5b3          	and	x11,x19,x11
    35dc:	00068913          	addi	x18,x13,0 # 800000 <_sibss+0x7facc4>
    35e0:	06058c63          	beq	x11,x0,3658 <__subdf3+0x710>
    35e4:	40a60933          	sub	x18,x12,x10
    35e8:	40f70733          	sub	x14,x14,x15
    35ec:	01263633          	sltu	x12,x12,x18
    35f0:	40c709b3          	sub	x19,x14,x12
    35f4:	00030493          	addi	x9,x6,0
    35f8:	06098a63          	beq	x19,x0,366c <__subdf3+0x724>
    35fc:	00098513          	addi	x10,x19,0
    3600:	ed5fc0ef          	jal	x1,4d4 <__clzsi2>
    3604:	ff850793          	addi	x15,x10,-8
    3608:	02000693          	addi	x13,x0,32
    360c:	40f686b3          	sub	x13,x13,x15
    3610:	00f99733          	sll	x14,x19,x15
    3614:	00d956b3          	srl	x13,x18,x13
    3618:	00e6e6b3          	or	x13,x13,x14
    361c:	00f919b3          	sll	x19,x18,x15
    3620:	1087c263          	blt	x15,x8,3724 <__subdf3+0x7dc>
    3624:	408787b3          	sub	x15,x15,x8
    3628:	00178793          	addi	x15,x15,1 # 80001 <_sibss+0x7acc5>
    362c:	02000713          	addi	x14,x0,32
    3630:	40f70733          	sub	x14,x14,x15
    3634:	00e69533          	sll	x10,x13,x14
    3638:	00f9d633          	srl	x12,x19,x15
    363c:	00e99733          	sll	x14,x19,x14
    3640:	00c56533          	or	x10,x10,x12
    3644:	00e03733          	sltu	x14,x0,x14
    3648:	00e56533          	or	x10,x10,x14
    364c:	00f6d7b3          	srl	x15,x13,x15
    3650:	00000413          	addi	x8,x0,0
    3654:	a19ff06f          	jal	x0,306c <__subdf3+0x124>
    3658:	0136e6b3          	or	x13,x13,x19
    365c:	f8069ee3          	bne	x13,x0,35f8 <__subdf3+0x6b0>
    3660:	00000793          	addi	x15,x0,0
    3664:	00000413          	addi	x8,x0,0
    3668:	10c0006f          	jal	x0,3774 <__subdf3+0x82c>
    366c:	00090513          	addi	x10,x18,0
    3670:	e65fc0ef          	jal	x1,4d4 <__clzsi2>
    3674:	01850793          	addi	x15,x10,24
    3678:	01f00713          	addi	x14,x0,31
    367c:	f8f756e3          	bge	x14,x15,3608 <__subdf3+0x6c0>
    3680:	ff850513          	addi	x10,x10,-8
    3684:	00a916b3          	sll	x13,x18,x10
    3688:	0487c063          	blt	x15,x8,36c8 <__subdf3+0x780>
    368c:	40878533          	sub	x10,x15,x8
    3690:	00150793          	addi	x15,x10,1
    3694:	f8f75ce3          	bge	x14,x15,362c <__subdf3+0x6e4>
    3698:	fe150513          	addi	x10,x10,-31
    369c:	02000613          	addi	x12,x0,32
    36a0:	00a6d733          	srl	x14,x13,x10
    36a4:	00000513          	addi	x10,x0,0
    36a8:	00c78863          	beq	x15,x12,36b8 <__subdf3+0x770>
    36ac:	04000513          	addi	x10,x0,64
    36b0:	40f50533          	sub	x10,x10,x15
    36b4:	00a69533          	sll	x10,x13,x10
    36b8:	00a03533          	sltu	x10,x0,x10
    36bc:	00e56533          	or	x10,x10,x14
    36c0:	00000793          	addi	x15,x0,0
    36c4:	f8dff06f          	jal	x0,3650 <__subdf3+0x708>
    36c8:	40f40433          	sub	x8,x8,x15
    36cc:	ff8007b7          	lui	x15,0xff800
    36d0:	fff78793          	addi	x15,x15,-1 # ff7fffff <_estack+0xfc7fffff>
    36d4:	00f6f7b3          	and	x15,x13,x15
    36d8:	01d79693          	slli	x13,x15,0x1d
    36dc:	0037d793          	srli	x15,x15,0x3
    36e0:	01441713          	slli	x14,x8,0x14
    36e4:	7ff00637          	lui	x12,0x7ff00
    36e8:	00c79793          	slli	x15,x15,0xc
    36ec:	01c12083          	lw	x1,28(x2)
    36f0:	01812403          	lw	x8,24(x2)
    36f4:	00c77733          	and	x14,x14,x12
    36f8:	00c7d793          	srli	x15,x15,0xc
    36fc:	01f49493          	slli	x9,x9,0x1f
    3700:	00f767b3          	or	x15,x14,x15
    3704:	0097e733          	or	x14,x15,x9
    3708:	01012903          	lw	x18,16(x2)
    370c:	01412483          	lw	x9,20(x2)
    3710:	00c12983          	lw	x19,12(x2)
    3714:	00068513          	addi	x10,x13,0
    3718:	00070593          	addi	x11,x14,0
    371c:	02010113          	addi	x2,x2,32
    3720:	00008067          	jalr	x0,0(x1)
    3724:	40f40433          	sub	x8,x8,x15
    3728:	ff8007b7          	lui	x15,0xff800
    372c:	fff78793          	addi	x15,x15,-1 # ff7fffff <_estack+0xfc7fffff>
    3730:	00f6f7b3          	and	x15,x13,x15
    3734:	00098513          	addi	x10,x19,0
    3738:	935ff06f          	jal	x0,306c <__subdf3+0x124>
    373c:	00070793          	addi	x15,x14,0
    3740:	00060513          	addi	x10,x12,0 # 7ff00000 <_estack+0x7cf00000>
    3744:	955ff06f          	jal	x0,3098 <__subdf3+0x150>
    3748:	00058413          	addi	x8,x11,0 # 800000 <_sibss+0x7facc4>
    374c:	921ff06f          	jal	x0,306c <__subdf3+0x124>
    3750:	01d79713          	slli	x14,x15,0x1d
    3754:	00355513          	srli	x10,x10,0x3
    3758:	7ff00613          	addi	x12,x0,2047
    375c:	00a76733          	or	x14,x14,x10
    3760:	0037d793          	srli	x15,x15,0x3
    3764:	02c41863          	bne	x8,x12,3794 <__subdf3+0x84c>
    3768:	00f76733          	or	x14,x14,x15
    376c:	000807b7          	lui	x15,0x80
    3770:	98070ee3          	beq	x14,x0,310c <__subdf3+0x1c4>
    3774:	00000493          	addi	x9,x0,0
    3778:	f69ff06f          	jal	x0,36e0 <__subdf3+0x798>
    377c:	00000793          	addi	x15,x0,0
    3780:	ff5ff06f          	jal	x0,3774 <__subdf3+0x82c>
    3784:	00000493          	addi	x9,x0,0
    3788:	7ff00413          	addi	x8,x0,2047
    378c:	000807b7          	lui	x15,0x80
    3790:	f51ff06f          	jal	x0,36e0 <__subdf3+0x798>
    3794:	00070693          	addi	x13,x14,0
    3798:	f49ff06f          	jal	x0,36e0 <__subdf3+0x798>

0000379c <__unorddf2>:
    379c:	001007b7          	lui	x15,0x100
    37a0:	fff78793          	addi	x15,x15,-1 # fffff <_sibss+0xfacc3>
    37a4:	00b7f733          	and	x14,x15,x11
    37a8:	0145d593          	srli	x11,x11,0x14
    37ac:	00d7f7b3          	and	x15,x15,x13
    37b0:	7ff5f593          	andi	x11,x11,2047
    37b4:	0146d693          	srli	x13,x13,0x14
    37b8:	7ff00813          	addi	x16,x0,2047
    37bc:	7ff6f693          	andi	x13,x13,2047
    37c0:	01059863          	bne	x11,x16,37d0 <__unorddf2+0x34>
    37c4:	00a76733          	or	x14,x14,x10
    37c8:	00100513          	addi	x10,x0,1
    37cc:	00071c63          	bne	x14,x0,37e4 <__unorddf2+0x48>
    37d0:	7ff00713          	addi	x14,x0,2047
    37d4:	00000513          	addi	x10,x0,0
    37d8:	00e69663          	bne	x13,x14,37e4 <__unorddf2+0x48>
    37dc:	00c7e7b3          	or	x15,x15,x12
    37e0:	00f03533          	sltu	x10,x0,x15
    37e4:	00008067          	jalr	x0,0(x1)

000037e8 <__divsi3>:
    37e8:	06054063          	blt	x10,x0,3848 <__umodsi3+0x10>
    37ec:	0605c663          	blt	x11,x0,3858 <__umodsi3+0x20>

000037f0 <__hidden___udivsi3>:
    37f0:	00058613          	addi	x12,x11,0
    37f4:	00050593          	addi	x11,x10,0
    37f8:	fff00513          	addi	x10,x0,-1
    37fc:	02060c63          	beq	x12,x0,3834 <__hidden___udivsi3+0x44>
    3800:	00100693          	addi	x13,x0,1
    3804:	00b67a63          	bgeu	x12,x11,3818 <__hidden___udivsi3+0x28>
    3808:	00c05863          	bge	x0,x12,3818 <__hidden___udivsi3+0x28>
    380c:	00161613          	slli	x12,x12,0x1
    3810:	00169693          	slli	x13,x13,0x1
    3814:	feb66ae3          	bltu	x12,x11,3808 <__hidden___udivsi3+0x18>
    3818:	00000513          	addi	x10,x0,0
    381c:	00c5e663          	bltu	x11,x12,3828 <__hidden___udivsi3+0x38>
    3820:	40c585b3          	sub	x11,x11,x12
    3824:	00d56533          	or	x10,x10,x13
    3828:	0016d693          	srli	x13,x13,0x1
    382c:	00165613          	srli	x12,x12,0x1
    3830:	fe0696e3          	bne	x13,x0,381c <__hidden___udivsi3+0x2c>
    3834:	00008067          	jalr	x0,0(x1)

00003838 <__umodsi3>:
    3838:	00008293          	addi	x5,x1,0
    383c:	fb5ff0ef          	jal	x1,37f0 <__hidden___udivsi3>
    3840:	00058513          	addi	x10,x11,0
    3844:	00028067          	jalr	x0,0(x5)
    3848:	40a00533          	sub	x10,x0,x10
    384c:	00b04863          	blt	x0,x11,385c <__umodsi3+0x24>
    3850:	40b005b3          	sub	x11,x0,x11
    3854:	f9dff06f          	jal	x0,37f0 <__hidden___udivsi3>
    3858:	40b005b3          	sub	x11,x0,x11
    385c:	00008293          	addi	x5,x1,0
    3860:	f91ff0ef          	jal	x1,37f0 <__hidden___udivsi3>
    3864:	40a00533          	sub	x10,x0,x10
    3868:	00028067          	jalr	x0,0(x5)

0000386c <__modsi3>:
    386c:	00008293          	addi	x5,x1,0
    3870:	0005ca63          	blt	x11,x0,3884 <__modsi3+0x18>
    3874:	00054c63          	blt	x10,x0,388c <__modsi3+0x20>
    3878:	f79ff0ef          	jal	x1,37f0 <__hidden___udivsi3>
    387c:	00058513          	addi	x10,x11,0
    3880:	00028067          	jalr	x0,0(x5)
    3884:	40b005b3          	sub	x11,x0,x11
    3888:	fe0558e3          	bge	x10,x0,3878 <__modsi3+0xc>
    388c:	40a00533          	sub	x10,x0,x10
    3890:	f61ff0ef          	jal	x1,37f0 <__hidden___udivsi3>
    3894:	40b00533          	sub	x10,x0,x11
    3898:	00028067          	jalr	x0,0(x5)
    389c:	0000                	.2byte	0x0
	...
