
ieee754.elf:     file format elf32-littleriscv


Disassembly of section .text:

00000000 <_start>:
       0:	00018193          	addi	x3,x3,0 # 2000200 <__global_pointer$>
       4:	03000117          	auipc	x2,0x3000
       8:	ffc10113          	addi	x2,x2,-4 # 3000000 <_estack>
       c:	e0018513          	addi	x10,x3,-512 # 2000000 <_GLOBAL_OFFSET_TABLE_>
      10:	e0018593          	addi	x11,x3,-512 # 2000000 <_GLOBAL_OFFSET_TABLE_>
      14:	00002297          	auipc	x5,0x2
      18:	8c428293          	addi	x5,x5,-1852 # 18d8 <_sidata>
      1c:	00b50c63          	beq	x10,x11,34 <_bss>

00000020 <_copy_data>:
      20:	0002a303          	lw	x6,0(x5)
      24:	00652023          	sw	x6,0(x10)
      28:	00428293          	addi	x5,x5,4
      2c:	00450513          	addi	x10,x10,4
      30:	feb518e3          	bne	x10,x11,20 <_copy_data>

00000034 <_bss>:
      34:	e1018513          	addi	x10,x3,-496 # 2000010 <__bss_end__>
      38:	e1018593          	addi	x11,x3,-496 # 2000010 <__bss_end__>
      3c:	00002297          	auipc	x5,0x2
      40:	8ac28293          	addi	x5,x5,-1876 # 18e8 <_sibss>
      44:	00b50c63          	beq	x10,x11,5c <_entry>

00000048 <_copy_bss>:
      48:	0002a303          	lw	x6,0(x5)
      4c:	00052303          	lw	x6,0(x10)
      50:	00428293          	addi	x5,x5,4
      54:	00450513          	addi	x10,x10,4
      58:	feb518e3          	bne	x10,x11,48 <_copy_bss>

0000005c <_entry>:
      5c:	004000ef          	jal	x1,60 <main>

00000060 <main>:
      60:	fd010113          	addi	x2,x2,-48
      64:	02112623          	sw	x1,44(x2)
      68:	02812423          	sw	x8,40(x2)
      6c:	03212223          	sw	x18,36(x2)
      70:	03312023          	sw	x19,32(x2)
      74:	03010413          	addi	x8,x2,48
      78:	000017b7          	lui	x15,0x1
      7c:	7887a783          	lw	x15,1928(x15) # 1788 <_etext>
      80:	fef42623          	sw	x15,-20(x8)
      84:	000017b7          	lui	x15,0x1
      88:	78c7a783          	lw	x15,1932(x15) # 178c <_etext+0x4>
      8c:	fef42423          	sw	x15,-24(x8)
      90:	07200793          	addi	x15,x0,114
      94:	fef42223          	sw	x15,-28(x8)
      98:	000017b7          	lui	x15,0x1
      9c:	7907a703          	lw	x14,1936(x15) # 1790 <_etext+0x8>
      a0:	7947a783          	lw	x15,1940(x15)
      a4:	fce42c23          	sw	x14,-40(x8)
      a8:	fcf42e23          	sw	x15,-36(x8)
      ac:	fe842583          	lw	x11,-24(x8)
      b0:	fec42503          	lw	x10,-20(x8)
      b4:	170010ef          	jal	x1,1224 <__mulsf3>
      b8:	00050793          	addi	x15,x10,0
      bc:	00078513          	addi	x10,x15,0
      c0:	4c8010ef          	jal	x1,1588 <__extendsfdf2>
      c4:	00050913          	addi	x18,x10,0
      c8:	00058993          	addi	x19,x11,0
      cc:	fe442503          	lw	x10,-28(x8)
      d0:	0ac010ef          	jal	x1,117c <__floatsidf>
      d4:	00050713          	addi	x14,x10,0
      d8:	00058793          	addi	x15,x11,0
      dc:	fd842603          	lw	x12,-40(x8)
      e0:	fdc42683          	lw	x13,-36(x8)
      e4:	00070513          	addi	x10,x14,0
      e8:	00078593          	addi	x11,x15,0
      ec:	041000ef          	jal	x1,92c <__divdf3>
      f0:	00050713          	addi	x14,x10,0
      f4:	00058793          	addi	x15,x11,0
      f8:	00070613          	addi	x12,x14,0
      fc:	00078693          	addi	x13,x15,0
     100:	00090513          	addi	x10,x18,0
     104:	00098593          	addi	x11,x19,0
     108:	038000ef          	jal	x1,140 <__adddf3>
     10c:	00050713          	addi	x14,x10,0
     110:	00058793          	addi	x15,x11,0
     114:	00070513          	addi	x10,x14,0
     118:	00078593          	addi	x11,x15,0
     11c:	7e1000ef          	jal	x1,10fc <__fixdfsi>
     120:	00050793          	addi	x15,x10,0
     124:	00078513          	addi	x10,x15,0
     128:	02c12083          	lw	x1,44(x2)
     12c:	02812403          	lw	x8,40(x2)
     130:	02412903          	lw	x18,36(x2)
     134:	02012983          	lw	x19,32(x2)
     138:	03010113          	addi	x2,x2,48
     13c:	00008067          	jalr	x0,0(x1)

00000140 <__adddf3>:
     140:	00100737          	lui	x14,0x100
     144:	fff70713          	addi	x14,x14,-1 # fffff <_sibss+0xfe717>
     148:	fe010113          	addi	x2,x2,-32
     14c:	00b777b3          	and	x15,x14,x11
     150:	0146d893          	srli	x17,x13,0x14
     154:	00d77733          	and	x14,x14,x13
     158:	00812c23          	sw	x8,24(x2)
     15c:	00912a23          	sw	x9,20(x2)
     160:	0145d413          	srli	x8,x11,0x14
     164:	01f5d493          	srli	x9,x11,0x1f
     168:	00379593          	slli	x11,x15,0x3
     16c:	01d55793          	srli	x15,x10,0x1d
     170:	7ff47413          	andi	x8,x8,2047
     174:	00b7e7b3          	or	x15,x15,x11
     178:	7ff8f893          	andi	x17,x17,2047
     17c:	00371593          	slli	x11,x14,0x3
     180:	00112e23          	sw	x1,28(x2)
     184:	01d65713          	srli	x14,x12,0x1d
     188:	01212823          	sw	x18,16(x2)
     18c:	01312623          	sw	x19,12(x2)
     190:	01f6d693          	srli	x13,x13,0x1f
     194:	00b76733          	or	x14,x14,x11
     198:	00351513          	slli	x10,x10,0x3
     19c:	00361613          	slli	x12,x12,0x3
     1a0:	411405b3          	sub	x11,x8,x17
     1a4:	30d49a63          	bne	x9,x13,4b8 <__adddf3+0x378>
     1a8:	16b05463          	bge	x0,x11,310 <__adddf3+0x1d0>
     1ac:	0a089063          	bne	x17,x0,24c <__adddf3+0x10c>
     1b0:	00c766b3          	or	x13,x14,x12
     1b4:	70068863          	beq	x13,x0,8c4 <__adddf3+0x784>
     1b8:	fff58693          	addi	x13,x11,-1
     1bc:	08069063          	bne	x13,x0,23c <__adddf3+0xfc>
     1c0:	00c50633          	add	x12,x10,x12
     1c4:	00a636b3          	sltu	x13,x12,x10
     1c8:	00e78733          	add	x14,x15,x14
     1cc:	00d707b3          	add	x15,x14,x13
     1d0:	00800737          	lui	x14,0x800
     1d4:	00e7f733          	and	x14,x15,x14
     1d8:	00060513          	addi	x10,x12,0
     1dc:	2a071863          	bne	x14,x0,48c <__adddf3+0x34c>
     1e0:	00100413          	addi	x8,x0,1
     1e4:	00757713          	andi	x14,x10,7
     1e8:	02070063          	beq	x14,x0,208 <__adddf3+0xc8>
     1ec:	00f57713          	andi	x14,x10,15
     1f0:	00400693          	addi	x13,x0,4
     1f4:	00d70a63          	beq	x14,x13,208 <__adddf3+0xc8>
     1f8:	00450713          	addi	x14,x10,4
     1fc:	00a736b3          	sltu	x13,x14,x10
     200:	00d787b3          	add	x15,x15,x13
     204:	00070513          	addi	x10,x14,0 # 800000 <_sibss+0x7fe718>
     208:	008005b7          	lui	x11,0x800
     20c:	00b7f5b3          	and	x11,x15,x11
     210:	6c058c63          	beq	x11,x0,8e8 <__adddf3+0x7a8>
     214:	00140413          	addi	x8,x8,1
     218:	7ff00713          	addi	x14,x0,2047
     21c:	0ae40263          	beq	x8,x14,2c0 <__adddf3+0x180>
     220:	ff800737          	lui	x14,0xff800
     224:	fff70713          	addi	x14,x14,-1 # ff7fffff <_estack+0xfc7fffff>
     228:	00e7f7b3          	and	x15,x15,x14
     22c:	00355513          	srli	x10,x10,0x3
     230:	01d79593          	slli	x11,x15,0x1d
     234:	00a5e5b3          	or	x11,x11,x10
     238:	6240006f          	jal	x0,85c <__adddf3+0x71c>
     23c:	7ff00813          	addi	x16,x0,2047
     240:	09059463          	bne	x11,x16,2c8 <__adddf3+0x188>
     244:	7ff00413          	addi	x8,x0,2047
     248:	f9dff06f          	jal	x0,1e4 <__adddf3+0xa4>
     24c:	7ff00693          	addi	x13,x0,2047
     250:	f8d40ae3          	beq	x8,x13,1e4 <__adddf3+0xa4>
     254:	03800693          	addi	x13,x0,56
     258:	06b6cc63          	blt	x13,x11,2d0 <__adddf3+0x190>
     25c:	008006b7          	lui	x13,0x800
     260:	00d76733          	or	x14,x14,x13
     264:	00058693          	addi	x13,x11,0 # 800000 <_sibss+0x7fe718>
     268:	01f00593          	addi	x11,x0,31
     26c:	06d5c863          	blt	x11,x13,2dc <__adddf3+0x19c>
     270:	02000813          	addi	x16,x0,32
     274:	40d80833          	sub	x16,x16,x13
     278:	00d658b3          	srl	x17,x12,x13
     27c:	010715b3          	sll	x11,x14,x16
     280:	01061833          	sll	x16,x12,x16
     284:	0115e5b3          	or	x11,x11,x17
     288:	01003833          	sltu	x16,x0,x16
     28c:	0105e633          	or	x12,x11,x16
     290:	00d756b3          	srl	x13,x14,x13
     294:	00a60533          	add	x10,x12,x10
     298:	00f686b3          	add	x13,x13,x15
     29c:	00c53633          	sltu	x12,x10,x12
     2a0:	00c687b3          	add	x15,x13,x12
     2a4:	00800737          	lui	x14,0x800
     2a8:	00e7f733          	and	x14,x15,x14
     2ac:	f2070ce3          	beq	x14,x0,1e4 <__adddf3+0xa4>
     2b0:	00140413          	addi	x8,x8,1
     2b4:	7ff00713          	addi	x14,x0,2047
     2b8:	1ce41c63          	bne	x8,x14,490 <__adddf3+0x350>
     2bc:	7ff00413          	addi	x8,x0,2047
     2c0:	00000793          	addi	x15,x0,0
     2c4:	1900006f          	jal	x0,454 <__adddf3+0x314>
     2c8:	03800593          	addi	x11,x0,56
     2cc:	f8d5dee3          	bge	x11,x13,268 <__adddf3+0x128>
     2d0:	00000693          	addi	x13,x0,0
     2d4:	00100613          	addi	x12,x0,1
     2d8:	fbdff06f          	jal	x0,294 <__adddf3+0x154>
     2dc:	fe068593          	addi	x11,x13,-32 # 7fffe0 <_sibss+0x7fe6f8>
     2e0:	02000893          	addi	x17,x0,32
     2e4:	00b755b3          	srl	x11,x14,x11
     2e8:	00000813          	addi	x16,x0,0
     2ec:	01168863          	beq	x13,x17,2fc <__adddf3+0x1bc>
     2f0:	04000813          	addi	x16,x0,64
     2f4:	40d80833          	sub	x16,x16,x13
     2f8:	01071833          	sll	x16,x14,x16
     2fc:	00c86833          	or	x16,x16,x12
     300:	01003833          	sltu	x16,x0,x16
     304:	0105e633          	or	x12,x11,x16
     308:	00000693          	addi	x13,x0,0
     30c:	f89ff06f          	jal	x0,294 <__adddf3+0x154>
     310:	0c058e63          	beq	x11,x0,3ec <__adddf3+0x2ac>
     314:	408885b3          	sub	x11,x17,x8
     318:	02041463          	bne	x8,x0,340 <__adddf3+0x200>
     31c:	00a7e6b3          	or	x13,x15,x10
     320:	58068e63          	beq	x13,x0,8bc <__adddf3+0x77c>
     324:	fff58693          	addi	x13,x11,-1
     328:	e8068ce3          	beq	x13,x0,1c0 <__adddf3+0x80>
     32c:	7ff00813          	addi	x16,x0,2047
     330:	07059a63          	bne	x11,x16,3a4 <__adddf3+0x264>
     334:	00070793          	addi	x15,x14,0 # 800000 <_sibss+0x7fe718>
     338:	00060513          	addi	x10,x12,0
     33c:	f09ff06f          	jal	x0,244 <__adddf3+0x104>
     340:	7ff00693          	addi	x13,x0,2047
     344:	fed888e3          	beq	x17,x13,334 <__adddf3+0x1f4>
     348:	03800693          	addi	x13,x0,56
     34c:	06b6c063          	blt	x13,x11,3ac <__adddf3+0x26c>
     350:	008006b7          	lui	x13,0x800
     354:	00d7e7b3          	or	x15,x15,x13
     358:	00058693          	addi	x13,x11,0
     35c:	01f00593          	addi	x11,x0,31
     360:	04d5cc63          	blt	x11,x13,3b8 <__adddf3+0x278>
     364:	02000813          	addi	x16,x0,32
     368:	40d80833          	sub	x16,x16,x13
     36c:	010795b3          	sll	x11,x15,x16
     370:	00d55333          	srl	x6,x10,x13
     374:	01051833          	sll	x16,x10,x16
     378:	0065e5b3          	or	x11,x11,x6
     37c:	01003833          	sltu	x16,x0,x16
     380:	0105e5b3          	or	x11,x11,x16
     384:	00d7d6b3          	srl	x13,x15,x13
     388:	00c58633          	add	x12,x11,x12
     38c:	00e686b3          	add	x13,x13,x14
     390:	00b635b3          	sltu	x11,x12,x11
     394:	00060513          	addi	x10,x12,0
     398:	00b687b3          	add	x15,x13,x11
     39c:	00088413          	addi	x8,x17,0
     3a0:	f05ff06f          	jal	x0,2a4 <__adddf3+0x164>
     3a4:	03800593          	addi	x11,x0,56
     3a8:	fad5dae3          	bge	x11,x13,35c <__adddf3+0x21c>
     3ac:	00000693          	addi	x13,x0,0
     3b0:	00100593          	addi	x11,x0,1
     3b4:	fd5ff06f          	jal	x0,388 <__adddf3+0x248>
     3b8:	fe068593          	addi	x11,x13,-32 # 7fffe0 <_sibss+0x7fe6f8>
     3bc:	02000313          	addi	x6,x0,32
     3c0:	00b7d5b3          	srl	x11,x15,x11
     3c4:	00000813          	addi	x16,x0,0
     3c8:	00668863          	beq	x13,x6,3d8 <__adddf3+0x298>
     3cc:	04000813          	addi	x16,x0,64
     3d0:	40d80833          	sub	x16,x16,x13
     3d4:	01079833          	sll	x16,x15,x16
     3d8:	00a86833          	or	x16,x16,x10
     3dc:	01003833          	sltu	x16,x0,x16
     3e0:	0105e5b3          	or	x11,x11,x16
     3e4:	00000693          	addi	x13,x0,0
     3e8:	fa1ff06f          	jal	x0,388 <__adddf3+0x248>
     3ec:	00140693          	addi	x13,x8,1
     3f0:	7fe6f593          	andi	x11,x13,2046
     3f4:	06059463          	bne	x11,x0,45c <__adddf3+0x31c>
     3f8:	00a7e6b3          	or	x13,x15,x10
     3fc:	04041063          	bne	x8,x0,43c <__adddf3+0x2fc>
     400:	4c068663          	beq	x13,x0,8cc <__adddf3+0x78c>
     404:	00c766b3          	or	x13,x14,x12
     408:	dc068ee3          	beq	x13,x0,1e4 <__adddf3+0xa4>
     40c:	00c50633          	add	x12,x10,x12
     410:	00a636b3          	sltu	x13,x12,x10
     414:	00e78733          	add	x14,x15,x14
     418:	00d707b3          	add	x15,x14,x13
     41c:	00800737          	lui	x14,0x800
     420:	00e7f733          	and	x14,x15,x14
     424:	00060513          	addi	x10,x12,0
     428:	da070ee3          	beq	x14,x0,1e4 <__adddf3+0xa4>
     42c:	ff800737          	lui	x14,0xff800
     430:	fff70713          	addi	x14,x14,-1 # ff7fffff <_estack+0xfc7fffff>
     434:	00e7f7b3          	and	x15,x15,x14
     438:	da9ff06f          	jal	x0,1e0 <__adddf3+0xa0>
     43c:	ee068ce3          	beq	x13,x0,334 <__adddf3+0x1f4>
     440:	00c76633          	or	x12,x14,x12
     444:	e00600e3          	beq	x12,x0,244 <__adddf3+0x104>
     448:	00000493          	addi	x9,x0,0
     44c:	7ff00413          	addi	x8,x0,2047
     450:	000807b7          	lui	x15,0x80
     454:	00000593          	addi	x11,x0,0
     458:	4080006f          	jal	x0,860 <__adddf3+0x720>
     45c:	7ff00593          	addi	x11,x0,2047
     460:	e4b68ee3          	beq	x13,x11,2bc <__adddf3+0x17c>
     464:	00c50633          	add	x12,x10,x12
     468:	00a63533          	sltu	x10,x12,x10
     46c:	00e78733          	add	x14,x15,x14
     470:	00a70733          	add	x14,x14,x10
     474:	01f71513          	slli	x10,x14,0x1f
     478:	00165613          	srli	x12,x12,0x1
     47c:	00c56533          	or	x10,x10,x12
     480:	00175793          	srli	x15,x14,0x1
     484:	00068413          	addi	x8,x13,0
     488:	d5dff06f          	jal	x0,1e4 <__adddf3+0xa4>
     48c:	00200413          	addi	x8,x0,2
     490:	ff800737          	lui	x14,0xff800
     494:	fff70713          	addi	x14,x14,-1 # ff7fffff <_estack+0xfc7fffff>
     498:	00e7f7b3          	and	x15,x15,x14
     49c:	00155713          	srli	x14,x10,0x1
     4a0:	00157513          	andi	x10,x10,1
     4a4:	00a76733          	or	x14,x14,x10
     4a8:	01f79513          	slli	x10,x15,0x1f
     4ac:	00e56533          	or	x10,x10,x14
     4b0:	0017d793          	srli	x15,x15,0x1
     4b4:	d31ff06f          	jal	x0,1e4 <__adddf3+0xa4>
     4b8:	0eb05e63          	bge	x0,x11,5b4 <__adddf3+0x474>
     4bc:	04089663          	bne	x17,x0,508 <__adddf3+0x3c8>
     4c0:	00c766b3          	or	x13,x14,x12
     4c4:	40068063          	beq	x13,x0,8c4 <__adddf3+0x784>
     4c8:	fff58693          	addi	x13,x11,-1
     4cc:	02069063          	bne	x13,x0,4ec <__adddf3+0x3ac>
     4d0:	40c50633          	sub	x12,x10,x12
     4d4:	00c536b3          	sltu	x13,x10,x12
     4d8:	40e78733          	sub	x14,x15,x14
     4dc:	00060513          	addi	x10,x12,0
     4e0:	40d707b3          	sub	x15,x14,x13
     4e4:	00100413          	addi	x8,x0,1
     4e8:	07c0006f          	jal	x0,564 <__adddf3+0x424>
     4ec:	7ff00813          	addi	x16,x0,2047
     4f0:	d5058ae3          	beq	x11,x16,244 <__adddf3+0x104>
     4f4:	03800593          	addi	x11,x0,56
     4f8:	02d5d663          	bge	x11,x13,524 <__adddf3+0x3e4>
     4fc:	00000693          	addi	x13,x0,0
     500:	00100613          	addi	x12,x0,1
     504:	04c0006f          	jal	x0,550 <__adddf3+0x410>
     508:	7ff00693          	addi	x13,x0,2047
     50c:	ccd40ce3          	beq	x8,x13,1e4 <__adddf3+0xa4>
     510:	03800693          	addi	x13,x0,56
     514:	feb6c4e3          	blt	x13,x11,4fc <__adddf3+0x3bc>
     518:	008006b7          	lui	x13,0x800
     51c:	00d76733          	or	x14,x14,x13
     520:	00058693          	addi	x13,x11,0
     524:	01f00593          	addi	x11,x0,31
     528:	04d5cc63          	blt	x11,x13,580 <__adddf3+0x440>
     52c:	02000813          	addi	x16,x0,32
     530:	40d80833          	sub	x16,x16,x13
     534:	00d658b3          	srl	x17,x12,x13
     538:	010715b3          	sll	x11,x14,x16
     53c:	01061833          	sll	x16,x12,x16
     540:	0115e5b3          	or	x11,x11,x17
     544:	01003833          	sltu	x16,x0,x16
     548:	0105e633          	or	x12,x11,x16
     54c:	00d756b3          	srl	x13,x14,x13
     550:	40c50633          	sub	x12,x10,x12
     554:	00c53733          	sltu	x14,x10,x12
     558:	40d786b3          	sub	x13,x15,x13
     55c:	00060513          	addi	x10,x12,0
     560:	40e687b3          	sub	x15,x13,x14
     564:	00800737          	lui	x14,0x800
     568:	00e7f6b3          	and	x13,x15,x14
     56c:	c6068ce3          	beq	x13,x0,1e4 <__adddf3+0xa4>
     570:	fff70713          	addi	x14,x14,-1 # 7fffff <_sibss+0x7fe717>
     574:	00e7f9b3          	and	x19,x15,x14
     578:	00050913          	addi	x18,x10,0
     57c:	1fc0006f          	jal	x0,778 <__adddf3+0x638>
     580:	fe068593          	addi	x11,x13,-32 # 7fffe0 <_sibss+0x7fe6f8>
     584:	02000893          	addi	x17,x0,32
     588:	00b755b3          	srl	x11,x14,x11
     58c:	00000813          	addi	x16,x0,0
     590:	01168863          	beq	x13,x17,5a0 <__adddf3+0x460>
     594:	04000813          	addi	x16,x0,64
     598:	40d80833          	sub	x16,x16,x13
     59c:	01071833          	sll	x16,x14,x16
     5a0:	00c86833          	or	x16,x16,x12
     5a4:	01003833          	sltu	x16,x0,x16
     5a8:	0105e633          	or	x12,x11,x16
     5ac:	00000693          	addi	x13,x0,0
     5b0:	fa1ff06f          	jal	x0,550 <__adddf3+0x410>
     5b4:	0e058c63          	beq	x11,x0,6ac <__adddf3+0x56c>
     5b8:	40888833          	sub	x16,x17,x8
     5bc:	04041263          	bne	x8,x0,600 <__adddf3+0x4c0>
     5c0:	00a7e5b3          	or	x11,x15,x10
     5c4:	30058a63          	beq	x11,x0,8d8 <__adddf3+0x798>
     5c8:	fff80593          	addi	x11,x16,-1
     5cc:	00059e63          	bne	x11,x0,5e8 <__adddf3+0x4a8>
     5d0:	40a60533          	sub	x10,x12,x10
     5d4:	40f70733          	sub	x14,x14,x15
     5d8:	00a63633          	sltu	x12,x12,x10
     5dc:	40c707b3          	sub	x15,x14,x12
     5e0:	00068493          	addi	x9,x13,0
     5e4:	f01ff06f          	jal	x0,4e4 <__adddf3+0x3a4>
     5e8:	7ff00313          	addi	x6,x0,2047
     5ec:	06681c63          	bne	x16,x6,664 <__adddf3+0x524>
     5f0:	00070793          	addi	x15,x14,0
     5f4:	00060513          	addi	x10,x12,0
     5f8:	7ff00413          	addi	x8,x0,2047
     5fc:	0d80006f          	jal	x0,6d4 <__adddf3+0x594>
     600:	7ff00593          	addi	x11,x0,2047
     604:	feb886e3          	beq	x17,x11,5f0 <__adddf3+0x4b0>
     608:	03800593          	addi	x11,x0,56
     60c:	0705c063          	blt	x11,x16,66c <__adddf3+0x52c>
     610:	008005b7          	lui	x11,0x800
     614:	00b7e7b3          	or	x15,x15,x11
     618:	00080593          	addi	x11,x16,0
     61c:	01f00813          	addi	x16,x0,31
     620:	04b84c63          	blt	x16,x11,678 <__adddf3+0x538>
     624:	02000313          	addi	x6,x0,32
     628:	40b30333          	sub	x6,x6,x11
     62c:	00b55e33          	srl	x28,x10,x11
     630:	00679833          	sll	x16,x15,x6
     634:	00651333          	sll	x6,x10,x6
     638:	01c86833          	or	x16,x16,x28
     63c:	00603333          	sltu	x6,x0,x6
     640:	00686533          	or	x10,x16,x6
     644:	00b7d5b3          	srl	x11,x15,x11
     648:	40a60533          	sub	x10,x12,x10
     64c:	40b705b3          	sub	x11,x14,x11
     650:	00a63633          	sltu	x12,x12,x10
     654:	40c587b3          	sub	x15,x11,x12
     658:	00088413          	addi	x8,x17,0
     65c:	00068493          	addi	x9,x13,0
     660:	f05ff06f          	jal	x0,564 <__adddf3+0x424>
     664:	03800813          	addi	x16,x0,56
     668:	fab85ae3          	bge	x16,x11,61c <__adddf3+0x4dc>
     66c:	00000593          	addi	x11,x0,0
     670:	00100513          	addi	x10,x0,1
     674:	fd5ff06f          	jal	x0,648 <__adddf3+0x508>
     678:	fe058813          	addi	x16,x11,-32 # 7fffe0 <_sibss+0x7fe6f8>
     67c:	02000e13          	addi	x28,x0,32
     680:	0107d833          	srl	x16,x15,x16
     684:	00000313          	addi	x6,x0,0
     688:	01c58863          	beq	x11,x28,698 <__adddf3+0x558>
     68c:	04000313          	addi	x6,x0,64
     690:	40b30333          	sub	x6,x6,x11
     694:	00679333          	sll	x6,x15,x6
     698:	00a36333          	or	x6,x6,x10
     69c:	00603333          	sltu	x6,x0,x6
     6a0:	00686533          	or	x10,x16,x6
     6a4:	00000593          	addi	x11,x0,0
     6a8:	fa1ff06f          	jal	x0,648 <__adddf3+0x508>
     6ac:	00140593          	addi	x11,x8,1
     6b0:	7fe5f593          	andi	x11,x11,2046
     6b4:	08059863          	bne	x11,x0,744 <__adddf3+0x604>
     6b8:	00a7e833          	or	x16,x15,x10
     6bc:	00c765b3          	or	x11,x14,x12
     6c0:	06041263          	bne	x8,x0,724 <__adddf3+0x5e4>
     6c4:	00081c63          	bne	x16,x0,6dc <__adddf3+0x59c>
     6c8:	10058e63          	beq	x11,x0,7e4 <__adddf3+0x6a4>
     6cc:	00070793          	addi	x15,x14,0
     6d0:	00060513          	addi	x10,x12,0
     6d4:	00068493          	addi	x9,x13,0
     6d8:	b0dff06f          	jal	x0,1e4 <__adddf3+0xa4>
     6dc:	b00584e3          	beq	x11,x0,1e4 <__adddf3+0xa4>
     6e0:	40c508b3          	sub	x17,x10,x12
     6e4:	011535b3          	sltu	x11,x10,x17
     6e8:	40e78833          	sub	x16,x15,x14
     6ec:	40b80833          	sub	x16,x16,x11
     6f0:	008005b7          	lui	x11,0x800
     6f4:	00b875b3          	and	x11,x16,x11
     6f8:	00058c63          	beq	x11,x0,710 <__adddf3+0x5d0>
     6fc:	40a60533          	sub	x10,x12,x10
     700:	40f70733          	sub	x14,x14,x15
     704:	00a63633          	sltu	x12,x12,x10
     708:	40c707b3          	sub	x15,x14,x12
     70c:	fc9ff06f          	jal	x0,6d4 <__adddf3+0x594>
     710:	0108e5b3          	or	x11,x17,x16
     714:	0c058863          	beq	x11,x0,7e4 <__adddf3+0x6a4>
     718:	00080793          	addi	x15,x16,0
     71c:	00088513          	addi	x10,x17,0
     720:	ac5ff06f          	jal	x0,1e4 <__adddf3+0xa4>
     724:	00081c63          	bne	x16,x0,73c <__adddf3+0x5fc>
     728:	1e058663          	beq	x11,x0,914 <__adddf3+0x7d4>
     72c:	00070793          	addi	x15,x14,0
     730:	00060513          	addi	x10,x12,0
     734:	00068493          	addi	x9,x13,0
     738:	b0dff06f          	jal	x0,244 <__adddf3+0x104>
     73c:	b00584e3          	beq	x11,x0,244 <__adddf3+0x104>
     740:	d09ff06f          	jal	x0,448 <__adddf3+0x308>
     744:	40c505b3          	sub	x11,x10,x12
     748:	00b53833          	sltu	x16,x10,x11
     74c:	40e789b3          	sub	x19,x15,x14
     750:	410989b3          	sub	x19,x19,x16
     754:	00800837          	lui	x16,0x800
     758:	0109f833          	and	x16,x19,x16
     75c:	00058913          	addi	x18,x11,0 # 800000 <_sibss+0x7fe718>
     760:	06080c63          	beq	x16,x0,7d8 <__adddf3+0x698>
     764:	40a60933          	sub	x18,x12,x10
     768:	40f70733          	sub	x14,x14,x15
     76c:	01263633          	sltu	x12,x12,x18
     770:	40c709b3          	sub	x19,x14,x12
     774:	00068493          	addi	x9,x13,0
     778:	06098a63          	beq	x19,x0,7ec <__adddf3+0x6ac>
     77c:	00098513          	addi	x10,x19,0
     780:	7bd000ef          	jal	x1,173c <__clzsi2>
     784:	ff850793          	addi	x15,x10,-8
     788:	02000693          	addi	x13,x0,32
     78c:	40f686b3          	sub	x13,x13,x15
     790:	00f99733          	sll	x14,x19,x15
     794:	00d956b3          	srl	x13,x18,x13
     798:	00e6e6b3          	or	x13,x13,x14
     79c:	00f919b3          	sll	x19,x18,x15
     7a0:	1087c263          	blt	x15,x8,8a4 <__adddf3+0x764>
     7a4:	408787b3          	sub	x15,x15,x8
     7a8:	00178793          	addi	x15,x15,1 # 80001 <_sibss+0x7e719>
     7ac:	02000713          	addi	x14,x0,32
     7b0:	40f70733          	sub	x14,x14,x15
     7b4:	00e69533          	sll	x10,x13,x14
     7b8:	00f9d633          	srl	x12,x19,x15
     7bc:	00e99733          	sll	x14,x19,x14
     7c0:	00c56533          	or	x10,x10,x12
     7c4:	00e03733          	sltu	x14,x0,x14
     7c8:	00e56533          	or	x10,x10,x14
     7cc:	00f6d7b3          	srl	x15,x13,x15
     7d0:	00000413          	addi	x8,x0,0
     7d4:	a11ff06f          	jal	x0,1e4 <__adddf3+0xa4>
     7d8:	0135e5b3          	or	x11,x11,x19
     7dc:	f8059ee3          	bne	x11,x0,778 <__adddf3+0x638>
     7e0:	00000413          	addi	x8,x0,0
     7e4:	00000793          	addi	x15,x0,0
     7e8:	1240006f          	jal	x0,90c <__adddf3+0x7cc>
     7ec:	00090513          	addi	x10,x18,0
     7f0:	74d000ef          	jal	x1,173c <__clzsi2>
     7f4:	01850793          	addi	x15,x10,24
     7f8:	01f00713          	addi	x14,x0,31
     7fc:	f8f756e3          	bge	x14,x15,788 <__adddf3+0x648>
     800:	ff850513          	addi	x10,x10,-8
     804:	00a916b3          	sll	x13,x18,x10
     808:	0487c063          	blt	x15,x8,848 <__adddf3+0x708>
     80c:	40878533          	sub	x10,x15,x8
     810:	00150793          	addi	x15,x10,1
     814:	f8f75ce3          	bge	x14,x15,7ac <__adddf3+0x66c>
     818:	fe150513          	addi	x10,x10,-31
     81c:	02000613          	addi	x12,x0,32
     820:	00a6d733          	srl	x14,x13,x10
     824:	00000513          	addi	x10,x0,0
     828:	00c78863          	beq	x15,x12,838 <__adddf3+0x6f8>
     82c:	04000513          	addi	x10,x0,64
     830:	40f50533          	sub	x10,x10,x15
     834:	00a69533          	sll	x10,x13,x10
     838:	00a03533          	sltu	x10,x0,x10
     83c:	00e56533          	or	x10,x10,x14
     840:	00000793          	addi	x15,x0,0
     844:	f8dff06f          	jal	x0,7d0 <__adddf3+0x690>
     848:	40f40433          	sub	x8,x8,x15
     84c:	ff8007b7          	lui	x15,0xff800
     850:	fff78793          	addi	x15,x15,-1 # ff7fffff <_estack+0xfc7fffff>
     854:	00f6f7b3          	and	x15,x13,x15
     858:	01d79593          	slli	x11,x15,0x1d
     85c:	0037d793          	srli	x15,x15,0x3
     860:	01441413          	slli	x8,x8,0x14
     864:	7ff00737          	lui	x14,0x7ff00
     868:	00c79793          	slli	x15,x15,0xc
     86c:	00c7d793          	srli	x15,x15,0xc
     870:	00e47433          	and	x8,x8,x14
     874:	00f46433          	or	x8,x8,x15
     878:	01f49493          	slli	x9,x9,0x1f
     87c:	009467b3          	or	x15,x8,x9
     880:	01c12083          	lw	x1,28(x2)
     884:	01812403          	lw	x8,24(x2)
     888:	01412483          	lw	x9,20(x2)
     88c:	01012903          	lw	x18,16(x2)
     890:	00c12983          	lw	x19,12(x2)
     894:	00058513          	addi	x10,x11,0
     898:	00078593          	addi	x11,x15,0
     89c:	02010113          	addi	x2,x2,32
     8a0:	00008067          	jalr	x0,0(x1)
     8a4:	40f40433          	sub	x8,x8,x15
     8a8:	ff8007b7          	lui	x15,0xff800
     8ac:	fff78793          	addi	x15,x15,-1 # ff7fffff <_estack+0xfc7fffff>
     8b0:	00f6f7b3          	and	x15,x13,x15
     8b4:	00098513          	addi	x10,x19,0
     8b8:	92dff06f          	jal	x0,1e4 <__adddf3+0xa4>
     8bc:	00070793          	addi	x15,x14,0 # 7ff00000 <_estack+0x7cf00000>
     8c0:	00060513          	addi	x10,x12,0
     8c4:	00058413          	addi	x8,x11,0
     8c8:	91dff06f          	jal	x0,1e4 <__adddf3+0xa4>
     8cc:	00070793          	addi	x15,x14,0
     8d0:	00060513          	addi	x10,x12,0
     8d4:	911ff06f          	jal	x0,1e4 <__adddf3+0xa4>
     8d8:	00070793          	addi	x15,x14,0
     8dc:	00060513          	addi	x10,x12,0
     8e0:	00080413          	addi	x8,x16,0 # 800000 <_sibss+0x7fe718>
     8e4:	df1ff06f          	jal	x0,6d4 <__adddf3+0x594>
     8e8:	01d79713          	slli	x14,x15,0x1d
     8ec:	00355513          	srli	x10,x10,0x3
     8f0:	7ff00693          	addi	x13,x0,2047
     8f4:	00a76733          	or	x14,x14,x10
     8f8:	0037d793          	srli	x15,x15,0x3
     8fc:	02d41463          	bne	x8,x13,924 <__adddf3+0x7e4>
     900:	00f76733          	or	x14,x14,x15
     904:	000807b7          	lui	x15,0x80
     908:	9a070ae3          	beq	x14,x0,2bc <__adddf3+0x17c>
     90c:	00000493          	addi	x9,x0,0
     910:	f51ff06f          	jal	x0,860 <__adddf3+0x720>
     914:	00000493          	addi	x9,x0,0
     918:	7ff00413          	addi	x8,x0,2047
     91c:	000807b7          	lui	x15,0x80
     920:	f41ff06f          	jal	x0,860 <__adddf3+0x720>
     924:	00070593          	addi	x11,x14,0
     928:	f39ff06f          	jal	x0,860 <__adddf3+0x720>

0000092c <__divdf3>:
     92c:	fb010113          	addi	x2,x2,-80
     930:	05212023          	sw	x18,64(x2)
     934:	0145d913          	srli	x18,x11,0x14
     938:	04812423          	sw	x8,72(x2)
     93c:	03312e23          	sw	x19,60(x2)
     940:	03412c23          	sw	x20,56(x2)
     944:	03512a23          	sw	x21,52(x2)
     948:	03812423          	sw	x24,40(x2)
     94c:	00c59413          	slli	x8,x11,0xc
     950:	04112623          	sw	x1,76(x2)
     954:	04912223          	sw	x9,68(x2)
     958:	03612823          	sw	x22,48(x2)
     95c:	03712623          	sw	x23,44(x2)
     960:	03912223          	sw	x25,36(x2)
     964:	03a12023          	sw	x26,32(x2)
     968:	01b12e23          	sw	x27,28(x2)
     96c:	7ff97913          	andi	x18,x18,2047
     970:	00050993          	addi	x19,x10,0
     974:	00060c13          	addi	x24,x12,0
     978:	00068a13          	addi	x20,x13,0
     97c:	00c45413          	srli	x8,x8,0xc
     980:	01f5da93          	srli	x21,x11,0x1f
     984:	0a090263          	beq	x18,x0,a28 <__divdf3+0xfc>
     988:	7ff00793          	addi	x15,x0,2047
     98c:	10f90263          	beq	x18,x15,a90 <__divdf3+0x164>
     990:	01d55b13          	srli	x22,x10,0x1d
     994:	00341413          	slli	x8,x8,0x3
     998:	008b6b33          	or	x22,x22,x8
     99c:	008007b7          	lui	x15,0x800
     9a0:	00fb6b33          	or	x22,x22,x15
     9a4:	00351493          	slli	x9,x10,0x3
     9a8:	c0190913          	addi	x18,x18,-1023
     9ac:	00000b93          	addi	x23,x0,0
     9b0:	014a5713          	srli	x14,x20,0x14
     9b4:	00ca1413          	slli	x8,x20,0xc
     9b8:	7ff77713          	andi	x14,x14,2047
     9bc:	00c45413          	srli	x8,x8,0xc
     9c0:	01fa5a13          	srli	x20,x20,0x1f
     9c4:	10070463          	beq	x14,x0,acc <__divdf3+0x1a0>
     9c8:	7ff00793          	addi	x15,x0,2047
     9cc:	16f70863          	beq	x14,x15,b3c <__divdf3+0x210>
     9d0:	00341413          	slli	x8,x8,0x3
     9d4:	01dc5793          	srli	x15,x24,0x1d
     9d8:	0087e7b3          	or	x15,x15,x8
     9dc:	00800437          	lui	x8,0x800
     9e0:	0087e433          	or	x8,x15,x8
     9e4:	003c1693          	slli	x13,x24,0x3
     9e8:	c0170713          	addi	x14,x14,-1023
     9ec:	00000613          	addi	x12,x0,0
     9f0:	002b9793          	slli	x15,x23,0x2
     9f4:	00c7e7b3          	or	x15,x15,x12
     9f8:	40e90933          	sub	x18,x18,x14
     9fc:	fff78793          	addi	x15,x15,-1 # 7fffff <_sibss+0x7fe717>
     a00:	00e00713          	addi	x14,x0,14
     a04:	014ac9b3          	xor	x19,x21,x20
     a08:	18f76e63          	bltu	x14,x15,ba4 <__divdf3+0x278>
     a0c:	00001717          	auipc	x14,0x1
     a10:	d8c70713          	addi	x14,x14,-628 # 1798 <_etext+0x10>
     a14:	00279793          	slli	x15,x15,0x2
     a18:	00e787b3          	add	x15,x15,x14
     a1c:	0007a783          	lw	x15,0(x15)
     a20:	00e787b3          	add	x15,x15,x14
     a24:	00078067          	jalr	x0,0(x15)
     a28:	00a46b33          	or	x22,x8,x10
     a2c:	080b0063          	beq	x22,x0,aac <__divdf3+0x180>
     a30:	02040e63          	beq	x8,x0,a6c <__divdf3+0x140>
     a34:	00040513          	addi	x10,x8,0 # 800000 <_sibss+0x7fe718>
     a38:	505000ef          	jal	x1,173c <__clzsi2>
     a3c:	ff550793          	addi	x15,x10,-11
     a40:	01d00b13          	addi	x22,x0,29
     a44:	ff850713          	addi	x14,x10,-8
     a48:	40fb0b33          	sub	x22,x22,x15
     a4c:	00e41433          	sll	x8,x8,x14
     a50:	0169db33          	srl	x22,x19,x22
     a54:	008b6b33          	or	x22,x22,x8
     a58:	00e99433          	sll	x8,x19,x14
     a5c:	c0d00913          	addi	x18,x0,-1011
     a60:	40a90933          	sub	x18,x18,x10
     a64:	00040493          	addi	x9,x8,0
     a68:	f45ff06f          	jal	x0,9ac <__divdf3+0x80>
     a6c:	4d1000ef          	jal	x1,173c <__clzsi2>
     a70:	00050b13          	addi	x22,x10,0
     a74:	015b0793          	addi	x15,x22,21
     a78:	01c00713          	addi	x14,x0,28
     a7c:	02050513          	addi	x10,x10,32
     a80:	fcf750e3          	bge	x14,x15,a40 <__divdf3+0x114>
     a84:	ff8b0b13          	addi	x22,x22,-8
     a88:	01699b33          	sll	x22,x19,x22
     a8c:	fd1ff06f          	jal	x0,a5c <__divdf3+0x130>
     a90:	00a46b33          	or	x22,x8,x10
     a94:	020b0463          	beq	x22,x0,abc <__divdf3+0x190>
     a98:	00050493          	addi	x9,x10,0
     a9c:	00040b13          	addi	x22,x8,0
     aa0:	7ff00913          	addi	x18,x0,2047
     aa4:	00300b93          	addi	x23,x0,3
     aa8:	f09ff06f          	jal	x0,9b0 <__divdf3+0x84>
     aac:	00000493          	addi	x9,x0,0
     ab0:	00000913          	addi	x18,x0,0
     ab4:	00100b93          	addi	x23,x0,1
     ab8:	ef9ff06f          	jal	x0,9b0 <__divdf3+0x84>
     abc:	00000493          	addi	x9,x0,0
     ac0:	7ff00913          	addi	x18,x0,2047
     ac4:	00200b93          	addi	x23,x0,2
     ac8:	ee9ff06f          	jal	x0,9b0 <__divdf3+0x84>
     acc:	018466b3          	or	x13,x8,x24
     ad0:	08068263          	beq	x13,x0,b54 <__divdf3+0x228>
     ad4:	04040063          	beq	x8,x0,b14 <__divdf3+0x1e8>
     ad8:	00040513          	addi	x10,x8,0
     adc:	461000ef          	jal	x1,173c <__clzsi2>
     ae0:	ff550713          	addi	x14,x10,-11
     ae4:	01d00793          	addi	x15,x0,29
     ae8:	ff850693          	addi	x13,x10,-8
     aec:	40e787b3          	sub	x15,x15,x14
     af0:	00d41433          	sll	x8,x8,x13
     af4:	00fc57b3          	srl	x15,x24,x15
     af8:	0087e7b3          	or	x15,x15,x8
     afc:	00dc1433          	sll	x8,x24,x13
     b00:	c0d00713          	addi	x14,x0,-1011
     b04:	00040693          	addi	x13,x8,0
     b08:	40a70733          	sub	x14,x14,x10
     b0c:	00078413          	addi	x8,x15,0
     b10:	eddff06f          	jal	x0,9ec <__divdf3+0xc0>
     b14:	000c0513          	addi	x10,x24,0
     b18:	425000ef          	jal	x1,173c <__clzsi2>
     b1c:	00050793          	addi	x15,x10,0
     b20:	01578713          	addi	x14,x15,21
     b24:	01c00693          	addi	x13,x0,28
     b28:	02050513          	addi	x10,x10,32
     b2c:	fae6dce3          	bge	x13,x14,ae4 <__divdf3+0x1b8>
     b30:	ff878793          	addi	x15,x15,-8
     b34:	00fc17b3          	sll	x15,x24,x15
     b38:	fc9ff06f          	jal	x0,b00 <__divdf3+0x1d4>
     b3c:	018466b3          	or	x13,x8,x24
     b40:	02068263          	beq	x13,x0,b64 <__divdf3+0x238>
     b44:	000c0693          	addi	x13,x24,0
     b48:	7ff00713          	addi	x14,x0,2047
     b4c:	00300613          	addi	x12,x0,3
     b50:	ea1ff06f          	jal	x0,9f0 <__divdf3+0xc4>
     b54:	00000413          	addi	x8,x0,0
     b58:	00000713          	addi	x14,x0,0
     b5c:	00100613          	addi	x12,x0,1
     b60:	e91ff06f          	jal	x0,9f0 <__divdf3+0xc4>
     b64:	00000413          	addi	x8,x0,0
     b68:	7ff00713          	addi	x14,x0,2047
     b6c:	00200613          	addi	x12,x0,2
     b70:	e81ff06f          	jal	x0,9f0 <__divdf3+0xc4>
     b74:	000a8993          	addi	x19,x21,0
     b78:	000b0413          	addi	x8,x22,0
     b7c:	00048693          	addi	x13,x9,0
     b80:	00200793          	addi	x15,x0,2
     b84:	54fb8c63          	beq	x23,x15,10dc <__divdf3+0x7b0>
     b88:	00300793          	addi	x15,x0,3
     b8c:	52fb8e63          	beq	x23,x15,10c8 <__divdf3+0x79c>
     b90:	00100793          	addi	x15,x0,1
     b94:	3afb9463          	bne	x23,x15,f3c <__divdf3+0x610>
     b98:	00000413          	addi	x8,x0,0
     b9c:	00000713          	addi	x14,x0,0
     ba0:	4ec0006f          	jal	x0,108c <__divdf3+0x760>
     ba4:	01646663          	bltu	x8,x22,bb0 <__divdf3+0x284>
     ba8:	448b1863          	bne	x22,x8,ff8 <__divdf3+0x6cc>
     bac:	44d4e663          	bltu	x9,x13,ff8 <__divdf3+0x6cc>
     bb0:	01fb1713          	slli	x14,x22,0x1f
     bb4:	0014d793          	srli	x15,x9,0x1
     bb8:	01f49d13          	slli	x26,x9,0x1f
     bbc:	001b5b13          	srli	x22,x22,0x1
     bc0:	00f764b3          	or	x9,x14,x15
     bc4:	0186dc13          	srli	x24,x13,0x18
     bc8:	00841413          	slli	x8,x8,0x8
     bcc:	01045793          	srli	x15,x8,0x10
     bd0:	008c6c33          	or	x24,x24,x8
     bd4:	00078593          	addi	x11,x15,0
     bd8:	000b0513          	addi	x10,x22,0
     bdc:	010c1a93          	slli	x21,x24,0x10
     be0:	00f12623          	sw	x15,12(x2)
     be4:	00869c93          	slli	x25,x13,0x8
     be8:	010ada93          	srli	x21,x21,0x10
     bec:	2a5000ef          	jal	x1,1690 <__hidden___udivsi3>
     bf0:	00050593          	addi	x11,x10,0
     bf4:	00050b93          	addi	x23,x10,0
     bf8:	000a8513          	addi	x10,x21,0
     bfc:	269000ef          	jal	x1,1664 <__mulsi3>
     c00:	00c12583          	lw	x11,12(x2)
     c04:	00050413          	addi	x8,x10,0
     c08:	000b0513          	addi	x10,x22,0
     c0c:	2cd000ef          	jal	x1,16d8 <__umodsi3>
     c10:	01051513          	slli	x10,x10,0x10
     c14:	0104d793          	srli	x15,x9,0x10
     c18:	00a7e7b3          	or	x15,x15,x10
     c1c:	000b8b13          	addi	x22,x23,0
     c20:	0087fe63          	bgeu	x15,x8,c3c <__divdf3+0x310>
     c24:	00fc07b3          	add	x15,x24,x15
     c28:	fffb8b13          	addi	x22,x23,-1
     c2c:	0187e863          	bltu	x15,x24,c3c <__divdf3+0x310>
     c30:	0087f663          	bgeu	x15,x8,c3c <__divdf3+0x310>
     c34:	ffeb8b13          	addi	x22,x23,-2
     c38:	018787b3          	add	x15,x15,x24
     c3c:	00c12583          	lw	x11,12(x2)
     c40:	40878433          	sub	x8,x15,x8
     c44:	00040513          	addi	x10,x8,0
     c48:	249000ef          	jal	x1,1690 <__hidden___udivsi3>
     c4c:	00050593          	addi	x11,x10,0
     c50:	00050d93          	addi	x27,x10,0
     c54:	000a8513          	addi	x10,x21,0
     c58:	20d000ef          	jal	x1,1664 <__mulsi3>
     c5c:	00c12583          	lw	x11,12(x2)
     c60:	00050b93          	addi	x23,x10,0
     c64:	00040513          	addi	x10,x8,0
     c68:	271000ef          	jal	x1,16d8 <__umodsi3>
     c6c:	01049793          	slli	x15,x9,0x10
     c70:	01051513          	slli	x10,x10,0x10
     c74:	0107d793          	srli	x15,x15,0x10
     c78:	00a7e7b3          	or	x15,x15,x10
     c7c:	000d8713          	addi	x14,x27,0
     c80:	0177fe63          	bgeu	x15,x23,c9c <__divdf3+0x370>
     c84:	00fc07b3          	add	x15,x24,x15
     c88:	fffd8713          	addi	x14,x27,-1
     c8c:	0187e863          	bltu	x15,x24,c9c <__divdf3+0x370>
     c90:	0177f663          	bgeu	x15,x23,c9c <__divdf3+0x370>
     c94:	ffed8713          	addi	x14,x27,-2
     c98:	018787b3          	add	x15,x15,x24
     c9c:	010b1813          	slli	x16,x22,0x10
     ca0:	00010eb7          	lui	x29,0x10
     ca4:	00e86833          	or	x16,x16,x14
     ca8:	fffe8b13          	addi	x22,x29,-1 # ffff <_sibss+0xe717>
     cac:	016878b3          	and	x17,x16,x22
     cb0:	016cfb33          	and	x22,x25,x22
     cb4:	417787b3          	sub	x15,x15,x23
     cb8:	01085713          	srli	x14,x16,0x10
     cbc:	010cdb93          	srli	x23,x25,0x10
     cc0:	00088513          	addi	x10,x17,0
     cc4:	000b0593          	addi	x11,x22,0
     cc8:	19d000ef          	jal	x1,1664 <__mulsi3>
     ccc:	00050313          	addi	x6,x10,0
     cd0:	000b8593          	addi	x11,x23,0
     cd4:	00088513          	addi	x10,x17,0
     cd8:	18d000ef          	jal	x1,1664 <__mulsi3>
     cdc:	00050893          	addi	x17,x10,0
     ce0:	000b0593          	addi	x11,x22,0
     ce4:	00070513          	addi	x10,x14,0
     ce8:	17d000ef          	jal	x1,1664 <__mulsi3>
     cec:	00050e13          	addi	x28,x10,0
     cf0:	000b8593          	addi	x11,x23,0
     cf4:	00070513          	addi	x10,x14,0
     cf8:	16d000ef          	jal	x1,1664 <__mulsi3>
     cfc:	01035713          	srli	x14,x6,0x10
     d00:	01c888b3          	add	x17,x17,x28
     d04:	01170733          	add	x14,x14,x17
     d08:	00050613          	addi	x12,x10,0
     d0c:	01c77463          	bgeu	x14,x28,d14 <__divdf3+0x3e8>
     d10:	01d50633          	add	x12,x10,x29
     d14:	01075693          	srli	x13,x14,0x10
     d18:	00c686b3          	add	x13,x13,x12
     d1c:	00010637          	lui	x12,0x10
     d20:	fff60613          	addi	x12,x12,-1 # ffff <_sibss+0xe717>
     d24:	00c77733          	and	x14,x14,x12
     d28:	01071713          	slli	x14,x14,0x10
     d2c:	00c37333          	and	x6,x6,x12
     d30:	00670733          	add	x14,x14,x6
     d34:	00d7e863          	bltu	x15,x13,d44 <__divdf3+0x418>
     d38:	00080413          	addi	x8,x16,0
     d3c:	04d79863          	bne	x15,x13,d8c <__divdf3+0x460>
     d40:	04ed7663          	bgeu	x26,x14,d8c <__divdf3+0x460>
     d44:	019d0633          	add	x12,x26,x25
     d48:	01a635b3          	sltu	x11,x12,x26
     d4c:	01858533          	add	x10,x11,x24
     d50:	00a787b3          	add	x15,x15,x10
     d54:	fff80413          	addi	x8,x16,-1
     d58:	00060d13          	addi	x26,x12,0
     d5c:	00fc6663          	bltu	x24,x15,d68 <__divdf3+0x43c>
     d60:	02fc1663          	bne	x24,x15,d8c <__divdf3+0x460>
     d64:	02059463          	bne	x11,x0,d8c <__divdf3+0x460>
     d68:	00d7e663          	bltu	x15,x13,d74 <__divdf3+0x448>
     d6c:	02f69063          	bne	x13,x15,d8c <__divdf3+0x460>
     d70:	00e67e63          	bgeu	x12,x14,d8c <__divdf3+0x460>
     d74:	00cc8633          	add	x12,x25,x12
     d78:	00060d13          	addi	x26,x12,0
     d7c:	01963633          	sltu	x12,x12,x25
     d80:	01860633          	add	x12,x12,x24
     d84:	ffe80413          	addi	x8,x16,-2
     d88:	00c787b3          	add	x15,x15,x12
     d8c:	40ed0db3          	sub	x27,x26,x14
     d90:	40d787b3          	sub	x15,x15,x13
     d94:	01bd3d33          	sltu	x26,x26,x27
     d98:	41a784b3          	sub	x9,x15,x26
     d9c:	fff00693          	addi	x13,x0,-1
     da0:	189c0e63          	beq	x24,x9,f3c <__divdf3+0x610>
     da4:	00c12583          	lw	x11,12(x2)
     da8:	00048513          	addi	x10,x9,0
     dac:	0e5000ef          	jal	x1,1690 <__hidden___udivsi3>
     db0:	00050593          	addi	x11,x10,0
     db4:	00050a13          	addi	x20,x10,0
     db8:	000a8513          	addi	x10,x21,0
     dbc:	0a9000ef          	jal	x1,1664 <__mulsi3>
     dc0:	00c12583          	lw	x11,12(x2)
     dc4:	00050d13          	addi	x26,x10,0
     dc8:	00048513          	addi	x10,x9,0
     dcc:	10d000ef          	jal	x1,16d8 <__umodsi3>
     dd0:	01051513          	slli	x10,x10,0x10
     dd4:	010dd693          	srli	x13,x27,0x10
     dd8:	00a6e6b3          	or	x13,x13,x10
     ddc:	000a0493          	addi	x9,x20,0
     de0:	01a6fe63          	bgeu	x13,x26,dfc <__divdf3+0x4d0>
     de4:	00dc06b3          	add	x13,x24,x13
     de8:	fffa0493          	addi	x9,x20,-1
     dec:	0186e863          	bltu	x13,x24,dfc <__divdf3+0x4d0>
     df0:	01a6f663          	bgeu	x13,x26,dfc <__divdf3+0x4d0>
     df4:	ffea0493          	addi	x9,x20,-2
     df8:	018686b3          	add	x13,x13,x24
     dfc:	00c12583          	lw	x11,12(x2)
     e00:	41a68a33          	sub	x20,x13,x26
     e04:	000a0513          	addi	x10,x20,0
     e08:	089000ef          	jal	x1,1690 <__hidden___udivsi3>
     e0c:	00050593          	addi	x11,x10,0
     e10:	00050d13          	addi	x26,x10,0
     e14:	000a8513          	addi	x10,x21,0
     e18:	04d000ef          	jal	x1,1664 <__mulsi3>
     e1c:	00c12583          	lw	x11,12(x2)
     e20:	00050a93          	addi	x21,x10,0
     e24:	000a0513          	addi	x10,x20,0
     e28:	0b1000ef          	jal	x1,16d8 <__umodsi3>
     e2c:	010d9793          	slli	x15,x27,0x10
     e30:	01051513          	slli	x10,x10,0x10
     e34:	0107d793          	srli	x15,x15,0x10
     e38:	00a7e7b3          	or	x15,x15,x10
     e3c:	000d0713          	addi	x14,x26,0
     e40:	0157fe63          	bgeu	x15,x21,e5c <__divdf3+0x530>
     e44:	00fc07b3          	add	x15,x24,x15
     e48:	fffd0713          	addi	x14,x26,-1
     e4c:	0187e863          	bltu	x15,x24,e5c <__divdf3+0x530>
     e50:	0157f663          	bgeu	x15,x21,e5c <__divdf3+0x530>
     e54:	ffed0713          	addi	x14,x26,-2
     e58:	018787b3          	add	x15,x15,x24
     e5c:	01049813          	slli	x16,x9,0x10
     e60:	00e86833          	or	x16,x16,x14
     e64:	01081893          	slli	x17,x16,0x10
     e68:	0108d893          	srli	x17,x17,0x10
     e6c:	415787b3          	sub	x15,x15,x21
     e70:	01085713          	srli	x14,x16,0x10
     e74:	00088513          	addi	x10,x17,0
     e78:	000b0593          	addi	x11,x22,0
     e7c:	7e8000ef          	jal	x1,1664 <__mulsi3>
     e80:	00050313          	addi	x6,x10,0
     e84:	000b8593          	addi	x11,x23,0
     e88:	00088513          	addi	x10,x17,0
     e8c:	7d8000ef          	jal	x1,1664 <__mulsi3>
     e90:	00050893          	addi	x17,x10,0
     e94:	000b0593          	addi	x11,x22,0
     e98:	00070513          	addi	x10,x14,0
     e9c:	7c8000ef          	jal	x1,1664 <__mulsi3>
     ea0:	00050e13          	addi	x28,x10,0
     ea4:	000b8593          	addi	x11,x23,0
     ea8:	00070513          	addi	x10,x14,0
     eac:	7b8000ef          	jal	x1,1664 <__mulsi3>
     eb0:	01035713          	srli	x14,x6,0x10
     eb4:	01c888b3          	add	x17,x17,x28
     eb8:	01170733          	add	x14,x14,x17
     ebc:	00050693          	addi	x13,x10,0
     ec0:	01c77663          	bgeu	x14,x28,ecc <__divdf3+0x5a0>
     ec4:	00010637          	lui	x12,0x10
     ec8:	00c506b3          	add	x13,x10,x12
     ecc:	01075613          	srli	x12,x14,0x10
     ed0:	00d60633          	add	x12,x12,x13
     ed4:	000106b7          	lui	x13,0x10
     ed8:	fff68693          	addi	x13,x13,-1 # ffff <_sibss+0xe717>
     edc:	00d77733          	and	x14,x14,x13
     ee0:	01071713          	slli	x14,x14,0x10
     ee4:	00d37333          	and	x6,x6,x13
     ee8:	00670733          	add	x14,x14,x6
     eec:	00c7e863          	bltu	x15,x12,efc <__divdf3+0x5d0>
     ef0:	00080693          	addi	x13,x16,0
     ef4:	04c79263          	bne	x15,x12,f38 <__divdf3+0x60c>
     ef8:	04070263          	beq	x14,x0,f3c <__divdf3+0x610>
     efc:	00fc07b3          	add	x15,x24,x15
     f00:	fff80693          	addi	x13,x16,-1
     f04:	00078593          	addi	x11,x15,0
     f08:	0387e463          	bltu	x15,x24,f30 <__divdf3+0x604>
     f0c:	00c7e663          	bltu	x15,x12,f18 <__divdf3+0x5ec>
     f10:	02c79463          	bne	x15,x12,f38 <__divdf3+0x60c>
     f14:	02ecf063          	bgeu	x25,x14,f34 <__divdf3+0x608>
     f18:	001c9513          	slli	x10,x25,0x1
     f1c:	019535b3          	sltu	x11,x10,x25
     f20:	018585b3          	add	x11,x11,x24
     f24:	ffe80693          	addi	x13,x16,-2
     f28:	00b785b3          	add	x11,x15,x11
     f2c:	00050c93          	addi	x25,x10,0
     f30:	00c59463          	bne	x11,x12,f38 <__divdf3+0x60c>
     f34:	01970463          	beq	x14,x25,f3c <__divdf3+0x610>
     f38:	0016e693          	ori	x13,x13,1
     f3c:	3ff90793          	addi	x15,x18,1023
     f40:	0cf05863          	bge	x0,x15,1010 <__divdf3+0x6e4>
     f44:	0076f713          	andi	x14,x13,7
     f48:	02070063          	beq	x14,x0,f68 <__divdf3+0x63c>
     f4c:	00f6f713          	andi	x14,x13,15
     f50:	00400613          	addi	x12,x0,4
     f54:	00c70a63          	beq	x14,x12,f68 <__divdf3+0x63c>
     f58:	00468713          	addi	x14,x13,4
     f5c:	00d73633          	sltu	x12,x14,x13
     f60:	00c40433          	add	x8,x8,x12
     f64:	00070693          	addi	x13,x14,0
     f68:	01000737          	lui	x14,0x1000
     f6c:	00e47733          	and	x14,x8,x14
     f70:	00070a63          	beq	x14,x0,f84 <__divdf3+0x658>
     f74:	ff0007b7          	lui	x15,0xff000
     f78:	fff78793          	addi	x15,x15,-1 # feffffff <_estack+0xfbffffff>
     f7c:	00f47433          	and	x8,x8,x15
     f80:	40090793          	addi	x15,x18,1024
     f84:	7fe00713          	addi	x14,x0,2046
     f88:	14f74a63          	blt	x14,x15,10dc <__divdf3+0x7b0>
     f8c:	01d41713          	slli	x14,x8,0x1d
     f90:	0036d693          	srli	x13,x13,0x3
     f94:	00d76733          	or	x14,x14,x13
     f98:	00345413          	srli	x8,x8,0x3
     f9c:	00c41413          	slli	x8,x8,0xc
     fa0:	00c45413          	srli	x8,x8,0xc
     fa4:	01479793          	slli	x15,x15,0x14
     fa8:	04c12083          	lw	x1,76(x2)
     fac:	0087e7b3          	or	x15,x15,x8
     fb0:	04812403          	lw	x8,72(x2)
     fb4:	01f99993          	slli	x19,x19,0x1f
     fb8:	0137e6b3          	or	x13,x15,x19
     fbc:	04412483          	lw	x9,68(x2)
     fc0:	04012903          	lw	x18,64(x2)
     fc4:	03c12983          	lw	x19,60(x2)
     fc8:	03812a03          	lw	x20,56(x2)
     fcc:	03412a83          	lw	x21,52(x2)
     fd0:	03012b03          	lw	x22,48(x2)
     fd4:	02c12b83          	lw	x23,44(x2)
     fd8:	02812c03          	lw	x24,40(x2)
     fdc:	02412c83          	lw	x25,36(x2)
     fe0:	02012d03          	lw	x26,32(x2)
     fe4:	01c12d83          	lw	x27,28(x2)
     fe8:	00070513          	addi	x10,x14,0 # 1000000 <_sibss+0xffe718>
     fec:	00068593          	addi	x11,x13,0
     ff0:	05010113          	addi	x2,x2,80
     ff4:	00008067          	jalr	x0,0(x1)
     ff8:	fff90913          	addi	x18,x18,-1
     ffc:	00000d13          	addi	x26,x0,0
    1000:	bc5ff06f          	jal	x0,bc4 <__divdf3+0x298>
    1004:	000a0993          	addi	x19,x20,0
    1008:	00060b93          	addi	x23,x12,0 # 10000 <_sibss+0xe718>
    100c:	b75ff06f          	jal	x0,b80 <__divdf3+0x254>
    1010:	00100613          	addi	x12,x0,1
    1014:	00078c63          	beq	x15,x0,102c <__divdf3+0x700>
    1018:	40f60633          	sub	x12,x12,x15
    101c:	03800713          	addi	x14,x0,56
    1020:	b6c74ce3          	blt	x14,x12,b98 <__divdf3+0x26c>
    1024:	01f00713          	addi	x14,x0,31
    1028:	06c74663          	blt	x14,x12,1094 <__divdf3+0x768>
    102c:	41e90913          	addi	x18,x18,1054
    1030:	00c6d7b3          	srl	x15,x13,x12
    1034:	012696b3          	sll	x13,x13,x18
    1038:	00d036b3          	sltu	x13,x0,x13
    103c:	01241933          	sll	x18,x8,x18
    1040:	0126e6b3          	or	x13,x13,x18
    1044:	00d7e7b3          	or	x15,x15,x13
    1048:	00c45433          	srl	x8,x8,x12
    104c:	0077f713          	andi	x14,x15,7
    1050:	02070063          	beq	x14,x0,1070 <__divdf3+0x744>
    1054:	00f7f713          	andi	x14,x15,15
    1058:	00400693          	addi	x13,x0,4
    105c:	00d70a63          	beq	x14,x13,1070 <__divdf3+0x744>
    1060:	00478713          	addi	x14,x15,4
    1064:	00f736b3          	sltu	x13,x14,x15
    1068:	00d40433          	add	x8,x8,x13
    106c:	00070793          	addi	x15,x14,0
    1070:	00800737          	lui	x14,0x800
    1074:	00e47733          	and	x14,x8,x14
    1078:	06071a63          	bne	x14,x0,10ec <__divdf3+0x7c0>
    107c:	01d41713          	slli	x14,x8,0x1d
    1080:	0037d793          	srli	x15,x15,0x3
    1084:	00f76733          	or	x14,x14,x15
    1088:	00345413          	srli	x8,x8,0x3
    108c:	00000793          	addi	x15,x0,0
    1090:	f0dff06f          	jal	x0,f9c <__divdf3+0x670>
    1094:	fe100713          	addi	x14,x0,-31
    1098:	40f707b3          	sub	x15,x14,x15
    109c:	02000593          	addi	x11,x0,32
    10a0:	00f457b3          	srl	x15,x8,x15
    10a4:	00000713          	addi	x14,x0,0
    10a8:	00b60663          	beq	x12,x11,10b4 <__divdf3+0x788>
    10ac:	43e90913          	addi	x18,x18,1086
    10b0:	01241733          	sll	x14,x8,x18
    10b4:	00d76733          	or	x14,x14,x13
    10b8:	00e03733          	sltu	x14,x0,x14
    10bc:	00e7e7b3          	or	x15,x15,x14
    10c0:	00000413          	addi	x8,x0,0
    10c4:	f89ff06f          	jal	x0,104c <__divdf3+0x720>
    10c8:	00080437          	lui	x8,0x80
    10cc:	00000713          	addi	x14,x0,0
    10d0:	7ff00793          	addi	x15,x0,2047
    10d4:	00000993          	addi	x19,x0,0
    10d8:	ec5ff06f          	jal	x0,f9c <__divdf3+0x670>
    10dc:	00000413          	addi	x8,x0,0
    10e0:	00000713          	addi	x14,x0,0
    10e4:	7ff00793          	addi	x15,x0,2047
    10e8:	eb5ff06f          	jal	x0,f9c <__divdf3+0x670>
    10ec:	00000413          	addi	x8,x0,0
    10f0:	00000713          	addi	x14,x0,0
    10f4:	00100793          	addi	x15,x0,1
    10f8:	ea5ff06f          	jal	x0,f9c <__divdf3+0x670>

000010fc <__fixdfsi>:
    10fc:	0145d713          	srli	x14,x11,0x14
    1100:	001006b7          	lui	x13,0x100
    1104:	fff68793          	addi	x15,x13,-1 # fffff <_sibss+0xfe717>
    1108:	7ff77713          	andi	x14,x14,2047
    110c:	3fe00613          	addi	x12,x0,1022
    1110:	00b7f7b3          	and	x15,x15,x11
    1114:	01f5d593          	srli	x11,x11,0x1f
    1118:	04e65e63          	bge	x12,x14,1174 <__fixdfsi+0x78>
    111c:	41d00613          	addi	x12,x0,1053
    1120:	00e65a63          	bge	x12,x14,1134 <__fixdfsi+0x38>
    1124:	80000537          	lui	x10,0x80000
    1128:	fff54513          	xori	x10,x10,-1
    112c:	00a58533          	add	x10,x11,x10
    1130:	00008067          	jalr	x0,0(x1)
    1134:	00d7e7b3          	or	x15,x15,x13
    1138:	43300693          	addi	x13,x0,1075
    113c:	40e686b3          	sub	x13,x13,x14
    1140:	01f00613          	addi	x12,x0,31
    1144:	02d64063          	blt	x12,x13,1164 <__fixdfsi+0x68>
    1148:	bed70713          	addi	x14,x14,-1043 # 7ffbed <_sibss+0x7fe305>
    114c:	00e797b3          	sll	x15,x15,x14
    1150:	00d55533          	srl	x10,x10,x13
    1154:	00a7e533          	or	x10,x15,x10
    1158:	02058063          	beq	x11,x0,1178 <__fixdfsi+0x7c>
    115c:	40a00533          	sub	x10,x0,x10
    1160:	00008067          	jalr	x0,0(x1)
    1164:	41300693          	addi	x13,x0,1043
    1168:	40e68733          	sub	x14,x13,x14
    116c:	00e7d533          	srl	x10,x15,x14
    1170:	fe9ff06f          	jal	x0,1158 <__fixdfsi+0x5c>
    1174:	00000513          	addi	x10,x0,0
    1178:	00008067          	jalr	x0,0(x1)

0000117c <__floatsidf>:
    117c:	ff010113          	addi	x2,x2,-16
    1180:	00112623          	sw	x1,12(x2)
    1184:	00812423          	sw	x8,8(x2)
    1188:	00912223          	sw	x9,4(x2)
    118c:	08050663          	beq	x10,x0,1218 <__floatsidf+0x9c>
    1190:	41f55793          	srai	x15,x10,0x1f
    1194:	00a7c433          	xor	x8,x15,x10
    1198:	40f40433          	sub	x8,x8,x15
    119c:	01f55493          	srli	x9,x10,0x1f
    11a0:	00040513          	addi	x10,x8,0 # 80000 <_sibss+0x7e718>
    11a4:	598000ef          	jal	x1,173c <__clzsi2>
    11a8:	41e00713          	addi	x14,x0,1054
    11ac:	00a00793          	addi	x15,x0,10
    11b0:	40a70733          	sub	x14,x14,x10
    11b4:	04a7c863          	blt	x15,x10,1204 <__floatsidf+0x88>
    11b8:	00b00793          	addi	x15,x0,11
    11bc:	40a787b3          	sub	x15,x15,x10
    11c0:	01550513          	addi	x10,x10,21 # 80000015 <_estack+0x7d000015>
    11c4:	00f457b3          	srl	x15,x8,x15
    11c8:	00a41433          	sll	x8,x8,x10
    11cc:	00048513          	addi	x10,x9,0
    11d0:	00c79793          	slli	x15,x15,0xc
    11d4:	00c7d793          	srli	x15,x15,0xc
    11d8:	01471713          	slli	x14,x14,0x14
    11dc:	01f51513          	slli	x10,x10,0x1f
    11e0:	00f76733          	or	x14,x14,x15
    11e4:	00c12083          	lw	x1,12(x2)
    11e8:	00a767b3          	or	x15,x14,x10
    11ec:	00040513          	addi	x10,x8,0
    11f0:	00812403          	lw	x8,8(x2)
    11f4:	00412483          	lw	x9,4(x2)
    11f8:	00078593          	addi	x11,x15,0
    11fc:	01010113          	addi	x2,x2,16
    1200:	00008067          	jalr	x0,0(x1)
    1204:	ff550513          	addi	x10,x10,-11
    1208:	00a417b3          	sll	x15,x8,x10
    120c:	00048513          	addi	x10,x9,0
    1210:	00000413          	addi	x8,x0,0
    1214:	fbdff06f          	jal	x0,11d0 <__floatsidf+0x54>
    1218:	00000713          	addi	x14,x0,0
    121c:	00000793          	addi	x15,x0,0
    1220:	ff1ff06f          	jal	x0,1210 <__floatsidf+0x94>

00001224 <__mulsf3>:
    1224:	fe010113          	addi	x2,x2,-32
    1228:	01212823          	sw	x18,16(x2)
    122c:	01755913          	srli	x18,x10,0x17
    1230:	00912a23          	sw	x9,20(x2)
    1234:	01312623          	sw	x19,12(x2)
    1238:	01512223          	sw	x21,4(x2)
    123c:	00951493          	slli	x9,x10,0x9
    1240:	00112e23          	sw	x1,28(x2)
    1244:	00812c23          	sw	x8,24(x2)
    1248:	01412423          	sw	x20,8(x2)
    124c:	0ff97913          	andi	x18,x18,255
    1250:	00058a93          	addi	x21,x11,0
    1254:	0094d493          	srli	x9,x9,0x9
    1258:	01f55993          	srli	x19,x10,0x1f
    125c:	1a090e63          	beq	x18,x0,1418 <__mulsf3+0x1f4>
    1260:	0ff00793          	addi	x15,x0,255
    1264:	1cf90a63          	beq	x18,x15,1438 <__mulsf3+0x214>
    1268:	00349493          	slli	x9,x9,0x3
    126c:	040007b7          	lui	x15,0x4000
    1270:	00f4e4b3          	or	x9,x9,x15
    1274:	f8190913          	addi	x18,x18,-127
    1278:	00000a13          	addi	x20,x0,0
    127c:	017ad793          	srli	x15,x21,0x17
    1280:	009a9413          	slli	x8,x21,0x9
    1284:	0ff7f793          	andi	x15,x15,255
    1288:	00945413          	srli	x8,x8,0x9
    128c:	01fada93          	srli	x21,x21,0x1f
    1290:	1c078463          	beq	x15,x0,1458 <__mulsf3+0x234>
    1294:	0ff00713          	addi	x14,x0,255
    1298:	1ee78063          	beq	x15,x14,1478 <__mulsf3+0x254>
    129c:	00341413          	slli	x8,x8,0x3
    12a0:	04000737          	lui	x14,0x4000
    12a4:	00e46433          	or	x8,x8,x14
    12a8:	f8178793          	addi	x15,x15,-127 # 3ffff81 <_estack+0xffff81>
    12ac:	00000713          	addi	x14,x0,0
    12b0:	00f90933          	add	x18,x18,x15
    12b4:	002a1793          	slli	x15,x20,0x2
    12b8:	00e7e7b3          	or	x15,x15,x14
    12bc:	00a00693          	addi	x13,x0,10
    12c0:	0159c833          	xor	x16,x19,x21
    12c4:	00190893          	addi	x17,x18,1
    12c8:	20f6cc63          	blt	x13,x15,14e0 <__mulsf3+0x2bc>
    12cc:	00200693          	addi	x13,x0,2
    12d0:	1cf6c463          	blt	x13,x15,1498 <__mulsf3+0x274>
    12d4:	fff78793          	addi	x15,x15,-1
    12d8:	00100693          	addi	x13,x0,1
    12dc:	1ef6f063          	bgeu	x13,x15,14bc <__mulsf3+0x298>
    12e0:	00010eb7          	lui	x29,0x10
    12e4:	fffe8313          	addi	x6,x29,-1 # ffff <_sibss+0xe717>
    12e8:	0104df93          	srli	x31,x9,0x10
    12ec:	01045f13          	srli	x30,x8,0x10
    12f0:	0064f4b3          	and	x9,x9,x6
    12f4:	00647433          	and	x8,x8,x6
    12f8:	00048513          	addi	x10,x9,0
    12fc:	00040593          	addi	x11,x8,0
    1300:	364000ef          	jal	x1,1664 <__mulsi3>
    1304:	00050713          	addi	x14,x10,0
    1308:	000f0593          	addi	x11,x30,0
    130c:	00048513          	addi	x10,x9,0
    1310:	354000ef          	jal	x1,1664 <__mulsi3>
    1314:	00050793          	addi	x15,x10,0
    1318:	00040593          	addi	x11,x8,0
    131c:	000f8513          	addi	x10,x31,0
    1320:	344000ef          	jal	x1,1664 <__mulsi3>
    1324:	00050e13          	addi	x28,x10,0
    1328:	000f0593          	addi	x11,x30,0
    132c:	000f8513          	addi	x10,x31,0
    1330:	334000ef          	jal	x1,1664 <__mulsi3>
    1334:	01075413          	srli	x8,x14,0x10
    1338:	01c787b3          	add	x15,x15,x28
    133c:	00f40433          	add	x8,x8,x15
    1340:	00050693          	addi	x13,x10,0
    1344:	01c47463          	bgeu	x8,x28,134c <__mulsf3+0x128>
    1348:	01d506b3          	add	x13,x10,x29
    134c:	006477b3          	and	x15,x8,x6
    1350:	00677733          	and	x14,x14,x6
    1354:	01079793          	slli	x15,x15,0x10
    1358:	00e787b3          	add	x15,x15,x14
    135c:	00679713          	slli	x14,x15,0x6
    1360:	01045413          	srli	x8,x8,0x10
    1364:	00e03733          	sltu	x14,x0,x14
    1368:	01a7d793          	srli	x15,x15,0x1a
    136c:	00d40433          	add	x8,x8,x13
    1370:	00f767b3          	or	x15,x14,x15
    1374:	00641413          	slli	x8,x8,0x6
    1378:	00f46433          	or	x8,x8,x15
    137c:	080007b7          	lui	x15,0x8000
    1380:	00f477b3          	and	x15,x8,x15
    1384:	16078e63          	beq	x15,x0,1500 <__mulsf3+0x2dc>
    1388:	00145793          	srli	x15,x8,0x1
    138c:	00147413          	andi	x8,x8,1
    1390:	0087e433          	or	x8,x15,x8
    1394:	07f88513          	addi	x10,x17,127
    1398:	16a05863          	bge	x0,x10,1508 <__mulsf3+0x2e4>
    139c:	00747793          	andi	x15,x8,7
    13a0:	00078a63          	beq	x15,x0,13b4 <__mulsf3+0x190>
    13a4:	00f47793          	andi	x15,x8,15
    13a8:	00400713          	addi	x14,x0,4
    13ac:	00e78463          	beq	x15,x14,13b4 <__mulsf3+0x190>
    13b0:	00440413          	addi	x8,x8,4
    13b4:	080007b7          	lui	x15,0x8000
    13b8:	00f477b3          	and	x15,x8,x15
    13bc:	00078a63          	beq	x15,x0,13d0 <__mulsf3+0x1ac>
    13c0:	f80007b7          	lui	x15,0xf8000
    13c4:	fff78793          	addi	x15,x15,-1 # f7ffffff <_estack+0xf4ffffff>
    13c8:	00f47433          	and	x8,x8,x15
    13cc:	08088513          	addi	x10,x17,128
    13d0:	0fe00793          	addi	x15,x0,254
    13d4:	1aa7c463          	blt	x15,x10,157c <__mulsf3+0x358>
    13d8:	00345793          	srli	x15,x8,0x3
    13dc:	01c12083          	lw	x1,28(x2)
    13e0:	01812403          	lw	x8,24(x2)
    13e4:	00979793          	slli	x15,x15,0x9
    13e8:	01751513          	slli	x10,x10,0x17
    13ec:	0097d793          	srli	x15,x15,0x9
    13f0:	00f56533          	or	x10,x10,x15
    13f4:	01f81813          	slli	x16,x16,0x1f
    13f8:	01412483          	lw	x9,20(x2)
    13fc:	01012903          	lw	x18,16(x2)
    1400:	00c12983          	lw	x19,12(x2)
    1404:	00812a03          	lw	x20,8(x2)
    1408:	00412a83          	lw	x21,4(x2)
    140c:	01056533          	or	x10,x10,x16
    1410:	02010113          	addi	x2,x2,32
    1414:	00008067          	jalr	x0,0(x1)
    1418:	02048a63          	beq	x9,x0,144c <__mulsf3+0x228>
    141c:	00048513          	addi	x10,x9,0
    1420:	31c000ef          	jal	x1,173c <__clzsi2>
    1424:	ffb50793          	addi	x15,x10,-5
    1428:	f8a00913          	addi	x18,x0,-118
    142c:	00f494b3          	sll	x9,x9,x15
    1430:	40a90933          	sub	x18,x18,x10
    1434:	e45ff06f          	jal	x0,1278 <__mulsf3+0x54>
    1438:	0ff00913          	addi	x18,x0,255
    143c:	00300a13          	addi	x20,x0,3
    1440:	e2049ee3          	bne	x9,x0,127c <__mulsf3+0x58>
    1444:	00200a13          	addi	x20,x0,2
    1448:	e35ff06f          	jal	x0,127c <__mulsf3+0x58>
    144c:	00000913          	addi	x18,x0,0
    1450:	00100a13          	addi	x20,x0,1
    1454:	e29ff06f          	jal	x0,127c <__mulsf3+0x58>
    1458:	02040a63          	beq	x8,x0,148c <__mulsf3+0x268>
    145c:	00040513          	addi	x10,x8,0
    1460:	2dc000ef          	jal	x1,173c <__clzsi2>
    1464:	ffb50793          	addi	x15,x10,-5
    1468:	00f41433          	sll	x8,x8,x15
    146c:	f8a00793          	addi	x15,x0,-118
    1470:	40a787b3          	sub	x15,x15,x10
    1474:	e39ff06f          	jal	x0,12ac <__mulsf3+0x88>
    1478:	0ff00793          	addi	x15,x0,255
    147c:	00300713          	addi	x14,x0,3
    1480:	e20418e3          	bne	x8,x0,12b0 <__mulsf3+0x8c>
    1484:	00200713          	addi	x14,x0,2
    1488:	e29ff06f          	jal	x0,12b0 <__mulsf3+0x8c>
    148c:	00000793          	addi	x15,x0,0
    1490:	00100713          	addi	x14,x0,1
    1494:	e1dff06f          	jal	x0,12b0 <__mulsf3+0x8c>
    1498:	00100693          	addi	x13,x0,1
    149c:	00f697b3          	sll	x15,x13,x15
    14a0:	5307f693          	andi	x13,x15,1328
    14a4:	04069863          	bne	x13,x0,14f4 <__mulsf3+0x2d0>
    14a8:	2407f693          	andi	x13,x15,576
    14ac:	0c069063          	bne	x13,x0,156c <__mulsf3+0x348>
    14b0:	0887f793          	andi	x15,x15,136
    14b4:	e20786e3          	beq	x15,x0,12e0 <__mulsf3+0xbc>
    14b8:	000a8813          	addi	x16,x21,0
    14bc:	00200793          	addi	x15,x0,2
    14c0:	0af70e63          	beq	x14,x15,157c <__mulsf3+0x358>
    14c4:	00300793          	addi	x15,x0,3
    14c8:	0af70263          	beq	x14,x15,156c <__mulsf3+0x348>
    14cc:	00100793          	addi	x15,x0,1
    14d0:	ecf712e3          	bne	x14,x15,1394 <__mulsf3+0x170>
    14d4:	00000793          	addi	x15,x0,0
    14d8:	00000513          	addi	x10,x0,0
    14dc:	f01ff06f          	jal	x0,13dc <__mulsf3+0x1b8>
    14e0:	00f00693          	addi	x13,x0,15
    14e4:	08d78463          	beq	x15,x13,156c <__mulsf3+0x348>
    14e8:	00b00693          	addi	x13,x0,11
    14ec:	00098813          	addi	x16,x19,0
    14f0:	fcd784e3          	beq	x15,x13,14b8 <__mulsf3+0x294>
    14f4:	00048413          	addi	x8,x9,0
    14f8:	000a0713          	addi	x14,x20,0
    14fc:	fc1ff06f          	jal	x0,14bc <__mulsf3+0x298>
    1500:	00090893          	addi	x17,x18,0
    1504:	e91ff06f          	jal	x0,1394 <__mulsf3+0x170>
    1508:	00100713          	addi	x14,x0,1
    150c:	00050c63          	beq	x10,x0,1524 <__mulsf3+0x300>
    1510:	40a70733          	sub	x14,x14,x10
    1514:	01b00693          	addi	x13,x0,27
    1518:	00000793          	addi	x15,x0,0
    151c:	00000513          	addi	x10,x0,0
    1520:	eae6cee3          	blt	x13,x14,13dc <__mulsf3+0x1b8>
    1524:	09e88893          	addi	x17,x17,158
    1528:	00e45733          	srl	x14,x8,x14
    152c:	01141433          	sll	x8,x8,x17
    1530:	00803433          	sltu	x8,x0,x8
    1534:	008767b3          	or	x15,x14,x8
    1538:	0077f713          	andi	x14,x15,7
    153c:	00070a63          	beq	x14,x0,1550 <__mulsf3+0x32c>
    1540:	00f7f713          	andi	x14,x15,15
    1544:	00400693          	addi	x13,x0,4
    1548:	00d70463          	beq	x14,x13,1550 <__mulsf3+0x32c>
    154c:	00478793          	addi	x15,x15,4
    1550:	04000737          	lui	x14,0x4000
    1554:	00e7f733          	and	x14,x15,x14
    1558:	0037d793          	srli	x15,x15,0x3
    155c:	f6070ee3          	beq	x14,x0,14d8 <__mulsf3+0x2b4>
    1560:	00000793          	addi	x15,x0,0
    1564:	00100513          	addi	x10,x0,1
    1568:	e75ff06f          	jal	x0,13dc <__mulsf3+0x1b8>
    156c:	004007b7          	lui	x15,0x400
    1570:	0ff00513          	addi	x10,x0,255
    1574:	00000813          	addi	x16,x0,0
    1578:	e65ff06f          	jal	x0,13dc <__mulsf3+0x1b8>
    157c:	00000793          	addi	x15,x0,0
    1580:	0ff00513          	addi	x10,x0,255
    1584:	e59ff06f          	jal	x0,13dc <__mulsf3+0x1b8>

00001588 <__extendsfdf2>:
    1588:	01755713          	srli	x14,x10,0x17
    158c:	0ff77713          	andi	x14,x14,255
    1590:	ff010113          	addi	x2,x2,-16
    1594:	00170793          	addi	x15,x14,1 # 4000001 <_estack+0x1000001>
    1598:	00812423          	sw	x8,8(x2)
    159c:	00912223          	sw	x9,4(x2)
    15a0:	00951413          	slli	x8,x10,0x9
    15a4:	00112623          	sw	x1,12(x2)
    15a8:	0fe7f793          	andi	x15,x15,254
    15ac:	00945413          	srli	x8,x8,0x9
    15b0:	01f55493          	srli	x9,x10,0x1f
    15b4:	04078263          	beq	x15,x0,15f8 <__extendsfdf2+0x70>
    15b8:	00345793          	srli	x15,x8,0x3
    15bc:	38070713          	addi	x14,x14,896
    15c0:	01d41413          	slli	x8,x8,0x1d
    15c4:	00c79793          	slli	x15,x15,0xc
    15c8:	00c7d793          	srli	x15,x15,0xc
    15cc:	01471713          	slli	x14,x14,0x14
    15d0:	01f49513          	slli	x10,x9,0x1f
    15d4:	00f76733          	or	x14,x14,x15
    15d8:	00c12083          	lw	x1,12(x2)
    15dc:	00a767b3          	or	x15,x14,x10
    15e0:	00040513          	addi	x10,x8,0
    15e4:	00812403          	lw	x8,8(x2)
    15e8:	00412483          	lw	x9,4(x2)
    15ec:	00078593          	addi	x11,x15,0 # 400000 <_sibss+0x3fe718>
    15f0:	01010113          	addi	x2,x2,16
    15f4:	00008067          	jalr	x0,0(x1)
    15f8:	04071663          	bne	x14,x0,1644 <__extendsfdf2+0xbc>
    15fc:	00000793          	addi	x15,x0,0
    1600:	fc0402e3          	beq	x8,x0,15c4 <__extendsfdf2+0x3c>
    1604:	00040513          	addi	x10,x8,0
    1608:	134000ef          	jal	x1,173c <__clzsi2>
    160c:	00a00793          	addi	x15,x0,10
    1610:	02a7c263          	blt	x15,x10,1634 <__extendsfdf2+0xac>
    1614:	00b00793          	addi	x15,x0,11
    1618:	40a787b3          	sub	x15,x15,x10
    161c:	01550713          	addi	x14,x10,21
    1620:	00f457b3          	srl	x15,x8,x15
    1624:	00e41433          	sll	x8,x8,x14
    1628:	38900713          	addi	x14,x0,905
    162c:	40a70733          	sub	x14,x14,x10
    1630:	f95ff06f          	jal	x0,15c4 <__extendsfdf2+0x3c>
    1634:	ff550793          	addi	x15,x10,-11
    1638:	00f417b3          	sll	x15,x8,x15
    163c:	00000413          	addi	x8,x0,0
    1640:	fe9ff06f          	jal	x0,1628 <__extendsfdf2+0xa0>
    1644:	00000793          	addi	x15,x0,0
    1648:	00040a63          	beq	x8,x0,165c <__extendsfdf2+0xd4>
    164c:	00345793          	srli	x15,x8,0x3
    1650:	00080737          	lui	x14,0x80
    1654:	01d41413          	slli	x8,x8,0x1d
    1658:	00e7e7b3          	or	x15,x15,x14
    165c:	7ff00713          	addi	x14,x0,2047
    1660:	f65ff06f          	jal	x0,15c4 <__extendsfdf2+0x3c>

00001664 <__mulsi3>:
    1664:	00050613          	addi	x12,x10,0
    1668:	00000513          	addi	x10,x0,0
    166c:	0015f693          	andi	x13,x11,1
    1670:	00068463          	beq	x13,x0,1678 <__mulsi3+0x14>
    1674:	00c50533          	add	x10,x10,x12
    1678:	0015d593          	srli	x11,x11,0x1
    167c:	00161613          	slli	x12,x12,0x1
    1680:	fe0596e3          	bne	x11,x0,166c <__mulsi3+0x8>
    1684:	00008067          	jalr	x0,0(x1)

00001688 <__divsi3>:
    1688:	06054063          	blt	x10,x0,16e8 <__umodsi3+0x10>
    168c:	0605c663          	blt	x11,x0,16f8 <__umodsi3+0x20>

00001690 <__hidden___udivsi3>:
    1690:	00058613          	addi	x12,x11,0
    1694:	00050593          	addi	x11,x10,0
    1698:	fff00513          	addi	x10,x0,-1
    169c:	02060c63          	beq	x12,x0,16d4 <__hidden___udivsi3+0x44>
    16a0:	00100693          	addi	x13,x0,1
    16a4:	00b67a63          	bgeu	x12,x11,16b8 <__hidden___udivsi3+0x28>
    16a8:	00c05863          	bge	x0,x12,16b8 <__hidden___udivsi3+0x28>
    16ac:	00161613          	slli	x12,x12,0x1
    16b0:	00169693          	slli	x13,x13,0x1
    16b4:	feb66ae3          	bltu	x12,x11,16a8 <__hidden___udivsi3+0x18>
    16b8:	00000513          	addi	x10,x0,0
    16bc:	00c5e663          	bltu	x11,x12,16c8 <__hidden___udivsi3+0x38>
    16c0:	40c585b3          	sub	x11,x11,x12
    16c4:	00d56533          	or	x10,x10,x13
    16c8:	0016d693          	srli	x13,x13,0x1
    16cc:	00165613          	srli	x12,x12,0x1
    16d0:	fe0696e3          	bne	x13,x0,16bc <__hidden___udivsi3+0x2c>
    16d4:	00008067          	jalr	x0,0(x1)

000016d8 <__umodsi3>:
    16d8:	00008293          	addi	x5,x1,0
    16dc:	fb5ff0ef          	jal	x1,1690 <__hidden___udivsi3>
    16e0:	00058513          	addi	x10,x11,0
    16e4:	00028067          	jalr	x0,0(x5)
    16e8:	40a00533          	sub	x10,x0,x10
    16ec:	00b04863          	blt	x0,x11,16fc <__umodsi3+0x24>
    16f0:	40b005b3          	sub	x11,x0,x11
    16f4:	f9dff06f          	jal	x0,1690 <__hidden___udivsi3>
    16f8:	40b005b3          	sub	x11,x0,x11
    16fc:	00008293          	addi	x5,x1,0
    1700:	f91ff0ef          	jal	x1,1690 <__hidden___udivsi3>
    1704:	40a00533          	sub	x10,x0,x10
    1708:	00028067          	jalr	x0,0(x5)

0000170c <__modsi3>:
    170c:	00008293          	addi	x5,x1,0
    1710:	0005ca63          	blt	x11,x0,1724 <__modsi3+0x18>
    1714:	00054c63          	blt	x10,x0,172c <__modsi3+0x20>
    1718:	f79ff0ef          	jal	x1,1690 <__hidden___udivsi3>
    171c:	00058513          	addi	x10,x11,0
    1720:	00028067          	jalr	x0,0(x5)
    1724:	40b005b3          	sub	x11,x0,x11
    1728:	fe0558e3          	bge	x10,x0,1718 <__modsi3+0xc>
    172c:	40a00533          	sub	x10,x0,x10
    1730:	f61ff0ef          	jal	x1,1690 <__hidden___udivsi3>
    1734:	40b00533          	sub	x10,x0,x11
    1738:	00028067          	jalr	x0,0(x5)

0000173c <__clzsi2>:
    173c:	000107b7          	lui	x15,0x10
    1740:	02f57a63          	bgeu	x10,x15,1774 <__clzsi2+0x38>
    1744:	10053793          	sltiu	x15,x10,256
    1748:	0017c793          	xori	x15,x15,1
    174c:	00379793          	slli	x15,x15,0x3
    1750:	02000713          	addi	x14,x0,32
    1754:	40f70733          	sub	x14,x14,x15
    1758:	00f55533          	srl	x10,x10,x15
    175c:	01fff797          	auipc	x15,0x1fff
    1760:	8a87a783          	lw	x15,-1880(x15) # 2000004 <_GLOBAL_OFFSET_TABLE_+0x4>
    1764:	00a787b3          	add	x15,x15,x10
    1768:	0007c503          	lbu	x10,0(x15)
    176c:	40a70533          	sub	x10,x14,x10
    1770:	00008067          	jalr	x0,0(x1)
    1774:	01000737          	lui	x14,0x1000
    1778:	01000793          	addi	x15,x0,16
    177c:	fce56ae3          	bltu	x10,x14,1750 <__clzsi2+0x14>
    1780:	01800793          	addi	x15,x0,24
    1784:	fcdff06f          	jal	x0,1750 <__clzsi2+0x14>
