
test_3.elf:     file format elf64-littleriscv


Disassembly of section .text:

0000000008000000 <.text>:
 8000000:	18000197          	auipc	gp,0x18000
 8000004:	09818193          	add	gp,gp,152 # 0x20000098
 8000008:	850a                	mv	a0,sp
 800000a:	00000593          	li	a1,0
 800000e:	ff017113          	and	sp,sp,-16
 8000012:	ac05                	j	0x8000242
 8000014:	ff018713          	add	a4,gp,-16
 8000018:	ff018793          	add	a5,gp,-16
 800001c:	00e78863          	beq	a5,a4,0x800002c
 8000020:	00000793          	li	a5,0
 8000024:	c781                	beqz	a5,0x800002c
 8000026:	ff018513          	add	a0,gp,-16
 800002a:	8782                	jr	a5
 800002c:	8082                	ret
 800002e:	ff018593          	add	a1,gp,-16
 8000032:	ff018793          	add	a5,gp,-16
 8000036:	8d9d                	sub	a1,a1,a5
 8000038:	858d                	sra	a1,a1,0x3
 800003a:	4789                	li	a5,2
 800003c:	02f5c5b3          	div	a1,a1,a5
 8000040:	c599                	beqz	a1,0x800004e
 8000042:	00000793          	li	a5,0
 8000046:	c781                	beqz	a5,0x800004e
 8000048:	ff018513          	add	a0,gp,-16
 800004c:	8782                	jr	a5
 800004e:	8082                	ret
 8000050:	1141                	add	sp,sp,-16
 8000052:	e022                	sd	s0,0(sp)
 8000054:	0001c783          	lbu	a5,0(gp)
 8000058:	e406                	sd	ra,8(sp)
 800005a:	e38d                	bnez	a5,0x800007c
 800005c:	fb9ff0ef          	jal	0x8000014
 8000060:	00000793          	li	a5,0
 8000064:	cb89                	beqz	a5,0x8000076
 8000066:	08001537          	lui	a0,0x8001
 800006a:	ad850513          	add	a0,a0,-1320 # 0x8000ad8
 800006e:	00000097          	auipc	ra,0x0
 8000072:	000000e7          	jalr	zero # 0x0
 8000076:	4785                	li	a5,1
 8000078:	00f18023          	sb	a5,0(gp)
 800007c:	60a2                	ld	ra,8(sp)
 800007e:	6402                	ld	s0,0(sp)
 8000080:	0141                	add	sp,sp,16
 8000082:	8082                	ret
 8000084:	00000793          	li	a5,0
 8000088:	cf99                	beqz	a5,0x80000a6
 800008a:	08001537          	lui	a0,0x8001
 800008e:	1141                	add	sp,sp,-16
 8000090:	00818593          	add	a1,gp,8
 8000094:	ad850513          	add	a0,a0,-1320 # 0x8000ad8
 8000098:	e406                	sd	ra,8(sp)
 800009a:	00000097          	auipc	ra,0x0
 800009e:	000000e7          	jalr	zero # 0x0
 80000a2:	60a2                	ld	ra,8(sp)
 80000a4:	0141                	add	sp,sp,16
 80000a6:	b761                	j	0x800002e
 80000a8:	f2010113          	add	sp,sp,-224
 80000ac:	0c813c23          	sd	s0,216(sp)
 80000b0:	0e010413          	add	s0,sp,224
 80000b4:	00100793          	li	a5,1
 80000b8:	fef42623          	sw	a5,-20(s0)
 80000bc:	fff00793          	li	a5,-1
 80000c0:	fef42423          	sw	a5,-24(s0)
 80000c4:	fe042223          	sw	zero,-28(s0)
 80000c8:	00500793          	li	a5,5
 80000cc:	fcf42c23          	sw	a5,-40(s0)
 80000d0:	00500793          	li	a5,5
 80000d4:	fcf42a23          	sw	a5,-44(s0)
 80000d8:	00300793          	li	a5,3
 80000dc:	f6f42c23          	sw	a5,-136(s0)
 80000e0:	00100793          	li	a5,1
 80000e4:	f6f42e23          	sw	a5,-132(s0)
 80000e8:	00200793          	li	a5,2
 80000ec:	f8f42023          	sw	a5,-128(s0)
 80000f0:	00400793          	li	a5,4
 80000f4:	f8f42223          	sw	a5,-124(s0)
 80000f8:	00500793          	li	a5,5
 80000fc:	f8f42423          	sw	a5,-120(s0)
 8000100:	fe042023          	sw	zero,-32(s0)
 8000104:	10c0006f          	j	0x8000210
 8000108:	fe042783          	lw	a5,-32(s0)
 800010c:	00279793          	sll	a5,a5,0x2
 8000110:	ff078793          	add	a5,a5,-16
 8000114:	008787b3          	add	a5,a5,s0
 8000118:	f887a783          	lw	a5,-120(a5)
 800011c:	fcf42823          	sw	a5,-48(s0)
 8000120:	fec42783          	lw	a5,-20(s0)
 8000124:	fcf42e23          	sw	a5,-36(s0)
 8000128:	0780006f          	j	0x80001a0
 800012c:	fe842783          	lw	a5,-24(s0)
 8000130:	0017879b          	addw	a5,a5,1
 8000134:	fef42423          	sw	a5,-24(s0)
 8000138:	fe842783          	lw	a5,-24(s0)
 800013c:	00279793          	sll	a5,a5,0x2
 8000140:	ff078793          	add	a5,a5,-16
 8000144:	008787b3          	add	a5,a5,s0
 8000148:	fdc42703          	lw	a4,-36(s0)
 800014c:	f2e7ac23          	sw	a4,-200(a5)
 8000150:	fdc42783          	lw	a5,-36(s0)
 8000154:	0017879b          	addw	a5,a5,1
 8000158:	fef42623          	sw	a5,-20(s0)
 800015c:	fe442783          	lw	a5,-28(s0)
 8000160:	0017e793          	or	a5,a5,1
 8000164:	fef42223          	sw	a5,-28(s0)
 8000168:	fe442783          	lw	a5,-28(s0)
 800016c:	0017979b          	sllw	a5,a5,0x1
 8000170:	fef42223          	sw	a5,-28(s0)
 8000174:	fe842783          	lw	a5,-24(s0)
 8000178:	00078713          	mv	a4,a5
 800017c:	fd442783          	lw	a5,-44(s0)
 8000180:	0007071b          	sext.w	a4,a4
 8000184:	0007879b          	sext.w	a5,a5
 8000188:	00f74663          	blt	a4,a5,0x8000194
 800018c:	fff00793          	li	a5,-1
 8000190:	09c0006f          	j	0x800022c
 8000194:	fdc42783          	lw	a5,-36(s0)
 8000198:	0017879b          	addw	a5,a5,1
 800019c:	fcf42e23          	sw	a5,-36(s0)
 80001a0:	fdc42783          	lw	a5,-36(s0)
 80001a4:	00078713          	mv	a4,a5
 80001a8:	fd042783          	lw	a5,-48(s0)
 80001ac:	0007071b          	sext.w	a4,a4
 80001b0:	0007879b          	sext.w	a5,a5
 80001b4:	f6e7dce3          	bge	a5,a4,0x800012c
 80001b8:	fe842783          	lw	a5,-24(s0)
 80001bc:	fff7871b          	addw	a4,a5,-1
 80001c0:	fee42423          	sw	a4,-24(s0)
 80001c4:	00279793          	sll	a5,a5,0x2
 80001c8:	ff078793          	add	a5,a5,-16
 80001cc:	008787b3          	add	a5,a5,s0
 80001d0:	f387a783          	lw	a5,-200(a5)
 80001d4:	fcf42623          	sw	a5,-52(s0)
 80001d8:	fcc42783          	lw	a5,-52(s0)
 80001dc:	00078713          	mv	a4,a5
 80001e0:	fd042783          	lw	a5,-48(s0)
 80001e4:	0007071b          	sext.w	a4,a4
 80001e8:	0007879b          	sext.w	a5,a5
 80001ec:	00f70663          	beq	a4,a5,0x80001f8
 80001f0:	fff00793          	li	a5,-1
 80001f4:	0380006f          	j	0x800022c
 80001f8:	fe442783          	lw	a5,-28(s0)
 80001fc:	0017979b          	sllw	a5,a5,0x1
 8000200:	fef42223          	sw	a5,-28(s0)
 8000204:	fe042783          	lw	a5,-32(s0)
 8000208:	0017879b          	addw	a5,a5,1
 800020c:	fef42023          	sw	a5,-32(s0)
 8000210:	fe042783          	lw	a5,-32(s0)
 8000214:	00078713          	mv	a4,a5
 8000218:	fd842783          	lw	a5,-40(s0)
 800021c:	0007071b          	sext.w	a4,a4
 8000220:	0007879b          	sext.w	a5,a5
 8000224:	eef742e3          	blt	a4,a5,0x8000108
 8000228:	fe442783          	lw	a5,-28(s0)
 800022c:	00078513          	mv	a0,a5
 8000230:	0d813403          	ld	s0,216(sp)
 8000234:	0e010113          	add	sp,sp,224
 8000238:	00008067          	ret
 800023c:	822a                	mv	tp,a0
 800023e:	4501                	li	a0,0
 8000240:	8082                	ret
 8000242:	410c                	lw	a1,0(a0)
 8000244:	00850613          	add	a2,a0,8
 8000248:	4781                	li	a5,0
 800024a:	18000717          	auipc	a4,0x18000
 800024e:	e1673703          	ld	a4,-490(a4) # 0x20000060
 8000252:	18000697          	auipc	a3,0x18000
 8000256:	dde6b683          	ld	a3,-546(a3) # 0x20000030
 800025a:	18000517          	auipc	a0,0x18000
 800025e:	dee53503          	ld	a0,-530(a0) # 0x20000048
 8000262:	a25d                	j	0x8000408
 8000264:	8082                	ret
 8000266:	8082                	ret
 8000268:	7109                	add	sp,sp,-384
 800026a:	f2ca                	sd	s2,352(sp)
 800026c:	03010913          	add	s2,sp,48
 8000270:	faa2                	sd	s0,368(sp)
 8000272:	f6a6                	sd	s1,360(sp)
 8000274:	842e                	mv	s0,a1
 8000276:	84aa                	mv	s1,a0
 8000278:	13000613          	li	a2,304
 800027c:	4581                	li	a1,0
 800027e:	854a                	mv	a0,s2
 8000280:	fe86                	sd	ra,376(sp)
 8000282:	212000ef          	jal	0x8000494
 8000286:	18000797          	auipc	a5,0x18000
 800028a:	da27b783          	ld	a5,-606(a5) # 0x20000028
 800028e:	e384                	sd	s1,0(a5)
 8000290:	4701                	li	a4,0
 8000292:	00371793          	sll	a5,a4,0x3
 8000296:	00f486b3          	add	a3,s1,a5
 800029a:	6294                	ld	a3,0(a3)
 800029c:	0705                	add	a4,a4,1
 800029e:	faf5                	bnez	a3,0x8000292
 80002a0:	07a1                	add	a5,a5,8
 80002a2:	00f48533          	add	a0,s1,a5
 80002a6:	05818493          	add	s1,gp,88
 80002aa:	e488                	sd	a0,8(s1)
 80002ac:	02500713          	li	a4,37
 80002b0:	611c                	ld	a5,0(a0)
 80002b2:	efdd                	bnez	a5,0x8000370
 80002b4:	77ca                	ld	a5,176(sp)
 80002b6:	04f1b823          	sd	a5,80(gp)
 80002ba:	77d2                	ld	a5,304(sp)
 80002bc:	c399                	beqz	a5,0x80002c2
 80002be:	02f1bc23          	sd	a5,56(gp)
 80002c2:	7786                	ld	a5,96(sp)
 80002c4:	f89c                	sd	a5,48(s1)
 80002c6:	e801                	bnez	s0,0x80002d6
 80002c8:	77b2                	ld	a5,296(sp)
 80002ca:	00001417          	auipc	s0,0x1
 80002ce:	8d640413          	add	s0,s0,-1834 # 0x8000ba0
 80002d2:	c391                	beqz	a5,0x80002d6
 80002d4:	843e                	mv	s0,a5
 80002d6:	18000797          	auipc	a5,0x18000
 80002da:	d9a7b783          	ld	a5,-614(a5) # 0x20000070
 80002de:	18000717          	auipc	a4,0x18000
 80002e2:	d5a73703          	ld	a4,-678(a4) # 0x20000038
 80002e6:	e380                	sd	s0,0(a5)
 80002e8:	e300                	sd	s0,0(a4)
 80002ea:	02f00693          	li	a3,47
 80002ee:	0405                	add	s0,s0,1
 80002f0:	fff44783          	lbu	a5,-1(s0)
 80002f4:	ebc9                	bnez	a5,0x8000386
 80002f6:	854a                	mv	a0,s2
 80002f8:	342000ef          	jal	0x800063a
 80002fc:	756e                	ld	a0,248(sp)
 80002fe:	f69ff0ef          	jal	0x8000266
 8000302:	672a                	ld	a4,136(sp)
 8000304:	67ca                	ld	a5,144(sp)
 8000306:	00f71863          	bne	a4,a5,0x8000316
 800030a:	676a                	ld	a4,152(sp)
 800030c:	778a                	ld	a5,160(sp)
 800030e:	00f71463          	bne	a4,a5,0x8000316
 8000312:	77ae                	ld	a5,232(sp)
 8000314:	c7c1                	beqz	a5,0x800039c
 8000316:	f002                	sd	zero,32(sp)
 8000318:	4785                	li	a5,1
 800031a:	f402                	sd	zero,40(sp)
 800031c:	d03e                	sw	a5,32(sp)
 800031e:	4789                	li	a5,2
 8000320:	d43e                	sw	a5,40(sp)
 8000322:	083c                	add	a5,sp,24
 8000324:	ec02                	sd	zero,24(sp)
 8000326:	e402                	sd	zero,8(sp)
 8000328:	e802                	sd	zero,16(sp)
 800032a:	04900893          	li	a7,73
 800032e:	853e                	mv	a0,a5
 8000330:	458d                	li	a1,3
 8000332:	0030                	add	a2,sp,8
 8000334:	4681                	li	a3,0
 8000336:	4721                	li	a4,8
 8000338:	00000073          	ecall
 800033c:	02051713          	sll	a4,a0,0x20
 8000340:	02074563          	bltz	a4,0x800036a
 8000344:	6621                	lui	a2,0x8
 8000346:	00001597          	auipc	a1,0x1
 800034a:	86258593          	add	a1,a1,-1950 # 0x8000ba8
 800034e:	0609                	add	a2,a2,2 # 0x8002
 8000350:	0067d703          	lhu	a4,6(a5)
 8000354:	02077713          	and	a4,a4,32
 8000358:	cf05                	beqz	a4,0x8000390
 800035a:	03800893          	li	a7,56
 800035e:	f9c00513          	li	a0,-100
 8000362:	00000073          	ecall
 8000366:	02055563          	bgez	a0,0x8000390
 800036a:	00000023          	sb	zero,0(zero) # 0x0
 800036e:	9002                	ebreak
 8000370:	00f76963          	bltu	a4,a5,0x8000382
 8000374:	6514                	ld	a3,8(a0)
 8000376:	078e                	sll	a5,a5,0x3
 8000378:	16078793          	add	a5,a5,352
 800037c:	978a                	add	a5,a5,sp
 800037e:	ecd7b823          	sd	a3,-304(a5)
 8000382:	0541                	add	a0,a0,16
 8000384:	b735                	j	0x80002b0
 8000386:	00d79363          	bne	a5,a3,0x800038c
 800038a:	e300                	sd	s0,0(a4)
 800038c:	0405                	add	s0,s0,1
 800038e:	b78d                	j	0x80002f0
 8000390:	07a1                	add	a5,a5,8
 8000392:	faf91fe3          	bne	s2,a5,0x8000350
 8000396:	4785                	li	a5,1
 8000398:	00f48123          	sb	a5,2(s1)
 800039c:	70f6                	ld	ra,376(sp)
 800039e:	7456                	ld	s0,368(sp)
 80003a0:	74b6                	ld	s1,360(sp)
 80003a2:	7916                	ld	s2,352(sp)
 80003a4:	6119                	add	sp,sp,384
 80003a6:	8082                	ret
 80003a8:	1101                	add	sp,sp,-32
 80003aa:	18000317          	auipc	t1,0x18000
 80003ae:	c8633303          	ld	t1,-890(t1) # 0x20000030
 80003b2:	e822                	sd	s0,16(sp)
 80003b4:	e426                	sd	s1,8(sp)
 80003b6:	ec06                	sd	ra,24(sp)
 80003b8:	18000417          	auipc	s0,0x18000
 80003bc:	cb043403          	ld	s0,-848(s0) # 0x20000068
 80003c0:	9302                	jalr	t1
 80003c2:	18000497          	auipc	s1,0x18000
 80003c6:	c964b483          	ld	s1,-874(s1) # 0x20000058
 80003ca:	00946763          	bltu	s0,s1,0x80003d8
 80003ce:	60e2                	ld	ra,24(sp)
 80003d0:	6442                	ld	s0,16(sp)
 80003d2:	64a2                	ld	s1,8(sp)
 80003d4:	6105                	add	sp,sp,32
 80003d6:	8082                	ret
 80003d8:	601c                	ld	a5,0(s0)
 80003da:	0421                	add	s0,s0,8
 80003dc:	9782                	jalr	a5
 80003de:	b7f5                	j	0x80003ca
 80003e0:	7179                	add	sp,sp,-48
 80003e2:	f022                	sd	s0,32(sp)
 80003e4:	00158413          	add	s0,a1,1
 80003e8:	040e                	sll	s0,s0,0x3
 80003ea:	f406                	sd	ra,40(sp)
 80003ec:	ec26                	sd	s1,24(sp)
 80003ee:	e84a                	sd	s2,16(sp)
 80003f0:	84ae                	mv	s1,a1
 80003f2:	892a                	mv	s2,a0
 80003f4:	9432                	add	s0,s0,a2
 80003f6:	e432                	sd	a2,8(sp)
 80003f8:	fb1ff0ef          	jal	0x80003a8
 80003fc:	65a2                	ld	a1,8(sp)
 80003fe:	8622                	mv	a2,s0
 8000400:	8526                	mv	a0,s1
 8000402:	9902                	jalr	s2
 8000404:	072000ef          	jal	0x8000476
 8000408:	7179                	add	sp,sp,-48
 800040a:	f022                	sd	s0,32(sp)
 800040c:	ec26                	sd	s1,24(sp)
 800040e:	f406                	sd	ra,40(sp)
 8000410:	84aa                	mv	s1,a0
 8000412:	842e                	mv	s0,a1
 8000414:	00158513          	add	a0,a1,1
 8000418:	620c                	ld	a1,0(a2)
 800041a:	050e                	sll	a0,a0,0x3
 800041c:	9532                	add	a0,a0,a2
 800041e:	e432                	sd	a2,8(sp)
 8000420:	e49ff0ef          	jal	0x8000268
 8000424:	00000797          	auipc	a5,0x0
 8000428:	fbc78793          	add	a5,a5,-68 # 0x80003e0
 800042c:	85a2                	mv	a1,s0
 800042e:	7402                	ld	s0,32(sp)
 8000430:	6622                	ld	a2,8(sp)
 8000432:	70a2                	ld	ra,40(sp)
 8000434:	8526                	mv	a0,s1
 8000436:	64e2                	ld	s1,24(sp)
 8000438:	6145                	add	sp,sp,48
 800043a:	8782                	jr	a5
 800043c:	8082                	ret
 800043e:	1101                	add	sp,sp,-32
 8000440:	e822                	sd	s0,16(sp)
 8000442:	e426                	sd	s1,8(sp)
 8000444:	ec06                	sd	ra,24(sp)
 8000446:	18000417          	auipc	s0,0x18000
 800044a:	bda43403          	ld	s0,-1062(s0) # 0x20000020
 800044e:	18000497          	auipc	s1,0x18000
 8000452:	bf24b483          	ld	s1,-1038(s1) # 0x20000040
 8000456:	0084eb63          	bltu	s1,s0,0x800046c
 800045a:	6442                	ld	s0,16(sp)
 800045c:	60e2                	ld	ra,24(sp)
 800045e:	64a2                	ld	s1,8(sp)
 8000460:	18000317          	auipc	t1,0x18000
 8000464:	c0033303          	ld	t1,-1024(t1) # 0x20000060
 8000468:	6105                	add	sp,sp,32
 800046a:	8302                	jr	t1
 800046c:	ff843783          	ld	a5,-8(s0)
 8000470:	1461                	add	s0,s0,-8
 8000472:	9782                	jalr	a5
 8000474:	b7cd                	j	0x8000456
 8000476:	1101                	add	sp,sp,-32
 8000478:	e42a                	sd	a0,8(sp)
 800047a:	ec06                	sd	ra,24(sp)
 800047c:	fc1ff0ef          	jal	0x800043c
 8000480:	fbfff0ef          	jal	0x800043e
 8000484:	18000317          	auipc	t1,0x18000
 8000488:	bcc33303          	ld	t1,-1076(t1) # 0x20000050
 800048c:	9302                	jalr	t1
 800048e:	6522                	ld	a0,8(sp)
 8000490:	2b4000ef          	jal	0x8000744
 8000494:	ca45                	beqz	a2,0x8000544
 8000496:	0ff5f793          	zext.b	a5,a1
 800049a:	00f50023          	sb	a5,0(a0)
 800049e:	00c50733          	add	a4,a0,a2
 80004a2:	fef70fa3          	sb	a5,-1(a4)
 80004a6:	4689                	li	a3,2
 80004a8:	08c6fe63          	bgeu	a3,a2,0x8000544
 80004ac:	00f500a3          	sb	a5,1(a0)
 80004b0:	00f50123          	sb	a5,2(a0)
 80004b4:	fef70f23          	sb	a5,-2(a4)
 80004b8:	fef70ea3          	sb	a5,-3(a4)
 80004bc:	4699                	li	a3,6
 80004be:	08c6f363          	bgeu	a3,a2,0x8000544
 80004c2:	00f501a3          	sb	a5,3(a0)
 80004c6:	fef70e23          	sb	a5,-4(a4)
 80004ca:	46a1                	li	a3,8
 80004cc:	06c6fc63          	bgeu	a3,a2,0x8000544
 80004d0:	40a00733          	neg	a4,a0
 80004d4:	8b0d                	and	a4,a4,3
 80004d6:	00e507b3          	add	a5,a0,a4
 80004da:	8e19                	sub	a2,a2,a4
 80004dc:	01010737          	lui	a4,0x1010
 80004e0:	1017071b          	addw	a4,a4,257 # 0x1010101
 80004e4:	0ff5f593          	zext.b	a1,a1
 80004e8:	02e585bb          	mulw	a1,a1,a4
 80004ec:	9a71                	and	a2,a2,-4
 80004ee:	00c78733          	add	a4,a5,a2
 80004f2:	c38c                	sw	a1,0(a5)
 80004f4:	feb72e23          	sw	a1,-4(a4)
 80004f8:	04c6f663          	bgeu	a3,a2,0x8000544
 80004fc:	c3cc                	sw	a1,4(a5)
 80004fe:	c78c                	sw	a1,8(a5)
 8000500:	feb72a23          	sw	a1,-12(a4)
 8000504:	feb72c23          	sw	a1,-8(a4)
 8000508:	46e1                	li	a3,24
 800050a:	02c6fd63          	bgeu	a3,a2,0x8000544
 800050e:	c7cc                	sw	a1,12(a5)
 8000510:	cb8c                	sw	a1,16(a5)
 8000512:	cbcc                	sw	a1,20(a5)
 8000514:	cf8c                	sw	a1,24(a5)
 8000516:	f8070713          	add	a4,a4,-128
 800051a:	4685                	li	a3,1
 800051c:	d36c                	sw	a1,100(a4)
 800051e:	d72c                	sw	a1,104(a4)
 8000520:	d76c                	sw	a1,108(a4)
 8000522:	db2c                	sw	a1,112(a4)
 8000524:	1682                	sll	a3,a3,0x20
 8000526:	0047f713          	and	a4,a5,4
 800052a:	1582                	sll	a1,a1,0x20
 800052c:	0685                	add	a3,a3,1
 800052e:	0761                	add	a4,a4,24
 8000530:	9181                	srl	a1,a1,0x20
 8000532:	02d585b3          	mul	a1,a1,a3
 8000536:	973e                	add	a4,a4,a5
 8000538:	46fd                	li	a3,31
 800053a:	97b2                	add	a5,a5,a2
 800053c:	40e78633          	sub	a2,a5,a4
 8000540:	00c6e363          	bltu	a3,a2,0x8000546
 8000544:	8082                	ret
 8000546:	e30c                	sd	a1,0(a4)
 8000548:	e70c                	sd	a1,8(a4)
 800054a:	eb0c                	sd	a1,16(a4)
 800054c:	ef0c                	sd	a1,24(a4)
 800054e:	02070713          	add	a4,a4,32
 8000552:	b7ed                	j	0x800053c
 8000554:	1141                	add	sp,sp,-16
 8000556:	e022                	sd	s0,0(sp)
 8000558:	e406                	sd	ra,8(sp)
 800055a:	842a                	mv	s0,a0
 800055c:	e108                	sd	a0,0(a0)
 800055e:	0c850513          	add	a0,a0,200
 8000562:	cdbff0ef          	jal	0x800023c
 8000566:	02054f63          	bltz	a0,0x80005a4
 800056a:	e501                	bnez	a0,0x8000572
 800056c:	4785                	li	a5,1
 800056e:	04f18c23          	sb	a5,88(gp)
 8000572:	4789                	li	a5,2
 8000574:	d41c                	sw	a5,40(s0)
 8000576:	06000893          	li	a7,96
 800057a:	24818513          	add	a0,gp,584
 800057e:	00000073          	ecall
 8000582:	09018793          	add	a5,gp,144
 8000586:	ec5c                	sd	a5,152(s0)
 8000588:	07840793          	add	a5,s0,120
 800058c:	fc3c                	sd	a5,120(s0)
 800058e:	0381b783          	ld	a5,56(gp)
 8000592:	d008                	sw	a0,32(s0)
 8000594:	ec1c                	sd	a5,24(s0)
 8000596:	e400                	sd	s0,8(s0)
 8000598:	e800                	sd	s0,16(s0)
 800059a:	4501                	li	a0,0
 800059c:	60a2                	ld	ra,8(sp)
 800059e:	6402                	ld	s0,0(sp)
 80005a0:	0141                	add	sp,sp,16
 80005a2:	8082                	ret
 80005a4:	557d                	li	a0,-1
 80005a6:	bfdd                	j	0x800059c
 80005a8:	7139                	add	sp,sp,-64
 80005aa:	f822                	sd	s0,48(sp)
 80005ac:	ec4e                	sd	s3,24(sp)
 80005ae:	e852                	sd	s4,16(sp)
 80005b0:	e456                	sd	s5,8(sp)
 80005b2:	e05a                	sd	s6,0(sp)
 80005b4:	fc06                	sd	ra,56(sp)
 80005b6:	f426                	sd	s1,40(sp)
 80005b8:	f04a                	sd	s2,32(sp)
 80005ba:	05818993          	add	s3,gp,88
 80005be:	0189b483          	ld	s1,24(s3)
 80005c2:	0289b783          	ld	a5,40(s3)
 80005c6:	f3800713          	li	a4,-200
 80005ca:	14e1                	add	s1,s1,-8
 80005cc:	078e                	sll	a5,a5,0x3
 80005ce:	8c9d                	sub	s1,s1,a5
 80005d0:	0209b783          	ld	a5,32(s3)
 80005d4:	8f09                	sub	a4,a4,a0
 80005d6:	0109b903          	ld	s2,16(s3)
 80005da:	17fd                	add	a5,a5,-1
 80005dc:	8ff9                	and	a5,a5,a4
 80005de:	94aa                	add	s1,s1,a0
 80005e0:	00f50433          	add	s0,a0,a5
 80005e4:	6a85                	lui	s5,0x1
 80005e6:	0c840b13          	add	s6,s0,200
 80005ea:	00848a13          	add	s4,s1,8
 80005ee:	800a8a93          	add	s5,s5,-2048 # 0x800
 80005f2:	02091163          	bnez	s2,0x8000614
 80005f6:	0289b783          	ld	a5,40(s3)
 80005fa:	8522                	mv	a0,s0
 80005fc:	e09c                	sd	a5,0(s1)
 80005fe:	e064                	sd	s1,192(s0)
 8000600:	70e2                	ld	ra,56(sp)
 8000602:	7442                	ld	s0,48(sp)
 8000604:	74a2                	ld	s1,40(sp)
 8000606:	7902                	ld	s2,32(sp)
 8000608:	69e2                	ld	s3,24(sp)
 800060a:	6a42                	ld	s4,16(sp)
 800060c:	6aa2                	ld	s5,8(sp)
 800060e:	6b02                	ld	s6,0(sp)
 8000610:	6121                	add	sp,sp,64
 8000612:	8082                	ret
 8000614:	02893783          	ld	a5,40(s2)
 8000618:	0a21                	add	s4,s4,8
 800061a:	97da                	add	a5,a5,s6
 800061c:	97d6                	add	a5,a5,s5
 800061e:	fefa3c23          	sd	a5,-8(s4)
 8000622:	02893503          	ld	a0,40(s2)
 8000626:	01093603          	ld	a2,16(s2)
 800062a:	00893583          	ld	a1,8(s2)
 800062e:	955a                	add	a0,a0,s6
 8000630:	126000ef          	jal	0x8000756
 8000634:	00093903          	ld	s2,0(s2)
 8000638:	bf6d                	j	0x80005f2
 800063a:	1141                	add	sp,sp,-16
 800063c:	e406                	sd	ra,8(sp)
 800063e:	01853883          	ld	a7,24(a0)
 8000642:	750c                	ld	a1,40(a0)
 8000644:	6474e837          	lui	a6,0x6474e
 8000648:	87c6                	mv	a5,a7
 800064a:	4701                	li	a4,0
 800064c:	4681                	li	a3,0
 800064e:	4e99                	li	t4,6
 8000650:	4f09                	li	t5,2
 8000652:	4f9d                	li	t6,7
 8000654:	55180813          	add	a6,a6,1361 # 0x6474e551
 8000658:	f6c18313          	add	t1,gp,-148
 800065c:	008002b7          	lui	t0,0x800
 8000660:	18000e17          	auipc	t3,0x18000
 8000664:	9b8e3e03          	ld	t3,-1608(t3) # 0x20000018
 8000668:	e5d9                	bnez	a1,0x80006f6
 800066a:	0c818793          	add	a5,gp,200
 800066e:	05818613          	add	a2,gp,88
 8000672:	ce89                	beqz	a3,0x800068c
 8000674:	6a8c                	ld	a1,16(a3)
 8000676:	ea1c                	sd	a5,16(a2)
 8000678:	972e                	add	a4,a4,a1
 800067a:	e798                	sd	a4,8(a5)
 800067c:	7298                	ld	a4,32(a3)
 800067e:	eb98                	sd	a4,16(a5)
 8000680:	7698                	ld	a4,40(a3)
 8000682:	ef98                	sd	a4,24(a5)
 8000684:	7a98                	ld	a4,48(a3)
 8000686:	f398                	sd	a4,32(a5)
 8000688:	4705                	li	a4,1
 800068a:	f618                	sd	a4,40(a2)
 800068c:	0187b803          	ld	a6,24(a5)
 8000690:	6794                	ld	a3,8(a5)
 8000692:	738c                	ld	a1,32(a5)
 8000694:	00d80733          	add	a4,a6,a3
 8000698:	fff58513          	add	a0,a1,-1
 800069c:	40e00733          	neg	a4,a4
 80006a0:	8f69                	and	a4,a4,a0
 80006a2:	8ee9                	and	a3,a3,a0
 80006a4:	9742                	add	a4,a4,a6
 80006a6:	ef98                	sd	a4,24(a5)
 80006a8:	f794                	sd	a3,40(a5)
 80006aa:	451d                	li	a0,7
 80006ac:	00b56463          	bltu	a0,a1,0x80006b4
 80006b0:	45a1                	li	a1,8
 80006b2:	f38c                	sd	a1,32(a5)
 80006b4:	739c                	ld	a5,32(a5)
 80006b6:	0f818513          	add	a0,gp,248
 80006ba:	0df78593          	add	a1,a5,223
 80006be:	95b6                	add	a1,a1,a3
 80006c0:	95ba                	add	a1,a1,a4
 80006c2:	99e1                	and	a1,a1,-8
 80006c4:	f21c                	sd	a5,32(a2)
 80006c6:	ee0c                	sd	a1,24(a2)
 80006c8:	15000793          	li	a5,336
 80006cc:	00b7fc63          	bgeu	a5,a1,0x80006e4
 80006d0:	0de00893          	li	a7,222
 80006d4:	4501                	li	a0,0
 80006d6:	460d                	li	a2,3
 80006d8:	02200693          	li	a3,34
 80006dc:	577d                	li	a4,-1
 80006de:	4781                	li	a5,0
 80006e0:	00000073          	ecall
 80006e4:	ec5ff0ef          	jal	0x80005a8
 80006e8:	e6dff0ef          	jal	0x8000554
 80006ec:	04055963          	bgez	a0,0x800073e
 80006f0:	00000023          	sb	zero,0(zero) # 0x0
 80006f4:	9002                	ebreak
 80006f6:	4390                	lw	a2,0(a5)
 80006f8:	01d61963          	bne	a2,t4,0x800070a
 80006fc:	6b98                	ld	a4,16(a5)
 80006fe:	40e88733          	sub	a4,a7,a4
 8000702:	7110                	ld	a2,32(a0)
 8000704:	15fd                	add	a1,a1,-1
 8000706:	97b2                	add	a5,a5,a2
 8000708:	b785                	j	0x8000668
 800070a:	01e61863          	bne	a2,t5,0x800071a
 800070e:	fe0e0ae3          	beqz	t3,0x8000702
 8000712:	6b98                	ld	a4,16(a5)
 8000714:	40ee0733          	sub	a4,t3,a4
 8000718:	b7ed                	j	0x8000702
 800071a:	03f60063          	beq	a2,t6,0x800073a
 800071e:	ff0612e3          	bne	a2,a6,0x8000702
 8000722:	7790                	ld	a2,40(a5)
 8000724:	00036383          	lwu	t2,0(t1)
 8000728:	fcc3fde3          	bgeu	t2,a2,0x8000702
 800072c:	00c2f463          	bgeu	t0,a2,0x8000734
 8000730:	00800637          	lui	a2,0x800
 8000734:	00c32023          	sw	a2,0(t1)
 8000738:	b7e9                	j	0x8000702
 800073a:	86be                	mv	a3,a5
 800073c:	b7d9                	j	0x8000702
 800073e:	60a2                	ld	ra,8(sp)
 8000740:	0141                	add	sp,sp,16
 8000742:	8082                	ret
 8000744:	87aa                	mv	a5,a0
 8000746:	05e00893          	li	a7,94
 800074a:	00000073          	ecall
 800074e:	05d00893          	li	a7,93
 8000752:	853e                	mv	a0,a5
 8000754:	bfdd                	j	0x800074a
 8000756:	87aa                	mv	a5,a0
 8000758:	0035f713          	and	a4,a1,3
 800075c:	c311                	beqz	a4,0x8000760
 800075e:	ea19                	bnez	a2,0x8000774
 8000760:	0037f313          	and	t1,a5,3
 8000764:	0a031363          	bnez	t1,0x800080a
 8000768:	872e                	mv	a4,a1
 800076a:	86be                	mv	a3,a5
 800076c:	00c58333          	add	t1,a1,a2
 8000770:	483d                	li	a6,15
 8000772:	a81d                	j	0x80007a8
 8000774:	0005c703          	lbu	a4,0(a1)
 8000778:	0585                	add	a1,a1,1
 800077a:	0785                	add	a5,a5,1
 800077c:	167d                	add	a2,a2,-1 # 0x7fffff
 800077e:	fee78fa3          	sb	a4,-1(a5)
 8000782:	bfd9                	j	0x8000758
 8000784:	00072883          	lw	a7,0(a4)
 8000788:	0116a023          	sw	a7,0(a3)
 800078c:	00472883          	lw	a7,4(a4)
 8000790:	0116a223          	sw	a7,4(a3)
 8000794:	00872883          	lw	a7,8(a4)
 8000798:	0116a423          	sw	a7,8(a3)
 800079c:	00c72883          	lw	a7,12(a4)
 80007a0:	0741                	add	a4,a4,16
 80007a2:	0116a623          	sw	a7,12(a3)
 80007a6:	06c1                	add	a3,a3,16
 80007a8:	40e308b3          	sub	a7,t1,a4
 80007ac:	fd186ce3          	bltu	a6,a7,0x8000784
 80007b0:	00465713          	srl	a4,a2,0x4
 80007b4:	56c1                	li	a3,-16
 80007b6:	02d70733          	mul	a4,a4,a3
 80007ba:	00c706b3          	add	a3,a4,a2
 80007be:	8a21                	and	a2,a2,8
 80007c0:	8f99                	sub	a5,a5,a4
 80007c2:	8d99                	sub	a1,a1,a4
 80007c4:	c619                	beqz	a2,0x80007d2
 80007c6:	4198                	lw	a4,0(a1)
 80007c8:	c398                	sw	a4,0(a5)
 80007ca:	41d8                	lw	a4,4(a1)
 80007cc:	05a1                	add	a1,a1,8
 80007ce:	c3d8                	sw	a4,4(a5)
 80007d0:	07a1                	add	a5,a5,8
 80007d2:	0046f713          	and	a4,a3,4
 80007d6:	c709                	beqz	a4,0x80007e0
 80007d8:	4198                	lw	a4,0(a1)
 80007da:	0591                	add	a1,a1,4
 80007dc:	c398                	sw	a4,0(a5)
 80007de:	0791                	add	a5,a5,4
 80007e0:	0026f713          	and	a4,a3,2
 80007e4:	cb19                	beqz	a4,0x80007fa
 80007e6:	0005c703          	lbu	a4,0(a1)
 80007ea:	0789                	add	a5,a5,2
 80007ec:	0589                	add	a1,a1,2
 80007ee:	fee78f23          	sb	a4,-2(a5)
 80007f2:	fff5c703          	lbu	a4,-1(a1)
 80007f6:	fee78fa3          	sb	a4,-1(a5)
 80007fa:	8a85                	and	a3,a3,1
 80007fc:	1c068f63          	beqz	a3,0x80009da
 8000800:	0005c703          	lbu	a4,0(a1)
 8000804:	00e78023          	sb	a4,0(a5)
 8000808:	8082                	ret
 800080a:	477d                	li	a4,31
 800080c:	0ac77863          	bgeu	a4,a2,0x80008bc
 8000810:	4e09                	li	t3,2
 8000812:	0005c683          	lbu	a3,0(a1)
 8000816:	0005a803          	lw	a6,0(a1)
 800081a:	00458713          	add	a4,a1,4
 800081e:	00c788b3          	add	a7,a5,a2
 8000822:	1bc30d63          	beq	t1,t3,0x80009dc
 8000826:	4e0d                	li	t3,3
 8000828:	23c30b63          	beq	t1,t3,0x8000a5e
 800082c:	00d78023          	sb	a3,0(a5)
 8000830:	0015c683          	lbu	a3,1(a1)
 8000834:	00378313          	add	t1,a5,3
 8000838:	4e41                	li	t3,16
 800083a:	00d780a3          	sb	a3,1(a5)
 800083e:	0025c683          	lbu	a3,2(a1)
 8000842:	00d78123          	sb	a3,2(a5)
 8000846:	87ba                	mv	a5,a4
 8000848:	871a                	mv	a4,t1
 800084a:	4394                	lw	a3,0(a5)
 800084c:	0188581b          	srlw	a6,a6,0x18
 8000850:	00869e9b          	sllw	t4,a3,0x8
 8000854:	01d86833          	or	a6,a6,t4
 8000858:	01072023          	sw	a6,0(a4)
 800085c:	0047a803          	lw	a6,4(a5)
 8000860:	0186d69b          	srlw	a3,a3,0x18
 8000864:	00881e9b          	sllw	t4,a6,0x8
 8000868:	01d6e6b3          	or	a3,a3,t4
 800086c:	c354                	sw	a3,4(a4)
 800086e:	4794                	lw	a3,8(a5)
 8000870:	0188581b          	srlw	a6,a6,0x18
 8000874:	00869e9b          	sllw	t4,a3,0x8
 8000878:	01d86833          	or	a6,a6,t4
 800087c:	01072423          	sw	a6,8(a4)
 8000880:	00c7a803          	lw	a6,12(a5)
 8000884:	0186d69b          	srlw	a3,a3,0x18
 8000888:	07c1                	add	a5,a5,16
 800088a:	00881e9b          	sllw	t4,a6,0x8
 800088e:	01d6e6b3          	or	a3,a3,t4
 8000892:	c754                	sw	a3,12(a4)
 8000894:	0741                	add	a4,a4,16
 8000896:	40e886b3          	sub	a3,a7,a4
 800089a:	fade68e3          	bltu	t3,a3,0x800084a
 800089e:	fec60713          	add	a4,a2,-20
 80008a2:	8311                	srl	a4,a4,0x4
 80008a4:	00170793          	add	a5,a4,1
 80008a8:	0792                	sll	a5,a5,0x4
 80008aa:	00378693          	add	a3,a5,3
 80008ae:	95b6                	add	a1,a1,a3
 80008b0:	979a                	add	a5,a5,t1
 80008b2:	1635                	add	a2,a2,-19
 80008b4:	56c1                	li	a3,-16
 80008b6:	02d70733          	mul	a4,a4,a3
 80008ba:	963a                	add	a2,a2,a4
 80008bc:	01067713          	and	a4,a2,16
 80008c0:	c359                	beqz	a4,0x8000946
 80008c2:	0005c703          	lbu	a4,0(a1)
 80008c6:	07c1                	add	a5,a5,16
 80008c8:	05c1                	add	a1,a1,16
 80008ca:	fee78823          	sb	a4,-16(a5)
 80008ce:	ff15c703          	lbu	a4,-15(a1)
 80008d2:	fee788a3          	sb	a4,-15(a5)
 80008d6:	ff25c703          	lbu	a4,-14(a1)
 80008da:	fee78923          	sb	a4,-14(a5)
 80008de:	ff35c703          	lbu	a4,-13(a1)
 80008e2:	fee789a3          	sb	a4,-13(a5)
 80008e6:	ff45c703          	lbu	a4,-12(a1)
 80008ea:	fee78a23          	sb	a4,-12(a5)
 80008ee:	ff55c703          	lbu	a4,-11(a1)
 80008f2:	fee78aa3          	sb	a4,-11(a5)
 80008f6:	ff65c703          	lbu	a4,-10(a1)
 80008fa:	fee78b23          	sb	a4,-10(a5)
 80008fe:	ff75c703          	lbu	a4,-9(a1)
 8000902:	fee78ba3          	sb	a4,-9(a5)
 8000906:	ff85c703          	lbu	a4,-8(a1)
 800090a:	fee78c23          	sb	a4,-8(a5)
 800090e:	ff95c703          	lbu	a4,-7(a1)
 8000912:	fee78ca3          	sb	a4,-7(a5)
 8000916:	ffa5c703          	lbu	a4,-6(a1)
 800091a:	fee78d23          	sb	a4,-6(a5)
 800091e:	ffb5c703          	lbu	a4,-5(a1)
 8000922:	fee78da3          	sb	a4,-5(a5)
 8000926:	ffc5c703          	lbu	a4,-4(a1)
 800092a:	fee78e23          	sb	a4,-4(a5)
 800092e:	ffd5c703          	lbu	a4,-3(a1)
 8000932:	fee78ea3          	sb	a4,-3(a5)
 8000936:	ffe5c703          	lbu	a4,-2(a1)
 800093a:	fee78f23          	sb	a4,-2(a5)
 800093e:	fff5c703          	lbu	a4,-1(a1)
 8000942:	fee78fa3          	sb	a4,-1(a5)
 8000946:	00867713          	and	a4,a2,8
 800094a:	c339                	beqz	a4,0x8000990
 800094c:	0005c703          	lbu	a4,0(a1)
 8000950:	07a1                	add	a5,a5,8
 8000952:	05a1                	add	a1,a1,8
 8000954:	fee78c23          	sb	a4,-8(a5)
 8000958:	ff95c703          	lbu	a4,-7(a1)
 800095c:	fee78ca3          	sb	a4,-7(a5)
 8000960:	ffa5c703          	lbu	a4,-6(a1)
 8000964:	fee78d23          	sb	a4,-6(a5)
 8000968:	ffb5c703          	lbu	a4,-5(a1)
 800096c:	fee78da3          	sb	a4,-5(a5)
 8000970:	ffc5c703          	lbu	a4,-4(a1)
 8000974:	fee78e23          	sb	a4,-4(a5)
 8000978:	ffd5c703          	lbu	a4,-3(a1)
 800097c:	fee78ea3          	sb	a4,-3(a5)
 8000980:	ffe5c703          	lbu	a4,-2(a1)
 8000984:	fee78f23          	sb	a4,-2(a5)
 8000988:	fff5c703          	lbu	a4,-1(a1)
 800098c:	fee78fa3          	sb	a4,-1(a5)
 8000990:	00467713          	and	a4,a2,4
 8000994:	c31d                	beqz	a4,0x80009ba
 8000996:	0005c703          	lbu	a4,0(a1)
 800099a:	0791                	add	a5,a5,4
 800099c:	0591                	add	a1,a1,4
 800099e:	fee78e23          	sb	a4,-4(a5)
 80009a2:	ffd5c703          	lbu	a4,-3(a1)
 80009a6:	fee78ea3          	sb	a4,-3(a5)
 80009aa:	ffe5c703          	lbu	a4,-2(a1)
 80009ae:	fee78f23          	sb	a4,-2(a5)
 80009b2:	fff5c703          	lbu	a4,-1(a1)
 80009b6:	fee78fa3          	sb	a4,-1(a5)
 80009ba:	00267713          	and	a4,a2,2
 80009be:	cb19                	beqz	a4,0x80009d4
 80009c0:	0005c703          	lbu	a4,0(a1)
 80009c4:	0789                	add	a5,a5,2
 80009c6:	0589                	add	a1,a1,2
 80009c8:	fee78f23          	sb	a4,-2(a5)
 80009cc:	fff5c703          	lbu	a4,-1(a1)
 80009d0:	fee78fa3          	sb	a4,-1(a5)
 80009d4:	8a05                	and	a2,a2,1
 80009d6:	e20615e3          	bnez	a2,0x8000800
 80009da:	8082                	ret
 80009dc:	00d78023          	sb	a3,0(a5)
 80009e0:	0015c683          	lbu	a3,1(a1)
 80009e4:	00278313          	add	t1,a5,2
 80009e8:	4e45                	li	t3,17
 80009ea:	00d780a3          	sb	a3,1(a5)
 80009ee:	87ba                	mv	a5,a4
 80009f0:	871a                	mv	a4,t1
 80009f2:	4394                	lw	a3,0(a5)
 80009f4:	0108581b          	srlw	a6,a6,0x10
 80009f8:	01069e9b          	sllw	t4,a3,0x10
 80009fc:	01d86833          	or	a6,a6,t4
 8000a00:	01072023          	sw	a6,0(a4)
 8000a04:	0047a803          	lw	a6,4(a5)
 8000a08:	0106d69b          	srlw	a3,a3,0x10
 8000a0c:	01081e9b          	sllw	t4,a6,0x10
 8000a10:	01d6e6b3          	or	a3,a3,t4
 8000a14:	c354                	sw	a3,4(a4)
 8000a16:	4794                	lw	a3,8(a5)
 8000a18:	0108581b          	srlw	a6,a6,0x10
 8000a1c:	01069e9b          	sllw	t4,a3,0x10
 8000a20:	01d86833          	or	a6,a6,t4
 8000a24:	01072423          	sw	a6,8(a4)
 8000a28:	00c7a803          	lw	a6,12(a5)
 8000a2c:	0106d69b          	srlw	a3,a3,0x10
 8000a30:	07c1                	add	a5,a5,16
 8000a32:	01081e9b          	sllw	t4,a6,0x10
 8000a36:	01d6e6b3          	or	a3,a3,t4
 8000a3a:	c754                	sw	a3,12(a4)
 8000a3c:	0741                	add	a4,a4,16
 8000a3e:	40e886b3          	sub	a3,a7,a4
 8000a42:	fade68e3          	bltu	t3,a3,0x80009f2
 8000a46:	fec60713          	add	a4,a2,-20
 8000a4a:	8311                	srl	a4,a4,0x4
 8000a4c:	00170793          	add	a5,a4,1
 8000a50:	0792                	sll	a5,a5,0x4
 8000a52:	00278693          	add	a3,a5,2
 8000a56:	95b6                	add	a1,a1,a3
 8000a58:	979a                	add	a5,a5,t1
 8000a5a:	1639                	add	a2,a2,-18
 8000a5c:	bda1                	j	0x80008b4
 8000a5e:	00178313          	add	t1,a5,1
 8000a62:	00d78023          	sb	a3,0(a5)
 8000a66:	4e49                	li	t3,18
 8000a68:	87ba                	mv	a5,a4
 8000a6a:	871a                	mv	a4,t1
 8000a6c:	4394                	lw	a3,0(a5)
 8000a6e:	0088581b          	srlw	a6,a6,0x8
 8000a72:	01869e9b          	sllw	t4,a3,0x18
 8000a76:	01d86833          	or	a6,a6,t4
 8000a7a:	01072023          	sw	a6,0(a4)
 8000a7e:	0047a803          	lw	a6,4(a5)
 8000a82:	0086d69b          	srlw	a3,a3,0x8
 8000a86:	01881e9b          	sllw	t4,a6,0x18
 8000a8a:	01d6e6b3          	or	a3,a3,t4
 8000a8e:	c354                	sw	a3,4(a4)
 8000a90:	4794                	lw	a3,8(a5)
 8000a92:	0088581b          	srlw	a6,a6,0x8
 8000a96:	01869e9b          	sllw	t4,a3,0x18
 8000a9a:	01d86833          	or	a6,a6,t4
 8000a9e:	01072423          	sw	a6,8(a4)
 8000aa2:	00c7a803          	lw	a6,12(a5)
 8000aa6:	0086d69b          	srlw	a3,a3,0x8
 8000aaa:	07c1                	add	a5,a5,16
 8000aac:	01881e9b          	sllw	t4,a6,0x18
 8000ab0:	01d6e6b3          	or	a3,a3,t4
 8000ab4:	c754                	sw	a3,12(a4)
 8000ab6:	0741                	add	a4,a4,16
 8000ab8:	40e886b3          	sub	a3,a7,a4
 8000abc:	fade68e3          	bltu	t3,a3,0x8000a6c
 8000ac0:	fec60713          	add	a4,a2,-20
 8000ac4:	8311                	srl	a4,a4,0x4
 8000ac6:	00170793          	add	a5,a4,1
 8000aca:	0792                	sll	a5,a5,0x4
 8000acc:	00178693          	add	a3,a5,1
 8000ad0:	95b6                	add	a1,a1,a3
 8000ad2:	979a                	add	a5,a5,t1
 8000ad4:	163d                	add	a2,a2,-17
 8000ad6:	bbf9                	j	0x80008b4
 8000ad8:	0010                	.2byte	0x10
 8000ada:	0000                	unimp
 8000adc:	0000                	unimp
 8000ade:	0000                	unimp
 8000ae0:	00527a03          	.4byte	0x527a03
 8000ae4:	7c01                	lui	s8,0xfffe0
 8000ae6:	0101                	add	sp,sp,0
 8000ae8:	00020d1b          	sext.w	s10,tp
 8000aec:	0010                	.2byte	0x10
 8000aee:	0000                	unimp
 8000af0:	0018                	.2byte	0x18
 8000af2:	0000                	unimp
 8000af4:	f520                	sd	s0,104(a0)
 8000af6:	ffff                	.2byte	0xffff
 8000af8:	001a                	c.slli	zero,0x6
 8000afa:	0000                	unimp
 8000afc:	0000                	unimp
 8000afe:	0000                	unimp
 8000b00:	0010                	.2byte	0x10
 8000b02:	0000                	unimp
 8000b04:	002c                	add	a1,sp,8
 8000b06:	0000                	unimp
 8000b08:	f526                	sd	s1,168(sp)
 8000b0a:	ffff                	.2byte	0xffff
 8000b0c:	0022                	c.slli	zero,0x8
 8000b0e:	0000                	unimp
 8000b10:	0000                	unimp
 8000b12:	0000                	unimp
 8000b14:	0020                	add	s0,sp,8
 8000b16:	0000                	unimp
 8000b18:	0040                	add	s0,sp,4
 8000b1a:	0000                	unimp
 8000b1c:	f534                	sd	a3,104(a0)
 8000b1e:	ffff                	.2byte	0xffff
 8000b20:	0034                	add	a3,sp,8
 8000b22:	0000                	unimp
 8000b24:	4200                	lw	s0,0(a2)
 8000b26:	100e                	c.slli	zero,0x23
 8000b28:	8842                	mv	a6,a6
 8000b2a:	4604                	lw	s1,8(a2)
 8000b2c:	0281                	add	t0,t0,0 # 0x800000
 8000b2e:	c164                	sw	s1,68(a0)
 8000b30:	c842                	sw	a6,16(sp)
 8000b32:	0e42                	sll	t3,t3,0x10
 8000b34:	0000                	unimp
 8000b36:	0000                	unimp
 8000b38:	001c                	.2byte	0x1c
 8000b3a:	0000                	unimp
 8000b3c:	0064                	add	s1,sp,12
 8000b3e:	0000                	unimp
 8000b40:	f544                	sd	s1,168(a0)
 8000b42:	ffff                	.2byte	0xffff
 8000b44:	0024                	add	s1,sp,8
 8000b46:	0000                	unimp
 8000b48:	4c00                	lw	s0,24(s0)
 8000b4a:	100e                	c.slli	zero,0x23
 8000b4c:	814a                	mv	sp,s2
 8000b4e:	4a02                	lw	s4,0(sp)
 8000b50:	42c1                	li	t0,16
 8000b52:	000e                	c.slli	zero,0x3
 8000b54:	0000                	unimp
 8000b56:	0000                	unimp
 8000b58:	0010                	.2byte	0x10
 8000b5a:	0000                	unimp
 8000b5c:	0000                	unimp
 8000b5e:	0000                	unimp
 8000b60:	00527a03          	.4byte	0x527a03
 8000b64:	7c01                	lui	s8,0xfffe0
 8000b66:	0101                	add	sp,sp,0
 8000b68:	00020d1b          	sext.w	s10,tp
 8000b6c:	0028                	add	a0,sp,8
 8000b6e:	0000                	unimp
 8000b70:	0018                	.2byte	0x18
 8000b72:	0000                	unimp
 8000b74:	f534                	sd	a3,104(a0)
 8000b76:	ffff                	.2byte	0xffff
 8000b78:	0194                	add	a3,sp,192
 8000b7a:	0000                	unimp
 8000b7c:	4400                	lw	s0,8(s0)
 8000b7e:	e00e                	sd	gp,0(sp)
 8000b80:	4401                	li	s0,0
 8000b82:	0288                	add	a0,sp,320
 8000b84:	0c44                	add	s1,sp,532
 8000b86:	0008                	.2byte	0x8
 8000b88:	c8018003          	lb	zero,-896(gp)
 8000b8c:	020c                	add	a1,sp,256
 8000b8e:	01e0                	add	s0,sp,204
 8000b90:	0e44                	add	s1,sp,788
	...

Disassembly of section .rodata:

0000000008000ba0 <.rodata>:
	...
 8000ba8:	7665642f          	.4byte	0x7665642f
 8000bac:	6c756e2f          	.4byte	0x6c756e2f
 8000bb0:	006c                	add	a1,sp,12
 8000bb2:	0000                	unimp
 8000bb4:	0000                	unimp
	...

Disassembly of section .data:

0000000020000000 <.data>:
    20000000:	2000                	fld	fs0,0(s0)
    20000002:	0000                	unimp
    20000004:	0000                	unimp
    20000006:	0002                	c.slli64	zero

Disassembly of section .sdata:

0000000020000008 <.sdata>:
	...

Disassembly of section .got:

0000000020000010 <.got>:
	...
    20000028:	0158                	add	a4,sp,132
    2000002a:	2000                	fld	fs0,0(s0)
    2000002c:	0000                	unimp
    2000002e:	0000                	unimp
    20000030:	0264                	add	s1,sp,268
    20000032:	0800                	add	s0,sp,16
    20000034:	0000                	unimp
    20000036:	0000                	unimp
    20000038:	00e0                	add	s0,sp,76
    2000003a:	2000                	fld	fs0,0(s0)
	...
    20000048:	00a8                	add	a0,sp,72
    2000004a:	0800                	add	s0,sp,16
    2000004c:	0000                	unimp
    2000004e:	0000                	unimp
    20000050:	043c                	add	a5,sp,520
    20000052:	0800                	add	s0,sp,16
	...
    20000060:	043c                	add	a5,sp,520
    20000062:	0800                	add	s0,sp,16
	...
    20000070:	00d8                	add	a4,sp,68
    20000072:	2000                	fld	fs0,0(s0)
    20000074:	0000                	unimp
	...

Disassembly of section .got.plt:

0000000020000078 <.got.plt>:
    20000078:	ffff                	.2byte	0xffff
    2000007a:	ffff                	.2byte	0xffff
    2000007c:	ffff                	.2byte	0xffff
    2000007e:	ffff                	.2byte	0xffff
	...

Disassembly of section .fini_array:

0000000020000088 <.fini_array>:
    20000088:	0050                	add	a2,sp,4
    2000008a:	0800                	add	s0,sp,16
    2000008c:	0000                	unimp
	...

Disassembly of section .init_array:

0000000020000090 <.init_array>:
    20000090:	0084                	add	s1,sp,64
    20000092:	0800                	add	s0,sp,16
    20000094:	0000                	unimp
	...

Disassembly of section .bss:

0000000020000098 <.bss>:
	...

Disassembly of section ._user_heap_stack:

00000000200002e8 <._user_heap_stack>:
	...

Disassembly of section .comment:

0000000000000000 <.comment>:
   0:	3a434347          	fmsub.d	ft6,ft6,ft4,ft7,rmm
   4:	2820                	fld	fs0,80(s0)
   6:	7542                	ld	a0,48(sp)
   8:	6c69                	lui	s8,0x1a
   a:	7264                	ld	s1,224(a2)
   c:	20746f6f          	jal	t5,0x46a12
  10:	3032                	fld	ft0,296(sp)
  12:	3332                	fld	ft6,296(sp)
  14:	302e                	fld	ft0,232(sp)
  16:	2e38                	fld	fa4,88(a2)
  18:	2d32                	fld	fs10,264(sp)
  1a:	6964                	ld	s1,208(a0)
  1c:	7472                	ld	s0,312(sp)
  1e:	2979                	addw	s2,s2,30
  20:	3120                	fld	fs0,96(a0)
  22:	2e322e33          	.4byte	0x2e322e33
  26:	0030                	add	a2,sp,8

Disassembly of section .riscv.attributes:

0000000000000000 <.riscv.attributes>:
   0:	5241                	li	tp,-16
   2:	0000                	unimp
   4:	7200                	ld	s0,32(a2)
   6:	7369                	lui	t1,0xffffa
   8:	01007663          	bgeu	zero,a6,0x14
   c:	0048                	add	a0,sp,4
   e:	0000                	unimp
  10:	1004                	add	s1,sp,32
  12:	7205                	lui	tp,0xfffe1
  14:	3676                	fld	fa2,376(sp)
  16:	6934                	ld	a3,80(a0)
  18:	7032                	.2byte	0x7032
  1a:	5f31                	li	t5,-20
  1c:	326d                	addw	tp,tp,-5 # 0xfffffffffffe0ffb
  1e:	3070                	fld	fa2,224(s0)
  20:	615f 7032 5f31      	.byte	0x5f, 0x61, 0x32, 0x70, 0x31, 0x5f
  26:	3266                	fld	ft4,120(sp)
  28:	3270                	fld	fa2,224(a2)
  2a:	645f 7032 5f32      	.byte	0x5f, 0x64, 0x32, 0x70, 0x32, 0x5f
  30:	30703263          	.4byte	0x30703263
  34:	7a5f 6369 7273      	.byte	0x5f, 0x7a, 0x69, 0x63, 0x73, 0x72
  3a:	7032                	.2byte	0x7032
  3c:	5f30                	lw	a2,120(a4)
  3e:	697a                	ld	s2,408(sp)
  40:	6566                	ld	a0,88(sp)
  42:	636e                	ld	t1,216(sp)
  44:	6965                	lui	s2,0x19
  46:	7032                	.2byte	0x7032
  48:	5f30                	lw	a2,120(a4)
  4a:	6d7a                	ld	s10,408(sp)
  4c:	756d                	lui	a0,0xffffb
  4e:	316c                	fld	fa1,224(a0)
  50:	3070                	fld	fa2,224(s0)
	...
