
test_5.elf:     file format elf64-littleriscv


Disassembly of section .text:

0000000008000000 <main>:
 8000000:	fe010113          	add	sp,sp,-32
 8000004:	00113c23          	sd	ra,24(sp)
 8000008:	00813823          	sd	s0,16(sp)
 800000c:	02010413          	add	s0,sp,32
 8000010:	080007b7          	lui	a5,0x8000
 8000014:	6487a783          	lw	a5,1608(a5) # 8000648 <_etext>
 8000018:	fef42623          	sw	a5,-20(s0)
 800001c:	00600793          	li	a5,6
 8000020:	fef42423          	sw	a5,-24(s0)
 8000024:	fe842783          	lw	a5,-24(s0)
 8000028:	00078513          	mv	a0,a5
 800002c:	480000ef          	jal	80004ac <__floatsisf>
 8000030:	00050793          	mv	a5,a0
 8000034:	fec42583          	lw	a1,-20(s0)
 8000038:	00078513          	mv	a0,a5
 800003c:	02c000ef          	jal	8000068 <__mulsf3>
 8000040:	00050793          	mv	a5,a0
 8000044:	00078513          	mv	a0,a5
 8000048:	3d8000ef          	jal	8000420 <__fixsfsi>
 800004c:	00050793          	mv	a5,a0
 8000050:	0007879b          	sext.w	a5,a5
 8000054:	00078513          	mv	a0,a5
 8000058:	01813083          	ld	ra,24(sp)
 800005c:	01013403          	ld	s0,16(sp)
 8000060:	02010113          	add	sp,sp,32
 8000064:	00008067          	ret

0000000008000068 <__mulsf3>:
 8000068:	fb010113          	add	sp,sp,-80
 800006c:	0175579b          	srlw	a5,a0,0x17
 8000070:	03413023          	sd	s4,32(sp)
 8000074:	01513c23          	sd	s5,24(sp)
 8000078:	04113423          	sd	ra,72(sp)
 800007c:	02951a93          	sll	s5,a0,0x29
 8000080:	04813023          	sd	s0,64(sp)
 8000084:	02913c23          	sd	s1,56(sp)
 8000088:	03213823          	sd	s2,48(sp)
 800008c:	03313423          	sd	s3,40(sp)
 8000090:	01613823          	sd	s6,16(sp)
 8000094:	0ff7f793          	zext.b	a5,a5
 8000098:	029ada93          	srl	s5,s5,0x29
 800009c:	01f55a1b          	srlw	s4,a0,0x1f
 80000a0:	18078263          	beqz	a5,8000224 <__mulsf3+0x1bc>
 80000a4:	0ff00713          	li	a4,255
 80000a8:	18e78863          	beq	a5,a4,8000238 <__mulsf3+0x1d0>
 80000ac:	003a9a93          	sll	s5,s5,0x3
 80000b0:	04000737          	lui	a4,0x4000
 80000b4:	00eaeab3          	or	s5,s5,a4
 80000b8:	f8178413          	add	s0,a5,-127
 80000bc:	00000913          	li	s2,0
 80000c0:	00000b13          	li	s6,0
 80000c4:	0175d79b          	srlw	a5,a1,0x17
 80000c8:	02959493          	sll	s1,a1,0x29
 80000cc:	0ff7f793          	zext.b	a5,a5
 80000d0:	0294d493          	srl	s1,s1,0x29
 80000d4:	01f5d99b          	srlw	s3,a1,0x1f
 80000d8:	12078663          	beqz	a5,8000204 <__mulsf3+0x19c>
 80000dc:	0ff00713          	li	a4,255
 80000e0:	08e78a63          	beq	a5,a4,8000174 <__mulsf3+0x10c>
 80000e4:	f8178793          	add	a5,a5,-127
 80000e8:	04000737          	lui	a4,0x4000
 80000ec:	008786b3          	add	a3,a5,s0
 80000f0:	00349493          	sll	s1,s1,0x3
 80000f4:	00a00793          	li	a5,10
 80000f8:	00e4e4b3          	or	s1,s1,a4
 80000fc:	00168413          	add	s0,a3,1
 8000100:	00000713          	li	a4,0
 8000104:	1727cc63          	blt	a5,s2,800027c <__mulsf3+0x214>
 8000108:	013a45b3          	xor	a1,s4,s3
 800010c:	00200793          	li	a5,2
 8000110:	00058513          	mv	a0,a1
 8000114:	0927c263          	blt	a5,s2,8000198 <__mulsf3+0x130>
 8000118:	fff90913          	add	s2,s2,-1
 800011c:	00100613          	li	a2,1
 8000120:	1d266a63          	bltu	a2,s2,80002f4 <__mulsf3+0x28c>
 8000124:	12f70463          	beq	a4,a5,800024c <__mulsf3+0x1e4>
 8000128:	00100793          	li	a5,1
 800012c:	00050593          	mv	a1,a0
 8000130:	08f71e63          	bne	a4,a5,80001cc <__mulsf3+0x164>
 8000134:	00000793          	li	a5,0
 8000138:	00000713          	li	a4,0
 800013c:	04813083          	ld	ra,72(sp)
 8000140:	04013403          	ld	s0,64(sp)
 8000144:	0177979b          	sllw	a5,a5,0x17
 8000148:	00f76533          	or	a0,a4,a5
 800014c:	01f5979b          	sllw	a5,a1,0x1f
 8000150:	03813483          	ld	s1,56(sp)
 8000154:	03013903          	ld	s2,48(sp)
 8000158:	02813983          	ld	s3,40(sp)
 800015c:	02013a03          	ld	s4,32(sp)
 8000160:	01813a83          	ld	s5,24(sp)
 8000164:	01013b03          	ld	s6,16(sp)
 8000168:	00f56533          	or	a0,a0,a5
 800016c:	05010113          	add	sp,sp,80
 8000170:	00008067          	ret
 8000174:	0ff40693          	add	a3,s0,255
 8000178:	0e048263          	beqz	s1,800025c <__mulsf3+0x1f4>
 800017c:	013a45b3          	xor	a1,s4,s3
 8000180:	00396913          	or	s2,s2,3
 8000184:	00a00713          	li	a4,10
 8000188:	00058513          	mv	a0,a1
 800018c:	10040413          	add	s0,s0,256
 8000190:	27274a63          	blt	a4,s2,8000404 <__mulsf3+0x39c>
 8000194:	00300713          	li	a4,3
 8000198:	00100793          	li	a5,1
 800019c:	012797b3          	sll	a5,a5,s2
 80001a0:	5307f613          	and	a2,a5,1328
 80001a4:	02060863          	beqz	a2,80001d4 <__mulsf3+0x16c>
 80001a8:	00200793          	li	a5,2
 80001ac:	0afb0063          	beq	s6,a5,800024c <__mulsf3+0x1e4>
 80001b0:	00300793          	li	a5,3
 80001b4:	04fb0063          	beq	s6,a5,80001f4 <__mulsf3+0x18c>
 80001b8:	000b0713          	mv	a4,s6
 80001bc:	00100793          	li	a5,1
 80001c0:	000a8493          	mv	s1,s5
 80001c4:	00050593          	mv	a1,a0
 80001c8:	f6f706e3          	beq	a4,a5,8000134 <__mulsf3+0xcc>
 80001cc:	00040693          	mv	a3,s0
 80001d0:	1540006f          	j	8000324 <__mulsf3+0x2bc>
 80001d4:	2407f613          	and	a2,a5,576
 80001d8:	00061e63          	bnez	a2,80001f4 <__mulsf3+0x18c>
 80001dc:	0887f793          	and	a5,a5,136
 80001e0:	10078a63          	beqz	a5,80002f4 <__mulsf3+0x28c>
 80001e4:	00098513          	mv	a0,s3
 80001e8:	00048a93          	mv	s5,s1
 80001ec:	00070b13          	mv	s6,a4
 80001f0:	fb9ff06f          	j	80001a8 <__mulsf3+0x140>
 80001f4:	00000593          	li	a1,0
 80001f8:	0ff00793          	li	a5,255
 80001fc:	00400737          	lui	a4,0x400
 8000200:	f3dff06f          	j	800013c <__mulsf3+0xd4>
 8000204:	0c049063          	bnez	s1,80002c4 <__mulsf3+0x25c>
 8000208:	00040693          	mv	a3,s0
 800020c:	00196913          	or	s2,s2,1
 8000210:	00a00793          	li	a5,10
 8000214:	00100713          	li	a4,1
 8000218:	00168413          	add	s0,a3,1
 800021c:	ef27d6e3          	bge	a5,s2,8000108 <__mulsf3+0xa0>
 8000220:	05c0006f          	j	800027c <__mulsf3+0x214>
 8000224:	060a9863          	bnez	s5,8000294 <__mulsf3+0x22c>
 8000228:	00400913          	li	s2,4
 800022c:	00000413          	li	s0,0
 8000230:	00100b13          	li	s6,1
 8000234:	e91ff06f          	j	80000c4 <__mulsf3+0x5c>
 8000238:	040a9663          	bnez	s5,8000284 <__mulsf3+0x21c>
 800023c:	00800913          	li	s2,8
 8000240:	0ff00413          	li	s0,255
 8000244:	00200b13          	li	s6,2
 8000248:	e7dff06f          	j	80000c4 <__mulsf3+0x5c>
 800024c:	00050593          	mv	a1,a0
 8000250:	0ff00793          	li	a5,255
 8000254:	00000713          	li	a4,0
 8000258:	ee5ff06f          	j	800013c <__mulsf3+0xd4>
 800025c:	00296913          	or	s2,s2,2
 8000260:	00a00793          	li	a5,10
 8000264:	10040413          	add	s0,s0,256
 8000268:	00e00613          	li	a2,14
 800026c:	00200713          	li	a4,2
 8000270:	e927dce3          	bge	a5,s2,8000108 <__mulsf3+0xa0>
 8000274:	00b00793          	li	a5,11
 8000278:	f6f606e3          	beq	a2,a5,80001e4 <__mulsf3+0x17c>
 800027c:	000a0513          	mv	a0,s4
 8000280:	f29ff06f          	j	80001a8 <__mulsf3+0x140>
 8000284:	00c00913          	li	s2,12
 8000288:	0ff00413          	li	s0,255
 800028c:	00300b13          	li	s6,3
 8000290:	e35ff06f          	j	80000c4 <__mulsf3+0x5c>
 8000294:	000a8513          	mv	a0,s5
 8000298:	00b12623          	sw	a1,12(sp)
 800029c:	33c000ef          	jal	80005d8 <__clzdi2>
 80002a0:	0005071b          	sext.w	a4,a0
 80002a4:	faa00793          	li	a5,-86
 80002a8:	fdb5051b          	addw	a0,a0,-37
 80002ac:	00c12583          	lw	a1,12(sp)
 80002b0:	00aa9ab3          	sll	s5,s5,a0
 80002b4:	40e78433          	sub	s0,a5,a4
 80002b8:	00000913          	li	s2,0
 80002bc:	00000b13          	li	s6,0
 80002c0:	e05ff06f          	j	80000c4 <__mulsf3+0x5c>
 80002c4:	00048513          	mv	a0,s1
 80002c8:	310000ef          	jal	80005d8 <__clzdi2>
 80002cc:	0005079b          	sext.w	a5,a0
 80002d0:	40f407b3          	sub	a5,s0,a5
 80002d4:	faa78693          	add	a3,a5,-86
 80002d8:	fdb5051b          	addw	a0,a0,-37
 80002dc:	00a00793          	li	a5,10
 80002e0:	00a494b3          	sll	s1,s1,a0
 80002e4:	00000713          	li	a4,0
 80002e8:	00168413          	add	s0,a3,1
 80002ec:	e127dee3          	bge	a5,s2,8000108 <__mulsf3+0xa0>
 80002f0:	f8dff06f          	j	800027c <__mulsf3+0x214>
 80002f4:	029a84b3          	mul	s1,s5,s1
 80002f8:	02649793          	sll	a5,s1,0x26
 80002fc:	00f037b3          	snez	a5,a5
 8000300:	01a4d493          	srl	s1,s1,0x1a
 8000304:	00f4e4b3          	or	s1,s1,a5
 8000308:	080007b7          	lui	a5,0x8000
 800030c:	00f4f7b3          	and	a5,s1,a5
 8000310:	00078a63          	beqz	a5,8000324 <__mulsf3+0x2bc>
 8000314:	0014d793          	srl	a5,s1,0x1
 8000318:	0014f493          	and	s1,s1,1
 800031c:	0097e4b3          	or	s1,a5,s1
 8000320:	00040693          	mv	a3,s0
 8000324:	07f68793          	add	a5,a3,127
 8000328:	04f05863          	blez	a5,8000378 <__mulsf3+0x310>
 800032c:	0074f713          	and	a4,s1,7
 8000330:	00070a63          	beqz	a4,8000344 <__mulsf3+0x2dc>
 8000334:	00f4f713          	and	a4,s1,15
 8000338:	00400613          	li	a2,4
 800033c:	00c70463          	beq	a4,a2,8000344 <__mulsf3+0x2dc>
 8000340:	00448493          	add	s1,s1,4
 8000344:	08000737          	lui	a4,0x8000
 8000348:	00e4f733          	and	a4,s1,a4
 800034c:	00070a63          	beqz	a4,8000360 <__mulsf3+0x2f8>
 8000350:	f80007b7          	lui	a5,0xf8000
 8000354:	fff78793          	add	a5,a5,-1 # fffffffff7ffffff <_estack+0xffffffffd3ffffff>
 8000358:	00f4f4b3          	and	s1,s1,a5
 800035c:	08068793          	add	a5,a3,128
 8000360:	0fe00713          	li	a4,254
 8000364:	04f74063          	blt	a4,a5,80003a4 <__mulsf3+0x33c>
 8000368:	02649713          	sll	a4,s1,0x26
 800036c:	02975713          	srl	a4,a4,0x29
 8000370:	0ff7f793          	zext.b	a5,a5
 8000374:	dc9ff06f          	j	800013c <__mulsf3+0xd4>
 8000378:	02078c63          	beqz	a5,80003b0 <__mulsf3+0x348>
 800037c:	00100693          	li	a3,1
 8000380:	40f686b3          	sub	a3,a3,a5
 8000384:	01b00613          	li	a2,27
 8000388:	00000793          	li	a5,0
 800038c:	00000713          	li	a4,0
 8000390:	dad646e3          	blt	a2,a3,800013c <__mulsf3+0xd4>
 8000394:	04000793          	li	a5,64
 8000398:	0006871b          	sext.w	a4,a3
 800039c:	40d787bb          	subw	a5,a5,a3
 80003a0:	0180006f          	j	80003b8 <__mulsf3+0x350>
 80003a4:	0ff00793          	li	a5,255
 80003a8:	00000713          	li	a4,0
 80003ac:	d91ff06f          	j	800013c <__mulsf3+0xd4>
 80003b0:	03f00793          	li	a5,63
 80003b4:	00100713          	li	a4,1
 80003b8:	00f497b3          	sll	a5,s1,a5
 80003bc:	00f037b3          	snez	a5,a5
 80003c0:	00e4d733          	srl	a4,s1,a4
 80003c4:	00f76733          	or	a4,a4,a5
 80003c8:	00777793          	and	a5,a4,7
 80003cc:	00078a63          	beqz	a5,80003e0 <__mulsf3+0x378>
 80003d0:	00f77793          	and	a5,a4,15
 80003d4:	00400693          	li	a3,4
 80003d8:	00d78463          	beq	a5,a3,80003e0 <__mulsf3+0x378>
 80003dc:	00470713          	add	a4,a4,4 # 8000004 <main+0x4>
 80003e0:	040007b7          	lui	a5,0x4000
 80003e4:	00f777b3          	and	a5,a4,a5
 80003e8:	00078863          	beqz	a5,80003f8 <__mulsf3+0x390>
 80003ec:	00100793          	li	a5,1
 80003f0:	00000713          	li	a4,0
 80003f4:	d49ff06f          	j	800013c <__mulsf3+0xd4>
 80003f8:	02671713          	sll	a4,a4,0x26
 80003fc:	02975713          	srl	a4,a4,0x29
 8000400:	d3dff06f          	j	800013c <__mulsf3+0xd4>
 8000404:	00f00693          	li	a3,15
 8000408:	00000593          	li	a1,0
 800040c:	00400737          	lui	a4,0x400
 8000410:	d2d906e3          	beq	s2,a3,800013c <__mulsf3+0xd4>
 8000414:	00b00613          	li	a2,11
 8000418:	00300713          	li	a4,3
 800041c:	e59ff06f          	j	8000274 <__mulsf3+0x20c>

0000000008000420 <__fixsfsi>:
 8000420:	008006b7          	lui	a3,0x800
 8000424:	0175571b          	srlw	a4,a0,0x17
 8000428:	fff68793          	add	a5,a3,-1 # 7fffff <_Min_Stack_Size-0x1>
 800042c:	00a7f7b3          	and	a5,a5,a0
 8000430:	0ff77713          	zext.b	a4,a4
 8000434:	07e00613          	li	a2,126
 8000438:	0007879b          	sext.w	a5,a5
 800043c:	01f5551b          	srlw	a0,a0,0x1f
 8000440:	00e65e63          	bge	a2,a4,800045c <__fixsfsi+0x3c>
 8000444:	09d00613          	li	a2,157
 8000448:	00e65e63          	bge	a2,a4,8000464 <__fixsfsi+0x44>
 800044c:	800007b7          	lui	a5,0x80000
 8000450:	fff7c793          	not	a5,a5
 8000454:	00a7853b          	addw	a0,a5,a0
 8000458:	00008067          	ret
 800045c:	00000513          	li	a0,0
 8000460:	00008067          	ret
 8000464:	02079793          	sll	a5,a5,0x20
 8000468:	0207d793          	srl	a5,a5,0x20
 800046c:	09500613          	li	a2,149
 8000470:	00d7e7b3          	or	a5,a5,a3
 8000474:	0007069b          	sext.w	a3,a4
 8000478:	00e65c63          	bge	a2,a4,8000490 <__fixsfsi+0x70>
 800047c:	f6a6869b          	addw	a3,a3,-150
 8000480:	00d797bb          	sllw	a5,a5,a3
 8000484:	02051063          	bnez	a0,80004a4 <__fixsfsi+0x84>
 8000488:	0007851b          	sext.w	a0,a5
 800048c:	00008067          	ret
 8000490:	09600713          	li	a4,150
 8000494:	40d7073b          	subw	a4,a4,a3
 8000498:	00e7d7b3          	srl	a5,a5,a4
 800049c:	0007879b          	sext.w	a5,a5
 80004a0:	fe0504e3          	beqz	a0,8000488 <__fixsfsi+0x68>
 80004a4:	40f0053b          	negw	a0,a5
 80004a8:	00008067          	ret

00000000080004ac <__floatsisf>:
 80004ac:	fe010113          	add	sp,sp,-32
 80004b0:	00113c23          	sd	ra,24(sp)
 80004b4:	00813823          	sd	s0,16(sp)
 80004b8:	00913423          	sd	s1,8(sp)
 80004bc:	01213023          	sd	s2,0(sp)
 80004c0:	04050663          	beqz	a0,800050c <__floatsisf+0x60>
 80004c4:	0005041b          	sext.w	s0,a0
 80004c8:	01f5549b          	srlw	s1,a0,0x1f
 80004cc:	06054a63          	bltz	a0,8000540 <__floatsisf+0x94>
 80004d0:	02041913          	sll	s2,s0,0x20
 80004d4:	02095913          	srl	s2,s2,0x20
 80004d8:	00090513          	mv	a0,s2
 80004dc:	0fc000ef          	jal	80005d8 <__clzdi2>
 80004e0:	0be00713          	li	a4,190
 80004e4:	40a7073b          	subw	a4,a4,a0
 80004e8:	09600693          	li	a3,150
 80004ec:	04e6ce63          	blt	a3,a4,8000548 <__floatsisf+0x9c>
 80004f0:	0ff77793          	zext.b	a5,a4
 80004f4:	0cd70c63          	beq	a4,a3,80005cc <__floatsisf+0x120>
 80004f8:	fd85051b          	addw	a0,a0,-40
 80004fc:	00a91933          	sll	s2,s2,a0
 8000500:	02991913          	sll	s2,s2,0x29
 8000504:	02995513          	srl	a0,s2,0x29
 8000508:	0100006f          	j	8000518 <__floatsisf+0x6c>
 800050c:	00000493          	li	s1,0
 8000510:	00000793          	li	a5,0
 8000514:	00000513          	li	a0,0
 8000518:	01813083          	ld	ra,24(sp)
 800051c:	01013403          	ld	s0,16(sp)
 8000520:	0177979b          	sllw	a5,a5,0x17
 8000524:	01f4949b          	sllw	s1,s1,0x1f
 8000528:	00f56533          	or	a0,a0,a5
 800052c:	00013903          	ld	s2,0(sp)
 8000530:	00956533          	or	a0,a0,s1
 8000534:	00813483          	ld	s1,8(sp)
 8000538:	02010113          	add	sp,sp,32
 800053c:	00008067          	ret
 8000540:	4080043b          	negw	s0,s0
 8000544:	f8dff06f          	j	80004d0 <__floatsisf+0x24>
 8000548:	09900793          	li	a5,153
 800054c:	04e7cc63          	blt	a5,a4,80005a4 <__floatsisf+0xf8>
 8000550:	00f70663          	beq	a4,a5,800055c <__floatsisf+0xb0>
 8000554:	fdb5051b          	addw	a0,a0,-37
 8000558:	00a91933          	sll	s2,s2,a0
 800055c:	fc0007b7          	lui	a5,0xfc000
 8000560:	fff78793          	add	a5,a5,-1 # fffffffffbffffff <_estack+0xffffffffd7ffffff>
 8000564:	00797693          	and	a3,s2,7
 8000568:	00f97533          	and	a0,s2,a5
 800056c:	02068463          	beqz	a3,8000594 <__floatsisf+0xe8>
 8000570:	00f97913          	and	s2,s2,15
 8000574:	00400693          	li	a3,4
 8000578:	00d90e63          	beq	s2,a3,8000594 <__floatsisf+0xe8>
 800057c:	00450513          	add	a0,a0,4
 8000580:	040006b7          	lui	a3,0x4000
 8000584:	00d576b3          	and	a3,a0,a3
 8000588:	00068663          	beqz	a3,8000594 <__floatsisf+0xe8>
 800058c:	00f57533          	and	a0,a0,a5
 8000590:	00170713          	add	a4,a4,1 # 400001 <_Min_Stack_Size-0x3fffff>
 8000594:	02651513          	sll	a0,a0,0x26
 8000598:	02955513          	srl	a0,a0,0x29
 800059c:	0ff77793          	zext.b	a5,a4
 80005a0:	f79ff06f          	j	8000518 <__floatsisf+0x6c>
 80005a4:	ffb5079b          	addw	a5,a0,-5
 80005a8:	02500693          	li	a3,37
 80005ac:	00f417bb          	sllw	a5,s0,a5
 80005b0:	40a686bb          	subw	a3,a3,a0
 80005b4:	00d4543b          	srlw	s0,s0,a3
 80005b8:	00f037b3          	snez	a5,a5
 80005bc:	00f46433          	or	s0,s0,a5
 80005c0:	02041913          	sll	s2,s0,0x20
 80005c4:	02095913          	srl	s2,s2,0x20
 80005c8:	f95ff06f          	j	800055c <__floatsisf+0xb0>
 80005cc:	02941513          	sll	a0,s0,0x29
 80005d0:	02955513          	srl	a0,a0,0x29
 80005d4:	f45ff06f          	j	8000518 <__floatsisf+0x6c>

00000000080005d8 <__clzdi2>:
 80005d8:	03855793          	srl	a5,a0,0x38
 80005dc:	06079063          	bnez	a5,800063c <__clzdi2+0x64>
 80005e0:	03800793          	li	a5,56
 80005e4:	0080006f          	j	80005ec <__clzdi2+0x14>
 80005e8:	02069863          	bnez	a3,8000618 <__clzdi2+0x40>
 80005ec:	ff878793          	add	a5,a5,-8
 80005f0:	00f55733          	srl	a4,a0,a5
 80005f4:	0ff77693          	zext.b	a3,a4
 80005f8:	fe0798e3          	bnez	a5,80005e8 <__clzdi2+0x10>
 80005fc:	04000693          	li	a3,64
 8000600:	18000797          	auipc	a5,0x18000
 8000604:	a087b783          	ld	a5,-1528(a5) # 20000008 <_GLOBAL_OFFSET_TABLE_+0x8>
 8000608:	00a787b3          	add	a5,a5,a0
 800060c:	0007c503          	lbu	a0,0(a5)
 8000610:	40a6853b          	subw	a0,a3,a0
 8000614:	00008067          	ret
 8000618:	04000693          	li	a3,64
 800061c:	40f686b3          	sub	a3,a3,a5
 8000620:	00070513          	mv	a0,a4
 8000624:	18000797          	auipc	a5,0x18000
 8000628:	9e47b783          	ld	a5,-1564(a5) # 20000008 <_GLOBAL_OFFSET_TABLE_+0x8>
 800062c:	00a787b3          	add	a5,a5,a0
 8000630:	0007c503          	lbu	a0,0(a5)
 8000634:	40a6853b          	subw	a0,a3,a0
 8000638:	00008067          	ret
 800063c:	00078513          	mv	a0,a5
 8000640:	00800693          	li	a3,8
 8000644:	fbdff06f          	j	8000600 <__clzdi2+0x28>
