
test_4.elf:     file format elf64-littleriscv


Disassembly of section .text:

0000000008000000 <DET>:
 8000000:	fd010113          	addi	x2,x2,-48
 8000004:	02113423          	sd	x1,40(x2)
 8000008:	02813023          	sd	x8,32(x2)
 800000c:	03010413          	addi	x8,x2,48
 8000010:	fca43c23          	sd	x10,-40(x8)
 8000014:	00058793          	addi	x15,x11,0
 8000018:	fcf42a23          	sw	x15,-44(x8)
 800001c:	fe042423          	sw	x0,-24(x8)
 8000020:	fd442783          	lw	x15,-44(x8)
 8000024:	0007871b          	addiw	x14,x15,0
 8000028:	00100793          	addi	x15,x0,1
 800002c:	00f71863          	bne	x14,x15,800003c <DET+0x3c>
 8000030:	fd843783          	ld	x15,-40(x8)
 8000034:	0007a783          	lw	x15,0(x15)
 8000038:	0f00006f          	jal	x0,8000128 <DET+0x128>
 800003c:	fd442783          	lw	x15,-44(x8)
 8000040:	0007871b          	addiw	x14,x15,0
 8000044:	00100793          	addi	x15,x0,1
 8000048:	0ce7de63          	bge	x15,x14,8000124 <DET+0x124>
 800004c:	fe042623          	sw	x0,-20(x8)
 8000050:	0bc0006f          	jal	x0,800010c <DET+0x10c>
 8000054:	fd442703          	lw	x14,-44(x8)
 8000058:	fec42783          	lw	x15,-20(x8)
 800005c:	00070613          	addi	x12,x14,0
 8000060:	00078593          	addi	x11,x15,0
 8000064:	fd843503          	ld	x10,-40(x8)
 8000068:	0d4000ef          	jal	x1,800013c <Minor>
 800006c:	00050793          	addi	x15,x10,0
 8000070:	fef42223          	sw	x15,-28(x8)
 8000074:	fec42783          	lw	x15,-20(x8)
 8000078:	0027879b          	addiw	x15,x15,2
 800007c:	0007879b          	addiw	x15,x15,0
 8000080:	00078513          	addi	x10,x15,0
 8000084:	368000ef          	jal	x1,80003ec <__floatsidf>
 8000088:	00050713          	addi	x14,x10,0
 800008c:	080027b7          	lui	x15,0x8002
 8000090:	3707b783          	ld	x15,880(x15) # 8002370 <_etext>
 8000094:	00070593          	addi	x11,x14,0
 8000098:	00078513          	addi	x10,x15,0
 800009c:	009010ef          	jal	x1,80018a4 <pow>
 80000a0:	00050793          	addi	x15,x10,0
 80000a4:	00078513          	addi	x10,x15,0
 80000a8:	2dc000ef          	jal	x1,8000384 <__fixdfsi>
 80000ac:	00050793          	addi	x15,x10,0
 80000b0:	0007869b          	addiw	x13,x15,0
 80000b4:	fd843703          	ld	x14,-40(x8)
 80000b8:	fec42783          	lw	x15,-20(x8)
 80000bc:	00279793          	slli	x15,x15,0x2
 80000c0:	00f707b3          	add	x15,x14,x15
 80000c4:	0007a783          	lw	x15,0(x15)
 80000c8:	00078593          	addi	x11,x15,0
 80000cc:	00068513          	addi	x10,x13,0
 80000d0:	3a4000ef          	jal	x1,8000474 <__muldi3>
 80000d4:	00050793          	addi	x15,x10,0
 80000d8:	0007879b          	addiw	x15,x15,0
 80000dc:	fe442703          	lw	x14,-28(x8)
 80000e0:	00070593          	addi	x11,x14,0
 80000e4:	00078513          	addi	x10,x15,0
 80000e8:	38c000ef          	jal	x1,8000474 <__muldi3>
 80000ec:	00050793          	addi	x15,x10,0
 80000f0:	0007879b          	addiw	x15,x15,0
 80000f4:	fe842703          	lw	x14,-24(x8)
 80000f8:	00f707bb          	addw	x15,x14,x15
 80000fc:	fef42423          	sw	x15,-24(x8)
 8000100:	fec42783          	lw	x15,-20(x8)
 8000104:	0017879b          	addiw	x15,x15,1
 8000108:	fef42623          	sw	x15,-20(x8)
 800010c:	fec42783          	lw	x15,-20(x8)
 8000110:	00078713          	addi	x14,x15,0
 8000114:	fd442783          	lw	x15,-44(x8)
 8000118:	0007071b          	addiw	x14,x14,0
 800011c:	0007879b          	addiw	x15,x15,0
 8000120:	f2f74ae3          	blt	x14,x15,8000054 <DET+0x54>
 8000124:	fe842783          	lw	x15,-24(x8)
 8000128:	00078513          	addi	x10,x15,0
 800012c:	02813083          	ld	x1,40(x2)
 8000130:	02013403          	ld	x8,32(x2)
 8000134:	03010113          	addi	x2,x2,48
 8000138:	00008067          	jalr	x0,0(x1)

000000000800013c <Minor>:
 800013c:	99010113          	addi	x2,x2,-1648
 8000140:	66113423          	sd	x1,1640(x2)
 8000144:	66813023          	sd	x8,1632(x2)
 8000148:	67010413          	addi	x8,x2,1648
 800014c:	98a43c23          	sd	x10,-1640(x8)
 8000150:	00058793          	addi	x15,x11,0
 8000154:	00060713          	addi	x14,x12,0
 8000158:	98f42a23          	sw	x15,-1644(x8)
 800015c:	00070793          	addi	x15,x14,0
 8000160:	98f42823          	sw	x15,-1648(x8)
 8000164:	fe042623          	sw	x0,-20(x8)
 8000168:	1380006f          	jal	x0,80002a0 <Minor+0x164>
 800016c:	fe042423          	sw	x0,-24(x8)
 8000170:	10c0006f          	jal	x0,800027c <Minor+0x140>
 8000174:	fe842783          	lw	x15,-24(x8)
 8000178:	00078713          	addi	x14,x15,0
 800017c:	99442783          	lw	x15,-1644(x8)
 8000180:	0007071b          	addiw	x14,x14,0
 8000184:	0007879b          	addiw	x15,x15,0
 8000188:	06f75463          	bge	x14,x15,80001f0 <Minor+0xb4>
 800018c:	fec42783          	lw	x15,-20(x8)
 8000190:	00178713          	addi	x14,x15,1
 8000194:	00070793          	addi	x15,x14,0
 8000198:	00279793          	slli	x15,x15,0x2
 800019c:	00e787b3          	add	x15,x15,x14
 80001a0:	00479793          	slli	x15,x15,0x4
 80001a4:	00078713          	addi	x14,x15,0
 80001a8:	99843783          	ld	x15,-1640(x8)
 80001ac:	00e78733          	add	x14,x15,x14
 80001b0:	fe842783          	lw	x15,-24(x8)
 80001b4:	00279793          	slli	x15,x15,0x2
 80001b8:	00f707b3          	add	x15,x14,x15
 80001bc:	0007a683          	lw	x13,0(x15)
 80001c0:	fe842603          	lw	x12,-24(x8)
 80001c4:	fec42703          	lw	x14,-20(x8)
 80001c8:	00070793          	addi	x15,x14,0
 80001cc:	00279793          	slli	x15,x15,0x2
 80001d0:	00e787b3          	add	x15,x15,x14
 80001d4:	00279793          	slli	x15,x15,0x2
 80001d8:	00c787b3          	add	x15,x15,x12
 80001dc:	00279793          	slli	x15,x15,0x2
 80001e0:	ff078793          	addi	x15,x15,-16
 80001e4:	008787b3          	add	x15,x15,x8
 80001e8:	9ad7ac23          	sw	x13,-1608(x15)
 80001ec:	0840006f          	jal	x0,8000270 <Minor+0x134>
 80001f0:	fe842783          	lw	x15,-24(x8)
 80001f4:	00078713          	addi	x14,x15,0
 80001f8:	99442783          	lw	x15,-1644(x8)
 80001fc:	0007071b          	addiw	x14,x14,0
 8000200:	0007879b          	addiw	x15,x15,0
 8000204:	06f74663          	blt	x14,x15,8000270 <Minor+0x134>
 8000208:	fec42783          	lw	x15,-20(x8)
 800020c:	00178713          	addi	x14,x15,1
 8000210:	00070793          	addi	x15,x14,0
 8000214:	00279793          	slli	x15,x15,0x2
 8000218:	00e787b3          	add	x15,x15,x14
 800021c:	00479793          	slli	x15,x15,0x4
 8000220:	00078713          	addi	x14,x15,0
 8000224:	99843783          	ld	x15,-1640(x8)
 8000228:	00e78733          	add	x14,x15,x14
 800022c:	fe842783          	lw	x15,-24(x8)
 8000230:	0017879b          	addiw	x15,x15,1
 8000234:	0007879b          	addiw	x15,x15,0
 8000238:	00279793          	slli	x15,x15,0x2
 800023c:	00f707b3          	add	x15,x14,x15
 8000240:	0007a683          	lw	x13,0(x15)
 8000244:	fe842603          	lw	x12,-24(x8)
 8000248:	fec42703          	lw	x14,-20(x8)
 800024c:	00070793          	addi	x15,x14,0
 8000250:	00279793          	slli	x15,x15,0x2
 8000254:	00e787b3          	add	x15,x15,x14
 8000258:	00279793          	slli	x15,x15,0x2
 800025c:	00c787b3          	add	x15,x15,x12
 8000260:	00279793          	slli	x15,x15,0x2
 8000264:	ff078793          	addi	x15,x15,-16
 8000268:	008787b3          	add	x15,x15,x8
 800026c:	9ad7ac23          	sw	x13,-1608(x15)
 8000270:	fe842783          	lw	x15,-24(x8)
 8000274:	0017879b          	addiw	x15,x15,1
 8000278:	fef42423          	sw	x15,-24(x8)
 800027c:	99042783          	lw	x15,-1648(x8)
 8000280:	fff7879b          	addiw	x15,x15,-1
 8000284:	0007871b          	addiw	x14,x15,0
 8000288:	fe842783          	lw	x15,-24(x8)
 800028c:	0007879b          	addiw	x15,x15,0
 8000290:	eee7c2e3          	blt	x15,x14,8000174 <Minor+0x38>
 8000294:	fec42783          	lw	x15,-20(x8)
 8000298:	0017879b          	addiw	x15,x15,1
 800029c:	fef42623          	sw	x15,-20(x8)
 80002a0:	99042783          	lw	x15,-1648(x8)
 80002a4:	fff7879b          	addiw	x15,x15,-1
 80002a8:	0007871b          	addiw	x14,x15,0
 80002ac:	fec42783          	lw	x15,-20(x8)
 80002b0:	0007879b          	addiw	x15,x15,0
 80002b4:	eae7cce3          	blt	x15,x14,800016c <Minor+0x30>
 80002b8:	99042783          	lw	x15,-1648(x8)
 80002bc:	fff7879b          	addiw	x15,x15,-1
 80002c0:	0007871b          	addiw	x14,x15,0
 80002c4:	9a840793          	addi	x15,x8,-1624
 80002c8:	00070593          	addi	x11,x14,0
 80002cc:	00078513          	addi	x10,x15,0
 80002d0:	d31ff0ef          	jal	x1,8000000 <DET>
 80002d4:	00050793          	addi	x15,x10,0
 80002d8:	00078513          	addi	x10,x15,0
 80002dc:	66813083          	ld	x1,1640(x2)
 80002e0:	66013403          	ld	x8,1632(x2)
 80002e4:	67010113          	addi	x2,x2,1648
 80002e8:	00008067          	jalr	x0,0(x1)

00000000080002ec <main>:
 80002ec:	9b010113          	addi	x2,x2,-1616
 80002f0:	64113423          	sd	x1,1608(x2)
 80002f4:	64813023          	sd	x8,1600(x2)
 80002f8:	65010413          	addi	x8,x2,1616
 80002fc:	9b040793          	addi	x15,x8,-1616
 8000300:	64000713          	addi	x14,x0,1600
 8000304:	00070613          	addi	x12,x14,0
 8000308:	00000593          	addi	x11,x0,0
 800030c:	00078513          	addi	x10,x15,0
 8000310:	6e1010ef          	jal	x1,80021f0 <memset>
 8000314:	00100793          	addi	x15,x0,1
 8000318:	9af42823          	sw	x15,-1616(x8)
 800031c:	00100793          	addi	x15,x0,1
 8000320:	9af42a23          	sw	x15,-1612(x8)
 8000324:	00400793          	addi	x15,x0,4
 8000328:	9af42c23          	sw	x15,-1608(x8)
 800032c:	00500793          	addi	x15,x0,5
 8000330:	a0f42023          	sw	x15,-1536(x8)
 8000334:	00100793          	addi	x15,x0,1
 8000338:	a0f42223          	sw	x15,-1532(x8)
 800033c:	00400793          	addi	x15,x0,4
 8000340:	a0f42423          	sw	x15,-1528(x8)
 8000344:	00900793          	addi	x15,x0,9
 8000348:	a4f42823          	sw	x15,-1456(x8)
 800034c:	00800793          	addi	x15,x0,8
 8000350:	a4f42a23          	sw	x15,-1452(x8)
 8000354:	00500793          	addi	x15,x0,5
 8000358:	a4f42c23          	sw	x15,-1448(x8)
 800035c:	9b040793          	addi	x15,x8,-1616
 8000360:	00300593          	addi	x11,x0,3
 8000364:	00078513          	addi	x10,x15,0
 8000368:	c99ff0ef          	jal	x1,8000000 <DET>
 800036c:	00050793          	addi	x15,x10,0
 8000370:	00078513          	addi	x10,x15,0
 8000374:	64813083          	ld	x1,1608(x2)
 8000378:	64013403          	ld	x8,1600(x2)
 800037c:	65010113          	addi	x2,x2,1616
 8000380:	00008067          	jalr	x0,0(x1)

0000000008000384 <__fixdfsi>:
 8000384:	03455713          	srli	x14,x10,0x34
 8000388:	00c51793          	slli	x15,x10,0xc
 800038c:	7ff77713          	andi	x14,x14,2047
 8000390:	3fe00693          	addi	x13,x0,1022
 8000394:	00c7d793          	srli	x15,x15,0xc
 8000398:	03f55513          	srli	x10,x10,0x3f
 800039c:	00e6de63          	bge	x13,x14,80003b8 <__fixdfsi+0x34>
 80003a0:	41d00693          	addi	x13,x0,1053
 80003a4:	00e6de63          	bge	x13,x14,80003c0 <__fixdfsi+0x3c>
 80003a8:	800007b7          	lui	x15,0x80000
 80003ac:	fff7c793          	xori	x15,x15,-1
 80003b0:	00a7853b          	addw	x10,x15,x10
 80003b4:	00008067          	jalr	x0,0(x1)
 80003b8:	00000513          	addi	x10,x0,0
 80003bc:	00008067          	jalr	x0,0(x1)
 80003c0:	00100693          	addi	x13,x0,1
 80003c4:	03469693          	slli	x13,x13,0x34
 80003c8:	00d7e7b3          	or	x15,x15,x13
 80003cc:	43300693          	addi	x13,x0,1075
 80003d0:	40e6873b          	subw	x14,x13,x14
 80003d4:	00e7d7b3          	srl	x15,x15,x14
 80003d8:	00050663          	beq	x10,x0,80003e4 <__fixdfsi+0x60>
 80003dc:	40f0053b          	subw	x10,x0,x15
 80003e0:	00008067          	jalr	x0,0(x1)
 80003e4:	0007851b          	addiw	x10,x15,0 # ffffffff80000000 <_estack+0xffffffff5c000000>
 80003e8:	00008067          	jalr	x0,0(x1)

00000000080003ec <__floatsidf>:
 80003ec:	fe010113          	addi	x2,x2,-32
 80003f0:	00113c23          	sd	x1,24(x2)
 80003f4:	00813823          	sd	x8,16(x2)
 80003f8:	00913423          	sd	x9,8(x2)
 80003fc:	06050063          	beq	x10,x0,800045c <__floatsidf+0x70>
 8000400:	0005071b          	addiw	x14,x10,0
 8000404:	01f5549b          	srliw	x9,x10,0x1f
 8000408:	06054263          	blt	x10,x0,800046c <__floatsidf+0x80>
 800040c:	02071413          	slli	x8,x14,0x20
 8000410:	02045413          	srli	x8,x8,0x20
 8000414:	00040513          	addi	x10,x8,0
 8000418:	080000ef          	jal	x1,8000498 <__clzdi2>
 800041c:	ff55079b          	addiw	x15,x10,-11
 8000420:	00f41733          	sll	x14,x8,x15
 8000424:	43e00793          	addi	x15,x0,1086
 8000428:	00c71713          	slli	x14,x14,0xc
 800042c:	40a787bb          	subw	x15,x15,x10
 8000430:	00c75713          	srli	x14,x14,0xc
 8000434:	7ff7f793          	andi	x15,x15,2047
 8000438:	01813083          	ld	x1,24(x2)
 800043c:	01013403          	ld	x8,16(x2)
 8000440:	03479793          	slli	x15,x15,0x34
 8000444:	03f49513          	slli	x10,x9,0x3f
 8000448:	00e7e7b3          	or	x15,x15,x14
 800044c:	00813483          	ld	x9,8(x2)
 8000450:	00a7e533          	or	x10,x15,x10
 8000454:	02010113          	addi	x2,x2,32
 8000458:	00008067          	jalr	x0,0(x1)
 800045c:	00000493          	addi	x9,x0,0
 8000460:	00000793          	addi	x15,x0,0
 8000464:	00000713          	addi	x14,x0,0
 8000468:	fd1ff06f          	jal	x0,8000438 <__floatsidf+0x4c>
 800046c:	40e0073b          	subw	x14,x0,x14
 8000470:	f9dff06f          	jal	x0,800040c <__floatsidf+0x20>

0000000008000474 <__muldi3>:
 8000474:	00050613          	addi	x12,x10,0
 8000478:	00000513          	addi	x10,x0,0
 800047c:	0015f693          	andi	x13,x11,1
 8000480:	00068463          	beq	x13,x0,8000488 <__muldi3+0x14>
 8000484:	00c50533          	add	x10,x10,x12
 8000488:	0015d593          	srli	x11,x11,0x1
 800048c:	00161613          	slli	x12,x12,0x1
 8000490:	fe0596e3          	bne	x11,x0,800047c <__muldi3+0x8>
 8000494:	00008067          	jalr	x0,0(x1)

0000000008000498 <__clzdi2>:
 8000498:	03855793          	srli	x15,x10,0x38
 800049c:	06079063          	bne	x15,x0,80004fc <__clzdi2+0x64>
 80004a0:	03800793          	addi	x15,x0,56
 80004a4:	0080006f          	jal	x0,80004ac <__clzdi2+0x14>
 80004a8:	02069863          	bne	x13,x0,80004d8 <__clzdi2+0x40>
 80004ac:	ff878793          	addi	x15,x15,-8
 80004b0:	00f55733          	srl	x14,x10,x15
 80004b4:	0ff77693          	andi	x13,x14,255
 80004b8:	fe0798e3          	bne	x15,x0,80004a8 <__clzdi2+0x10>
 80004bc:	04000693          	addi	x13,x0,64
 80004c0:	18000797          	auipc	x15,0x18000
 80004c4:	b487b783          	ld	x15,-1208(x15) # 20000008 <_GLOBAL_OFFSET_TABLE_+0x8>
 80004c8:	00a787b3          	add	x15,x15,x10
 80004cc:	0007c503          	lbu	x10,0(x15)
 80004d0:	40a6853b          	subw	x10,x13,x10
 80004d4:	00008067          	jalr	x0,0(x1)
 80004d8:	04000693          	addi	x13,x0,64
 80004dc:	40f686b3          	sub	x13,x13,x15
 80004e0:	00070513          	addi	x10,x14,0
 80004e4:	18000797          	auipc	x15,0x18000
 80004e8:	b247b783          	ld	x15,-1244(x15) # 20000008 <_GLOBAL_OFFSET_TABLE_+0x8>
 80004ec:	00a787b3          	add	x15,x15,x10
 80004f0:	0007c503          	lbu	x10,0(x15)
 80004f4:	40a6853b          	subw	x10,x13,x10
 80004f8:	00008067          	jalr	x0,0(x1)
 80004fc:	00078513          	addi	x10,x15,0
 8000500:	00800693          	addi	x13,x0,8
 8000504:	fbdff06f          	jal	x0,80004c0 <__clzdi2+0x28>

0000000008000508 <__adddf3>:
 8000508:	fff00613          	addi	x12,x0,-1
 800050c:	fe010113          	addi	x2,x2,-32
 8000510:	00c65713          	srli	x14,x12,0xc
 8000514:	00a777b3          	and	x15,x14,x10
 8000518:	0345d693          	srli	x13,x11,0x34
 800051c:	00b77733          	and	x14,x14,x11
 8000520:	00813823          	sd	x8,16(x2)
 8000524:	00913423          	sd	x9,8(x2)
 8000528:	03455413          	srli	x8,x10,0x34
 800052c:	00113c23          	sd	x1,24(x2)
 8000530:	01213023          	sd	x18,0(x2)
 8000534:	03f55493          	srli	x9,x10,0x3f
 8000538:	03f5d593          	srli	x11,x11,0x3f
 800053c:	7ff47413          	andi	x8,x8,2047
 8000540:	00379793          	slli	x15,x15,0x3
 8000544:	7ff6f693          	andi	x13,x13,2047
 8000548:	00371713          	slli	x14,x14,0x3
 800054c:	10b48463          	beq	x9,x11,8000654 <__adddf3+0x14c>
 8000550:	40d4053b          	subw	x10,x8,x13
 8000554:	0005061b          	addiw	x12,x10,0
 8000558:	0ac05c63          	bge	x0,x12,8000610 <__adddf3+0x108>
 800055c:	12068863          	beq	x13,x0,800068c <__adddf3+0x184>
 8000560:	7ff00693          	addi	x13,x0,2047
 8000564:	0cd40a63          	beq	x8,x13,8000638 <__adddf3+0x130>
 8000568:	00100693          	addi	x13,x0,1
 800056c:	03769693          	slli	x13,x13,0x37
 8000570:	00d76733          	or	x14,x14,x13
 8000574:	03800593          	addi	x11,x0,56
 8000578:	00100693          	addi	x13,x0,1
 800057c:	00c5ce63          	blt	x11,x12,8000598 <__adddf3+0x90>
 8000580:	04000693          	addi	x13,x0,64
 8000584:	40c686bb          	subw	x13,x13,x12
 8000588:	00d716b3          	sll	x13,x14,x13
 800058c:	00c75633          	srl	x12,x14,x12
 8000590:	00d036b3          	sltu	x13,x0,x13
 8000594:	00d666b3          	or	x13,x12,x13
 8000598:	40d787b3          	sub	x15,x15,x13
 800059c:	0377d713          	srli	x14,x15,0x37
 80005a0:	00177713          	andi	x14,x14,1
 80005a4:	16071e63          	bne	x14,x0,8000720 <__adddf3+0x218>
 80005a8:	0077f713          	andi	x14,x15,7
 80005ac:	14070c63          	beq	x14,x0,8000704 <__adddf3+0x1fc>
 80005b0:	00f7f713          	andi	x14,x15,15
 80005b4:	00400693          	addi	x13,x0,4
 80005b8:	00d70463          	beq	x14,x13,80005c0 <__adddf3+0xb8>
 80005bc:	00478793          	addi	x15,x15,4
 80005c0:	0377d713          	srli	x14,x15,0x37
 80005c4:	00177713          	andi	x14,x14,1
 80005c8:	12070e63          	beq	x14,x0,8000704 <__adddf3+0x1fc>
 80005cc:	00140413          	addi	x8,x8,1
 80005d0:	7ff00713          	addi	x14,x0,2047
 80005d4:	00048813          	addi	x16,x9,0
 80005d8:	12e40e63          	beq	x8,x14,8000714 <__adddf3+0x20c>
 80005dc:	00979713          	slli	x14,x15,0x9
 80005e0:	7ff47513          	andi	x10,x8,2047
 80005e4:	00c75713          	srli	x14,x14,0xc
 80005e8:	01813083          	ld	x1,24(x2)
 80005ec:	01013403          	ld	x8,16(x2)
 80005f0:	03451513          	slli	x10,x10,0x34
 80005f4:	00e56533          	or	x10,x10,x14
 80005f8:	03f81793          	slli	x15,x16,0x3f
 80005fc:	00813483          	ld	x9,8(x2)
 8000600:	00013903          	ld	x18,0(x2)
 8000604:	00f56533          	or	x10,x10,x15
 8000608:	02010113          	addi	x2,x2,32
 800060c:	00008067          	jalr	x0,0(x1)
 8000610:	08060c63          	beq	x12,x0,80006a8 <__adddf3+0x1a0>
 8000614:	1e041463          	bne	x8,x0,80007fc <__adddf3+0x2f4>
 8000618:	0e078063          	beq	x15,x0,80006f8 <__adddf3+0x1f0>
 800061c:	fff54513          	xori	x10,x10,-1
 8000620:	0005051b          	addiw	x10,x10,0
 8000624:	34050c63          	beq	x10,x0,800097c <__adddf3+0x474>
 8000628:	7ff00613          	addi	x12,x0,2047
 800062c:	1ec69463          	bne	x13,x12,8000814 <__adddf3+0x30c>
 8000630:	00058493          	addi	x9,x11,0
 8000634:	00070793          	addi	x15,x14,0
 8000638:	0037d793          	srli	x15,x15,0x3
 800063c:	16078e63          	beq	x15,x0,80007b8 <__adddf3+0x2b0>
 8000640:	00100713          	addi	x14,x0,1
 8000644:	00000813          	addi	x16,x0,0
 8000648:	7ff00513          	addi	x10,x0,2047
 800064c:	03371713          	slli	x14,x14,0x33
 8000650:	f99ff06f          	jal	x0,80005e8 <__adddf3+0xe0>
 8000654:	40d4053b          	subw	x10,x8,x13
 8000658:	0005059b          	addiw	x11,x10,0
 800065c:	00048813          	addi	x16,x9,0
 8000660:	10b05663          	bge	x0,x11,800076c <__adddf3+0x264>
 8000664:	06068c63          	beq	x13,x0,80006dc <__adddf3+0x1d4>
 8000668:	7ff00693          	addi	x13,x0,2047
 800066c:	fcd406e3          	beq	x8,x13,8000638 <__adddf3+0x130>
 8000670:	00100693          	addi	x13,x0,1
 8000674:	03769693          	slli	x13,x13,0x37
 8000678:	00d76733          	or	x14,x14,x13
 800067c:	03800693          	addi	x13,x0,56
 8000680:	1eb6d663          	bge	x13,x11,800086c <__adddf3+0x364>
 8000684:	00178793          	addi	x15,x15,1
 8000688:	f29ff06f          	jal	x0,80005b0 <__adddf3+0xa8>
 800068c:	06070c63          	beq	x14,x0,8000704 <__adddf3+0x1fc>
 8000690:	fff5061b          	addiw	x12,x10,-1
 8000694:	28060e63          	beq	x12,x0,8000930 <__adddf3+0x428>
 8000698:	7ff00693          	addi	x13,x0,2047
 800069c:	ecd41ce3          	bne	x8,x13,8000574 <__adddf3+0x6c>
 80006a0:	0037d793          	srli	x15,x15,0x3
 80006a4:	f99ff06f          	jal	x0,800063c <__adddf3+0x134>
 80006a8:	00140693          	addi	x13,x8,1
 80006ac:	7fe6f693          	andi	x13,x13,2046
 80006b0:	18069c63          	bne	x13,x0,8000848 <__adddf3+0x340>
 80006b4:	24041c63          	bne	x8,x0,800090c <__adddf3+0x404>
 80006b8:	2a078a63          	beq	x15,x0,800096c <__adddf3+0x464>
 80006bc:	12070263          	beq	x14,x0,80007e0 <__adddf3+0x2d8>
 80006c0:	40e78633          	sub	x12,x15,x14
 80006c4:	03765693          	srli	x13,x12,0x37
 80006c8:	0016f693          	andi	x13,x13,1
 80006cc:	30068463          	beq	x13,x0,80009d4 <__adddf3+0x4cc>
 80006d0:	40f707b3          	sub	x15,x14,x15
 80006d4:	00058493          	addi	x9,x11,0
 80006d8:	0880006f          	jal	x0,8000760 <__adddf3+0x258>
 80006dc:	02070463          	beq	x14,x0,8000704 <__adddf3+0x1fc>
 80006e0:	fff5059b          	addiw	x11,x10,-1
 80006e4:	24058263          	beq	x11,x0,8000928 <__adddf3+0x420>
 80006e8:	7ff00693          	addi	x13,x0,2047
 80006ec:	f8d418e3          	bne	x8,x13,800067c <__adddf3+0x174>
 80006f0:	0037d793          	srli	x15,x15,0x3
 80006f4:	f49ff06f          	jal	x0,800063c <__adddf3+0x134>
 80006f8:	00068413          	addi	x8,x13,0
 80006fc:	00058493          	addi	x9,x11,0
 8000700:	00070793          	addi	x15,x14,0
 8000704:	7ff00713          	addi	x14,x0,2047
 8000708:	0037d793          	srli	x15,x15,0x3
 800070c:	f2e408e3          	beq	x8,x14,800063c <__adddf3+0x134>
 8000710:	0d80006f          	jal	x0,80007e8 <__adddf3+0x2e0>
 8000714:	7ff00513          	addi	x10,x0,2047
 8000718:	00000713          	addi	x14,x0,0
 800071c:	ecdff06f          	jal	x0,80005e8 <__adddf3+0xe0>
 8000720:	00979913          	slli	x18,x15,0x9
 8000724:	00995913          	srli	x18,x18,0x9
 8000728:	00090513          	addi	x10,x18,0
 800072c:	d6dff0ef          	jal	x1,8000498 <__clzdi2>
 8000730:	ff85071b          	addiw	x14,x10,-8
 8000734:	00e91933          	sll	x18,x18,x14
 8000738:	06874463          	blt	x14,x8,80007a0 <__adddf3+0x298>
 800073c:	4087053b          	subw	x10,x14,x8
 8000740:	0015051b          	addiw	x10,x10,1
 8000744:	04000793          	addi	x15,x0,64
 8000748:	40a787bb          	subw	x15,x15,x10
 800074c:	00f917b3          	sll	x15,x18,x15
 8000750:	00f037b3          	sltu	x15,x0,x15
 8000754:	00a95933          	srl	x18,x18,x10
 8000758:	00f967b3          	or	x15,x18,x15
 800075c:	00000413          	addi	x8,x0,0
 8000760:	0077f713          	andi	x14,x15,7
 8000764:	e40716e3          	bne	x14,x0,80005b0 <__adddf3+0xa8>
 8000768:	e59ff06f          	jal	x0,80005c0 <__adddf3+0xb8>
 800076c:	04058e63          	beq	x11,x0,80007c8 <__adddf3+0x2c0>
 8000770:	14040e63          	beq	x8,x0,80008cc <__adddf3+0x3c4>
 8000774:	7ff00613          	addi	x12,x0,2047
 8000778:	eac68ee3          	beq	x13,x12,8000634 <__adddf3+0x12c>
 800077c:	00100613          	addi	x12,x0,1
 8000780:	03761613          	slli	x12,x12,0x37
 8000784:	40a0053b          	subw	x10,x0,x10
 8000788:	00c7e7b3          	or	x15,x15,x12
 800078c:	03800613          	addi	x12,x0,56
 8000790:	1aa65c63          	bge	x12,x10,8000948 <__adddf3+0x440>
 8000794:	00170793          	addi	x15,x14,1
 8000798:	00068413          	addi	x8,x13,0
 800079c:	e15ff06f          	jal	x0,80005b0 <__adddf3+0xa8>
 80007a0:	fff00793          	addi	x15,x0,-1
 80007a4:	03779793          	slli	x15,x15,0x37
 80007a8:	fff78793          	addi	x15,x15,-1
 80007ac:	40e40433          	sub	x8,x8,x14
 80007b0:	00f977b3          	and	x15,x18,x15
 80007b4:	fadff06f          	jal	x0,8000760 <__adddf3+0x258>
 80007b8:	00048813          	addi	x16,x9,0
 80007bc:	7ff00513          	addi	x10,x0,2047
 80007c0:	00000713          	addi	x14,x0,0
 80007c4:	e25ff06f          	jal	x0,80005e8 <__adddf3+0xe0>
 80007c8:	00140593          	addi	x11,x8,1
 80007cc:	7fe5f693          	andi	x13,x11,2046
 80007d0:	10069e63          	bne	x13,x0,80008ec <__adddf3+0x3e4>
 80007d4:	16041263          	bne	x8,x0,8000938 <__adddf3+0x430>
 80007d8:	1c078063          	beq	x15,x0,8000998 <__adddf3+0x490>
 80007dc:	1c071263          	bne	x14,x0,80009a0 <__adddf3+0x498>
 80007e0:	0037d793          	srli	x15,x15,0x3
 80007e4:	00000413          	addi	x8,x0,0
 80007e8:	00c79793          	slli	x15,x15,0xc
 80007ec:	00c7d713          	srli	x14,x15,0xc
 80007f0:	7ff47513          	andi	x10,x8,2047
 80007f4:	00048813          	addi	x16,x9,0
 80007f8:	df1ff06f          	jal	x0,80005e8 <__adddf3+0xe0>
 80007fc:	7ff00613          	addi	x12,x0,2047
 8000800:	e2c688e3          	beq	x13,x12,8000630 <__adddf3+0x128>
 8000804:	00100613          	addi	x12,x0,1
 8000808:	03761613          	slli	x12,x12,0x37
 800080c:	40a0053b          	subw	x10,x0,x10
 8000810:	00c7e7b3          	or	x15,x15,x12
 8000814:	03800813          	addi	x16,x0,56
 8000818:	00100613          	addi	x12,x0,1
 800081c:	00a84e63          	blt	x16,x10,8000838 <__adddf3+0x330>
 8000820:	04000613          	addi	x12,x0,64
 8000824:	40a6063b          	subw	x12,x12,x10
 8000828:	00c79633          	sll	x12,x15,x12
 800082c:	00a7d533          	srl	x10,x15,x10
 8000830:	00c03633          	sltu	x12,x0,x12
 8000834:	00c56633          	or	x12,x10,x12
 8000838:	40c707b3          	sub	x15,x14,x12
 800083c:	00068413          	addi	x8,x13,0
 8000840:	00058493          	addi	x9,x11,0
 8000844:	d59ff06f          	jal	x0,800059c <__adddf3+0x94>
 8000848:	40e78933          	sub	x18,x15,x14
 800084c:	03795693          	srli	x13,x18,0x37
 8000850:	0016f693          	andi	x13,x13,1
 8000854:	0c069463          	bne	x13,x0,800091c <__adddf3+0x414>
 8000858:	ec0918e3          	bne	x18,x0,8000728 <__adddf3+0x220>
 800085c:	00000813          	addi	x16,x0,0
 8000860:	00000513          	addi	x10,x0,0
 8000864:	00000713          	addi	x14,x0,0
 8000868:	d81ff06f          	jal	x0,80005e8 <__adddf3+0xe0>
 800086c:	04000693          	addi	x13,x0,64
 8000870:	40b686bb          	subw	x13,x13,x11
 8000874:	00d716b3          	sll	x13,x14,x13
 8000878:	00b755b3          	srl	x11,x14,x11
 800087c:	00d03733          	sltu	x14,x0,x13
 8000880:	00e5e5b3          	or	x11,x11,x14
 8000884:	00b787b3          	add	x15,x15,x11
 8000888:	0377d713          	srli	x14,x15,0x37
 800088c:	00177713          	andi	x14,x14,1
 8000890:	d0070ce3          	beq	x14,x0,80005a8 <__adddf3+0xa0>
 8000894:	00140413          	addi	x8,x8,1
 8000898:	7ff00713          	addi	x14,x0,2047
 800089c:	e6e40ce3          	beq	x8,x14,8000714 <__adddf3+0x20c>
 80008a0:	1ff00713          	addi	x14,x0,511
 80008a4:	03671713          	slli	x14,x14,0x36
 80008a8:	0017d693          	srli	x13,x15,0x1
 80008ac:	fff70713          	addi	x14,x14,-1
 80008b0:	00e6f733          	and	x14,x13,x14
 80008b4:	0017f793          	andi	x15,x15,1
 80008b8:	00f767b3          	or	x15,x14,x15
 80008bc:	0077f693          	andi	x13,x15,7
 80008c0:	ce0698e3          	bne	x13,x0,80005b0 <__adddf3+0xa8>
 80008c4:	0037d793          	srli	x15,x15,0x3
 80008c8:	f21ff06f          	jal	x0,80007e8 <__adddf3+0x2e0>
 80008cc:	0c078063          	beq	x15,x0,800098c <__adddf3+0x484>
 80008d0:	fff54513          	xori	x10,x10,-1
 80008d4:	0005051b          	addiw	x10,x10,0
 80008d8:	0e050863          	beq	x10,x0,80009c8 <__adddf3+0x4c0>
 80008dc:	7ff00613          	addi	x12,x0,2047
 80008e0:	eac696e3          	bne	x13,x12,800078c <__adddf3+0x284>
 80008e4:	00070793          	addi	x15,x14,0
 80008e8:	d51ff06f          	jal	x0,8000638 <__adddf3+0x130>
 80008ec:	7ff00693          	addi	x13,x0,2047
 80008f0:	e2d582e3          	beq	x11,x13,8000714 <__adddf3+0x20c>
 80008f4:	00e78733          	add	x14,x15,x14
 80008f8:	00175793          	srli	x15,x14,0x1
 80008fc:	0077f693          	andi	x13,x15,7
 8000900:	00058413          	addi	x8,x11,0
 8000904:	ca0696e3          	bne	x13,x0,80005b0 <__adddf3+0xa8>
 8000908:	fbdff06f          	jal	x0,80008c4 <__adddf3+0x3bc>
 800090c:	02079863          	bne	x15,x0,800093c <__adddf3+0x434>
 8000910:	d20708e3          	beq	x14,x0,8000640 <__adddf3+0x138>
 8000914:	00058493          	addi	x9,x11,0
 8000918:	d1dff06f          	jal	x0,8000634 <__adddf3+0x12c>
 800091c:	40f70933          	sub	x18,x14,x15
 8000920:	00058493          	addi	x9,x11,0
 8000924:	e05ff06f          	jal	x0,8000728 <__adddf3+0x220>
 8000928:	00e787b3          	add	x15,x15,x14
 800092c:	f5dff06f          	jal	x0,8000888 <__adddf3+0x380>
 8000930:	40e787b3          	sub	x15,x15,x14
 8000934:	c69ff06f          	jal	x0,800059c <__adddf3+0x94>
 8000938:	ce078ee3          	beq	x15,x0,8000634 <__adddf3+0x12c>
 800093c:	d00712e3          	bne	x14,x0,8000640 <__adddf3+0x138>
 8000940:	0037d793          	srli	x15,x15,0x3
 8000944:	cf9ff06f          	jal	x0,800063c <__adddf3+0x134>
 8000948:	04000613          	addi	x12,x0,64
 800094c:	40a6063b          	subw	x12,x12,x10
 8000950:	00c79633          	sll	x12,x15,x12
 8000954:	00a7d533          	srl	x10,x15,x10
 8000958:	00c037b3          	sltu	x15,x0,x12
 800095c:	00f56533          	or	x10,x10,x15
 8000960:	00e507b3          	add	x15,x10,x14
 8000964:	00068413          	addi	x8,x13,0
 8000968:	f21ff06f          	jal	x0,8000888 <__adddf3+0x380>
 800096c:	ee0708e3          	beq	x14,x0,800085c <__adddf3+0x354>
 8000970:	00058493          	addi	x9,x11,0
 8000974:	00070793          	addi	x15,x14,0
 8000978:	e69ff06f          	jal	x0,80007e0 <__adddf3+0x2d8>
 800097c:	40f707b3          	sub	x15,x14,x15
 8000980:	00068413          	addi	x8,x13,0
 8000984:	00058493          	addi	x9,x11,0
 8000988:	c15ff06f          	jal	x0,800059c <__adddf3+0x94>
 800098c:	00068413          	addi	x8,x13,0
 8000990:	00070793          	addi	x15,x14,0
 8000994:	d71ff06f          	jal	x0,8000704 <__adddf3+0x1fc>
 8000998:	00070793          	addi	x15,x14,0
 800099c:	e45ff06f          	jal	x0,80007e0 <__adddf3+0x2d8>
 80009a0:	00e787b3          	add	x15,x15,x14
 80009a4:	0377d693          	srli	x13,x15,0x37
 80009a8:	0016f693          	andi	x13,x13,1
 80009ac:	f0068ce3          	beq	x13,x0,80008c4 <__adddf3+0x3bc>
 80009b0:	03761713          	slli	x14,x12,0x37
 80009b4:	fff70713          	addi	x14,x14,-1
 80009b8:	00e7f7b3          	and	x15,x15,x14
 80009bc:	00100413          	addi	x8,x0,1
 80009c0:	0037d793          	srli	x15,x15,0x3
 80009c4:	e25ff06f          	jal	x0,80007e8 <__adddf3+0x2e0>
 80009c8:	00e787b3          	add	x15,x15,x14
 80009cc:	00068413          	addi	x8,x13,0
 80009d0:	eb9ff06f          	jal	x0,8000888 <__adddf3+0x380>
 80009d4:	00060793          	addi	x15,x12,0
 80009d8:	e80602e3          	beq	x12,x0,800085c <__adddf3+0x354>
 80009dc:	0037d793          	srli	x15,x15,0x3
 80009e0:	e09ff06f          	jal	x0,80007e8 <__adddf3+0x2e0>

00000000080009e4 <__divdf3>:
 80009e4:	fb010113          	addi	x2,x2,-80
 80009e8:	03455793          	srli	x15,x10,0x34
 80009ec:	03313423          	sd	x19,40(x2)
 80009f0:	03413023          	sd	x20,32(x2)
 80009f4:	00c51993          	slli	x19,x10,0xc
 80009f8:	04113423          	sd	x1,72(x2)
 80009fc:	04813023          	sd	x8,64(x2)
 8000a00:	02913c23          	sd	x9,56(x2)
 8000a04:	03213823          	sd	x18,48(x2)
 8000a08:	01513c23          	sd	x21,24(x2)
 8000a0c:	01613823          	sd	x22,16(x2)
 8000a10:	7ff7f793          	andi	x15,x15,2047
 8000a14:	00c9d993          	srli	x19,x19,0xc
 8000a18:	03f55a13          	srli	x20,x10,0x3f
 8000a1c:	14078063          	beq	x15,x0,8000b5c <__divdf3+0x178>
 8000a20:	7ff00713          	addi	x14,x0,2047
 8000a24:	14e78663          	beq	x15,x14,8000b70 <__divdf3+0x18c>
 8000a28:	00100713          	addi	x14,x0,1
 8000a2c:	00399993          	slli	x19,x19,0x3
 8000a30:	03771713          	slli	x14,x14,0x37
 8000a34:	00e9e9b3          	or	x19,x19,x14
 8000a38:	c0178913          	addi	x18,x15,-1023
 8000a3c:	00000413          	addi	x8,x0,0
 8000a40:	00000a93          	addi	x21,x0,0
 8000a44:	0345d793          	srli	x15,x11,0x34
 8000a48:	00c59513          	slli	x10,x11,0xc
 8000a4c:	7ff7f793          	andi	x15,x15,2047
 8000a50:	00c55b13          	srli	x22,x10,0xc
 8000a54:	03f5d493          	srli	x9,x11,0x3f
 8000a58:	0c078a63          	beq	x15,x0,8000b2c <__divdf3+0x148>
 8000a5c:	7ff00713          	addi	x14,x0,2047
 8000a60:	12e78263          	beq	x15,x14,8000b84 <__divdf3+0x1a0>
 8000a64:	00100713          	addi	x14,x0,1
 8000a68:	003b1513          	slli	x10,x22,0x3
 8000a6c:	03771713          	slli	x14,x14,0x37
 8000a70:	00e56b33          	or	x22,x10,x14
 8000a74:	c0178793          	addi	x15,x15,-1023
 8000a78:	00000613          	addi	x12,x0,0
 8000a7c:	00f00693          	addi	x13,x0,15
 8000a80:	009a4733          	xor	x14,x20,x9
 8000a84:	40f90933          	sub	x18,x18,x15
 8000a88:	2486e663          	bltu	x13,x8,8000cd4 <__divdf3+0x2f0>
 8000a8c:	00002697          	auipc	x13,0x2
 8000a90:	9ec68693          	addi	x13,x13,-1556 # 8002478 <__clz_tab+0x100>
 8000a94:	00241413          	slli	x8,x8,0x2
 8000a98:	00d40433          	add	x8,x8,x13
 8000a9c:	00042783          	lw	x15,0(x8)
 8000aa0:	00d787b3          	add	x15,x15,x13
 8000aa4:	00078067          	jalr	x0,0(x15)
 8000aa8:	7ff00793          	addi	x15,x0,2047
 8000aac:	00000693          	addi	x13,x0,0
 8000ab0:	04813083          	ld	x1,72(x2)
 8000ab4:	04013403          	ld	x8,64(x2)
 8000ab8:	03479513          	slli	x10,x15,0x34
 8000abc:	00d56533          	or	x10,x10,x13
 8000ac0:	03f71713          	slli	x14,x14,0x3f
 8000ac4:	03813483          	ld	x9,56(x2)
 8000ac8:	03013903          	ld	x18,48(x2)
 8000acc:	02813983          	ld	x19,40(x2)
 8000ad0:	02013a03          	ld	x20,32(x2)
 8000ad4:	01813a83          	ld	x21,24(x2)
 8000ad8:	01013b03          	ld	x22,16(x2)
 8000adc:	00e56533          	or	x10,x10,x14
 8000ae0:	05010113          	addi	x2,x2,80
 8000ae4:	00008067          	jalr	x0,0(x1)
 8000ae8:	00300793          	addi	x15,x0,3
 8000aec:	02fa8663          	beq	x21,x15,8000b18 <__divdf3+0x134>
 8000af0:	00100793          	addi	x15,x0,1
 8000af4:	14fa9c63          	bne	x21,x15,8000c4c <__divdf3+0x268>
 8000af8:	00050713          	addi	x14,x10,0
 8000afc:	00000793          	addi	x15,x0,0
 8000b00:	00000693          	addi	x13,x0,0
 8000b04:	fadff06f          	jal	x0,8000ab0 <__divdf3+0xcc>
 8000b08:	00300793          	addi	x15,x0,3
 8000b0c:	00048513          	addi	x10,x9,0
 8000b10:	000b0993          	addi	x19,x22,0
 8000b14:	12f61c63          	bne	x12,x15,8000c4c <__divdf3+0x268>
 8000b18:	00100693          	addi	x13,x0,1
 8000b1c:	00000713          	addi	x14,x0,0
 8000b20:	7ff00793          	addi	x15,x0,2047
 8000b24:	03369693          	slli	x13,x13,0x33
 8000b28:	f89ff06f          	jal	x0,8000ab0 <__divdf3+0xcc>
 8000b2c:	0c0b1e63          	bne	x22,x0,8000c08 <__divdf3+0x224>
 8000b30:	00146413          	ori	x8,x8,1
 8000b34:	00d00793          	addi	x15,x0,13
 8000b38:	009a4733          	xor	x14,x20,x9
 8000b3c:	f687e6e3          	bltu	x15,x8,8000aa8 <__divdf3+0xc4>
 8000b40:	00002697          	auipc	x13,0x2
 8000b44:	97868693          	addi	x13,x13,-1672 # 80024b8 <__clz_tab+0x140>
 8000b48:	00241413          	slli	x8,x8,0x2
 8000b4c:	00d40433          	add	x8,x8,x13
 8000b50:	00042783          	lw	x15,0(x8)
 8000b54:	00d787b3          	add	x15,x15,x13
 8000b58:	00078067          	jalr	x0,0(x15)
 8000b5c:	06099e63          	bne	x19,x0,8000bd8 <__divdf3+0x1f4>
 8000b60:	00400413          	addi	x8,x0,4
 8000b64:	00000913          	addi	x18,x0,0
 8000b68:	00100a93          	addi	x21,x0,1
 8000b6c:	ed9ff06f          	jal	x0,8000a44 <__divdf3+0x60>
 8000b70:	04099c63          	bne	x19,x0,8000bc8 <__divdf3+0x1e4>
 8000b74:	00800413          	addi	x8,x0,8
 8000b78:	7ff00913          	addi	x18,x0,2047
 8000b7c:	00200a93          	addi	x21,x0,2
 8000b80:	ec5ff06f          	jal	x0,8000a44 <__divdf3+0x60>
 8000b84:	020b1a63          	bne	x22,x0,8000bb8 <__divdf3+0x1d4>
 8000b88:	00246413          	ori	x8,x8,2
 8000b8c:	ffd40413          	addi	x8,x8,-3
 8000b90:	00b00693          	addi	x13,x0,11
 8000b94:	009a4733          	xor	x14,x20,x9
 8000b98:	f686e2e3          	bltu	x13,x8,8000afc <__divdf3+0x118>
 8000b9c:	00002617          	auipc	x12,0x2
 8000ba0:	95460613          	addi	x12,x12,-1708 # 80024f0 <__clz_tab+0x178>
 8000ba4:	00241413          	slli	x8,x8,0x2
 8000ba8:	00c40433          	add	x8,x8,x12
 8000bac:	00042683          	lw	x13,0(x8)
 8000bb0:	00c686b3          	add	x13,x13,x12
 8000bb4:	00068067          	jalr	x0,0(x13)
 8000bb8:	00346413          	ori	x8,x8,3
 8000bbc:	7ff00793          	addi	x15,x0,2047
 8000bc0:	00300613          	addi	x12,x0,3
 8000bc4:	eb9ff06f          	jal	x0,8000a7c <__divdf3+0x98>
 8000bc8:	00c00413          	addi	x8,x0,12
 8000bcc:	7ff00913          	addi	x18,x0,2047
 8000bd0:	00300a93          	addi	x21,x0,3
 8000bd4:	e71ff06f          	jal	x0,8000a44 <__divdf3+0x60>
 8000bd8:	00098513          	addi	x10,x19,0
 8000bdc:	00b13423          	sd	x11,8(x2)
 8000be0:	8b9ff0ef          	jal	x1,8000498 <__clzdi2>
 8000be4:	0005071b          	addiw	x14,x10,0
 8000be8:	c0d00793          	addi	x15,x0,-1011
 8000bec:	ff85051b          	addiw	x10,x10,-8
 8000bf0:	00813583          	ld	x11,8(x2)
 8000bf4:	00a999b3          	sll	x19,x19,x10
 8000bf8:	40e78933          	sub	x18,x15,x14
 8000bfc:	00000413          	addi	x8,x0,0
 8000c00:	00000a93          	addi	x21,x0,0
 8000c04:	e41ff06f          	jal	x0,8000a44 <__divdf3+0x60>
 8000c08:	000b0513          	addi	x10,x22,0
 8000c0c:	88dff0ef          	jal	x1,8000498 <__clzdi2>
 8000c10:	0005071b          	addiw	x14,x10,0
 8000c14:	c0d00793          	addi	x15,x0,-1011
 8000c18:	ff85051b          	addiw	x10,x10,-8
 8000c1c:	00ab1b33          	sll	x22,x22,x10
 8000c20:	40e787b3          	sub	x15,x15,x14
 8000c24:	00000613          	addi	x12,x0,0
 8000c28:	e55ff06f          	jal	x0,8000a7c <__divdf3+0x98>
 8000c2c:	80190913          	addi	x18,x18,-2047
 8000c30:	00200793          	addi	x15,x0,2
 8000c34:	000a0513          	addi	x10,x20,0
 8000c38:	eafa98e3          	bne	x21,x15,8000ae8 <__divdf3+0x104>
 8000c3c:	00050713          	addi	x14,x10,0
 8000c40:	7ff00793          	addi	x15,x0,2047
 8000c44:	00000693          	addi	x13,x0,0
 8000c48:	e69ff06f          	jal	x0,8000ab0 <__divdf3+0xcc>
 8000c4c:	00050713          	addi	x14,x10,0
 8000c50:	3ff90793          	addi	x15,x18,1023
 8000c54:	04f05a63          	bge	x0,x15,8000ca8 <__divdf3+0x2c4>
 8000c58:	0079f693          	andi	x13,x19,7
 8000c5c:	00068a63          	beq	x13,x0,8000c70 <__divdf3+0x28c>
 8000c60:	00f9f693          	andi	x13,x19,15
 8000c64:	00400613          	addi	x12,x0,4
 8000c68:	00c68463          	beq	x13,x12,8000c70 <__divdf3+0x28c>
 8000c6c:	00498993          	addi	x19,x19,4
 8000c70:	0389d693          	srli	x13,x19,0x38
 8000c74:	0016f693          	andi	x13,x13,1
 8000c78:	00068c63          	beq	x13,x0,8000c90 <__divdf3+0x2ac>
 8000c7c:	fff00793          	addi	x15,x0,-1
 8000c80:	03879793          	slli	x15,x15,0x38
 8000c84:	fff78793          	addi	x15,x15,-1
 8000c88:	00f9f9b3          	and	x19,x19,x15
 8000c8c:	40090793          	addi	x15,x18,1024
 8000c90:	7fe00693          	addi	x13,x0,2046
 8000c94:	e0f6cae3          	blt	x13,x15,8000aa8 <__divdf3+0xc4>
 8000c98:	00999693          	slli	x13,x19,0x9
 8000c9c:	00c6d693          	srli	x13,x13,0xc
 8000ca0:	7ff7f793          	andi	x15,x15,2047
 8000ca4:	e0dff06f          	jal	x0,8000ab0 <__divdf3+0xcc>
 8000ca8:	0e078463          	beq	x15,x0,8000d90 <__divdf3+0x3ac>
 8000cac:	00100613          	addi	x12,x0,1
 8000cb0:	40f60633          	sub	x12,x12,x15
 8000cb4:	03800593          	addi	x11,x0,56
 8000cb8:	00000793          	addi	x15,x0,0
 8000cbc:	00000693          	addi	x13,x0,0
 8000cc0:	dec5c8e3          	blt	x11,x12,8000ab0 <__divdf3+0xcc>
 8000cc4:	04000793          	addi	x15,x0,64
 8000cc8:	0006069b          	addiw	x13,x12,0
 8000ccc:	40c787bb          	subw	x15,x15,x12
 8000cd0:	0c80006f          	jal	x0,8000d98 <__divdf3+0x3b4>
 8000cd4:	fff00693          	addi	x13,x0,-1
 8000cd8:	008b1813          	slli	x16,x22,0x8
 8000cdc:	0206d693          	srli	x13,x13,0x20
 8000ce0:	02085593          	srli	x11,x16,0x20
 8000ce4:	00d876b3          	and	x13,x16,x13
 8000ce8:	0969f863          	bgeu	x19,x22,8000d78 <__divdf3+0x394>
 8000cec:	02b9d633          	divu	x12,x19,x11
 8000cf0:	00098793          	addi	x15,x19,0
 8000cf4:	fff90913          	addi	x18,x18,-1
 8000cf8:	00000993          	addi	x19,x0,0
 8000cfc:	02d60533          	mul	x10,x12,x13
 8000d00:	02b7f7b3          	remu	x15,x15,x11
 8000d04:	02079793          	slli	x15,x15,0x20
 8000d08:	0137e7b3          	or	x15,x15,x19
 8000d0c:	00a7fa63          	bgeu	x15,x10,8000d20 <__divdf3+0x33c>
 8000d10:	00f807b3          	add	x15,x16,x15
 8000d14:	fff60893          	addi	x17,x12,-1
 8000d18:	0d07fe63          	bgeu	x15,x16,8000df4 <__divdf3+0x410>
 8000d1c:	00088613          	addi	x12,x17,0
 8000d20:	40a787b3          	sub	x15,x15,x10
 8000d24:	02b7d533          	divu	x10,x15,x11
 8000d28:	02b7f7b3          	remu	x15,x15,x11
 8000d2c:	02d506b3          	mul	x13,x10,x13
 8000d30:	02079793          	slli	x15,x15,0x20
 8000d34:	02d7f663          	bgeu	x15,x13,8000d60 <__divdf3+0x37c>
 8000d38:	010785b3          	add	x11,x15,x16
 8000d3c:	00f5b8b3          	sltu	x17,x11,x15
 8000d40:	fff50313          	addi	x6,x10,-1
 8000d44:	00058793          	addi	x15,x11,0
 8000d48:	00089a63          	bne	x17,x0,8000d5c <__divdf3+0x378>
 8000d4c:	00d5f863          	bgeu	x11,x13,8000d5c <__divdf3+0x378>
 8000d50:	ffe50513          	addi	x10,x10,-2
 8000d54:	010587b3          	add	x15,x11,x16
 8000d58:	0080006f          	jal	x0,8000d60 <__divdf3+0x37c>
 8000d5c:	00030513          	addi	x10,x6,0
 8000d60:	02061613          	slli	x12,x12,0x20
 8000d64:	40d787b3          	sub	x15,x15,x13
 8000d68:	00a66633          	or	x12,x12,x10
 8000d6c:	00f037b3          	sltu	x15,x0,x15
 8000d70:	00f669b3          	or	x19,x12,x15
 8000d74:	eddff06f          	jal	x0,8000c50 <__divdf3+0x26c>
 8000d78:	0019d793          	srli	x15,x19,0x1
 8000d7c:	02b7d633          	divu	x12,x15,x11
 8000d80:	03f99993          	slli	x19,x19,0x3f
 8000d84:	0209d993          	srli	x19,x19,0x20
 8000d88:	02d60533          	mul	x10,x12,x13
 8000d8c:	f75ff06f          	jal	x0,8000d00 <__divdf3+0x31c>
 8000d90:	03f00793          	addi	x15,x0,63
 8000d94:	00100693          	addi	x13,x0,1
 8000d98:	00f997b3          	sll	x15,x19,x15
 8000d9c:	00f037b3          	sltu	x15,x0,x15
 8000da0:	00d9d6b3          	srl	x13,x19,x13
 8000da4:	00f6e6b3          	or	x13,x13,x15
 8000da8:	0076f793          	andi	x15,x13,7
 8000dac:	00078a63          	beq	x15,x0,8000dc0 <__divdf3+0x3dc>
 8000db0:	00f6f793          	andi	x15,x13,15
 8000db4:	00400613          	addi	x12,x0,4
 8000db8:	00c78463          	beq	x15,x12,8000dc0 <__divdf3+0x3dc>
 8000dbc:	00468693          	addi	x13,x13,4
 8000dc0:	0376d793          	srli	x15,x13,0x37
 8000dc4:	0017f793          	andi	x15,x15,1
 8000dc8:	02078e63          	beq	x15,x0,8000e04 <__divdf3+0x420>
 8000dcc:	00100793          	addi	x15,x0,1
 8000dd0:	00000693          	addi	x13,x0,0
 8000dd4:	cddff06f          	jal	x0,8000ab0 <__divdf3+0xcc>
 8000dd8:	00048513          	addi	x10,x9,0
 8000ddc:	00050713          	addi	x14,x10,0
 8000de0:	d1dff06f          	jal	x0,8000afc <__divdf3+0x118>
 8000de4:	00100693          	addi	x13,x0,1
 8000de8:	00000713          	addi	x14,x0,0
 8000dec:	03369693          	slli	x13,x13,0x33
 8000df0:	cc1ff06f          	jal	x0,8000ab0 <__divdf3+0xcc>
 8000df4:	f2a7f4e3          	bgeu	x15,x10,8000d1c <__divdf3+0x338>
 8000df8:	ffe60613          	addi	x12,x12,-2
 8000dfc:	010787b3          	add	x15,x15,x16
 8000e00:	f21ff06f          	jal	x0,8000d20 <__divdf3+0x33c>
 8000e04:	00969693          	slli	x13,x13,0x9
 8000e08:	00c6d693          	srli	x13,x13,0xc
 8000e0c:	ca5ff06f          	jal	x0,8000ab0 <__divdf3+0xcc>
 8000e10:	00048513          	addi	x10,x9,0
 8000e14:	e29ff06f          	jal	x0,8000c3c <__divdf3+0x258>

0000000008000e18 <__eqdf2>:
 8000e18:	03455693          	srli	x13,x10,0x34
 8000e1c:	fff00713          	addi	x14,x0,-1
 8000e20:	00c75713          	srli	x14,x14,0xc
 8000e24:	0345d613          	srli	x12,x11,0x34
 8000e28:	7ff6f693          	andi	x13,x13,2047
 8000e2c:	7ff00813          	addi	x16,x0,2047
 8000e30:	00a778b3          	and	x17,x14,x10
 8000e34:	03f55793          	srli	x15,x10,0x3f
 8000e38:	00b77733          	and	x14,x14,x11
 8000e3c:	7ff67613          	andi	x12,x12,2047
 8000e40:	03f5d593          	srli	x11,x11,0x3f
 8000e44:	00100513          	addi	x10,x0,1
 8000e48:	01068c63          	beq	x13,x16,8000e60 <__eqdf2+0x48>
 8000e4c:	01060863          	beq	x12,x16,8000e5c <__eqdf2+0x44>
 8000e50:	00c69463          	bne	x13,x12,8000e58 <__eqdf2+0x40>
 8000e54:	02e88063          	beq	x17,x14,8000e74 <__eqdf2+0x5c>
 8000e58:	00008067          	jalr	x0,0(x1)
 8000e5c:	00008067          	jalr	x0,0(x1)
 8000e60:	fe089ce3          	bne	x17,x0,8000e58 <__eqdf2+0x40>
 8000e64:	fed61ae3          	bne	x12,x13,8000e58 <__eqdf2+0x40>
 8000e68:	fe0718e3          	bne	x14,x0,8000e58 <__eqdf2+0x40>
 8000e6c:	00b7c533          	xor	x10,x15,x11
 8000e70:	00008067          	jalr	x0,0(x1)
 8000e74:	00000513          	addi	x10,x0,0
 8000e78:	feb780e3          	beq	x15,x11,8000e58 <__eqdf2+0x40>
 8000e7c:	00100513          	addi	x10,x0,1
 8000e80:	fc069ce3          	bne	x13,x0,8000e58 <__eqdf2+0x40>
 8000e84:	01103533          	sltu	x10,x0,x17
 8000e88:	00008067          	jalr	x0,0(x1)

0000000008000e8c <__ledf2>:
 8000e8c:	03455613          	srli	x12,x10,0x34
 8000e90:	fff00713          	addi	x14,x0,-1
 8000e94:	00c75713          	srli	x14,x14,0xc
 8000e98:	0345d693          	srli	x13,x11,0x34
 8000e9c:	7ff67613          	andi	x12,x12,2047
 8000ea0:	7ff00813          	addi	x16,x0,2047
 8000ea4:	00a778b3          	and	x17,x14,x10
 8000ea8:	03f55793          	srli	x15,x10,0x3f
 8000eac:	00b77733          	and	x14,x14,x11
 8000eb0:	7ff6f513          	andi	x10,x13,2047
 8000eb4:	03f5d593          	srli	x11,x11,0x3f
 8000eb8:	05060263          	beq	x12,x16,8000efc <__ledf2+0x70>
 8000ebc:	03050063          	beq	x10,x16,8000edc <__ledf2+0x50>
 8000ec0:	04061c63          	bne	x12,x0,8000f18 <__ledf2+0x8c>
 8000ec4:	02051263          	bne	x10,x0,8000ee8 <__ledf2+0x5c>
 8000ec8:	06070c63          	beq	x14,x0,8000f40 <__ledf2+0xb4>
 8000ecc:	08089663          	bne	x17,x0,8000f58 <__ledf2+0xcc>
 8000ed0:	08058063          	beq	x11,x0,8000f50 <__ledf2+0xc4>
 8000ed4:	00058513          	addi	x10,x11,0
 8000ed8:	00008067          	jalr	x0,0(x1)
 8000edc:	00200513          	addi	x10,x0,2
 8000ee0:	00071c63          	bne	x14,x0,8000ef8 <__ledf2+0x6c>
 8000ee4:	00061463          	bne	x12,x0,8000eec <__ledf2+0x60>
 8000ee8:	fe0884e3          	beq	x17,x0,8000ed0 <__ledf2+0x44>
 8000eec:	04b78463          	beq	x15,x11,8000f34 <__ledf2+0xa8>
 8000ef0:	00100513          	addi	x10,x0,1
 8000ef4:	04079e63          	bne	x15,x0,8000f50 <__ledf2+0xc4>
 8000ef8:	00008067          	jalr	x0,0(x1)
 8000efc:	04089663          	bne	x17,x0,8000f48 <__ledf2+0xbc>
 8000f00:	fec518e3          	bne	x10,x12,8000ef0 <__ledf2+0x64>
 8000f04:	00200513          	addi	x10,x0,2
 8000f08:	fe0718e3          	bne	x14,x0,8000ef8 <__ledf2+0x6c>
 8000f0c:	feb792e3          	bne	x15,x11,8000ef0 <__ledf2+0x64>
 8000f10:	00000513          	addi	x10,x0,0
 8000f14:	00008067          	jalr	x0,0(x1)
 8000f18:	fc050ce3          	beq	x10,x0,8000ef0 <__ledf2+0x64>
 8000f1c:	fcb79ae3          	bne	x15,x11,8000ef0 <__ledf2+0x64>
 8000f20:	fcc548e3          	blt	x10,x12,8000ef0 <__ledf2+0x64>
 8000f24:	00a64863          	blt	x12,x10,8000f34 <__ledf2+0xa8>
 8000f28:	fd1764e3          	bltu	x14,x17,8000ef0 <__ledf2+0x64>
 8000f2c:	00000513          	addi	x10,x0,0
 8000f30:	fce8f4e3          	bgeu	x17,x14,8000ef8 <__ledf2+0x6c>
 8000f34:	00078e63          	beq	x15,x0,8000f50 <__ledf2+0xc4>
 8000f38:	00078513          	addi	x10,x15,0
 8000f3c:	00008067          	jalr	x0,0(x1)
 8000f40:	fa0898e3          	bne	x17,x0,8000ef0 <__ledf2+0x64>
 8000f44:	00008067          	jalr	x0,0(x1)
 8000f48:	00200513          	addi	x10,x0,2
 8000f4c:	00008067          	jalr	x0,0(x1)
 8000f50:	fff00513          	addi	x10,x0,-1
 8000f54:	00008067          	jalr	x0,0(x1)
 8000f58:	fcb788e3          	beq	x15,x11,8000f28 <__ledf2+0x9c>
 8000f5c:	f95ff06f          	jal	x0,8000ef0 <__ledf2+0x64>

0000000008000f60 <__muldf3>:
 8000f60:	fb010113          	addi	x2,x2,-80
 8000f64:	03455793          	srli	x15,x10,0x34
 8000f68:	03413023          	sd	x20,32(x2)
 8000f6c:	01513c23          	sd	x21,24(x2)
 8000f70:	04113423          	sd	x1,72(x2)
 8000f74:	00c51a93          	slli	x21,x10,0xc
 8000f78:	04813023          	sd	x8,64(x2)
 8000f7c:	02913c23          	sd	x9,56(x2)
 8000f80:	03213823          	sd	x18,48(x2)
 8000f84:	03313423          	sd	x19,40(x2)
 8000f88:	01613823          	sd	x22,16(x2)
 8000f8c:	7ff7f793          	andi	x15,x15,2047
 8000f90:	00cada93          	srli	x21,x21,0xc
 8000f94:	03f55a13          	srli	x20,x10,0x3f
 8000f98:	18078263          	beq	x15,x0,800111c <__muldf3+0x1bc>
 8000f9c:	7ff00713          	addi	x14,x0,2047
 8000fa0:	18e78863          	beq	x15,x14,8001130 <__muldf3+0x1d0>
 8000fa4:	00100713          	addi	x14,x0,1
 8000fa8:	003a9a93          	slli	x21,x21,0x3
 8000fac:	03771713          	slli	x14,x14,0x37
 8000fb0:	00eaeab3          	or	x21,x21,x14
 8000fb4:	c0178913          	addi	x18,x15,-1023
 8000fb8:	00000413          	addi	x8,x0,0
 8000fbc:	00000b13          	addi	x22,x0,0
 8000fc0:	0345d793          	srli	x15,x11,0x34
 8000fc4:	00c59713          	slli	x14,x11,0xc
 8000fc8:	7ff7f793          	andi	x15,x15,2047
 8000fcc:	00c75993          	srli	x19,x14,0xc
 8000fd0:	03f5d493          	srli	x9,x11,0x3f
 8000fd4:	12078463          	beq	x15,x0,80010fc <__muldf3+0x19c>
 8000fd8:	7ff00713          	addi	x14,x0,2047
 8000fdc:	08e78c63          	beq	x15,x14,8001074 <__muldf3+0x114>
 8000fe0:	c0178793          	addi	x15,x15,-1023
 8000fe4:	00100693          	addi	x13,x0,1
 8000fe8:	03769693          	slli	x13,x13,0x37
 8000fec:	01278833          	add	x16,x15,x18
 8000ff0:	00399713          	slli	x14,x19,0x3
 8000ff4:	00a00793          	addi	x15,x0,10
 8000ff8:	00d769b3          	or	x19,x14,x13
 8000ffc:	00180913          	addi	x18,x16,1
 8001000:	00000693          	addi	x13,x0,0
 8001004:	1887c463          	blt	x15,x8,800118c <__muldf3+0x22c>
 8001008:	009a4633          	xor	x12,x20,x9
 800100c:	00200713          	addi	x14,x0,2
 8001010:	00060893          	addi	x17,x12,0
 8001014:	08874663          	blt	x14,x8,80010a0 <__muldf3+0x140>
 8001018:	fff40413          	addi	x8,x8,-1
 800101c:	00100593          	addi	x11,x0,1
 8001020:	1e85ec63          	bltu	x11,x8,8001218 <__muldf3+0x2b8>
 8001024:	12e68063          	beq	x13,x14,8001144 <__muldf3+0x1e4>
 8001028:	00100793          	addi	x15,x0,1
 800102c:	00088613          	addi	x12,x17,0
 8001030:	0af69263          	bne	x13,x15,80010d4 <__muldf3+0x174>
 8001034:	00000793          	addi	x15,x0,0
 8001038:	00000713          	addi	x14,x0,0
 800103c:	04813083          	ld	x1,72(x2)
 8001040:	04013403          	ld	x8,64(x2)
 8001044:	03479513          	slli	x10,x15,0x34
 8001048:	00e56533          	or	x10,x10,x14
 800104c:	03f61613          	slli	x12,x12,0x3f
 8001050:	03813483          	ld	x9,56(x2)
 8001054:	03013903          	ld	x18,48(x2)
 8001058:	02813983          	ld	x19,40(x2)
 800105c:	02013a03          	ld	x20,32(x2)
 8001060:	01813a83          	ld	x21,24(x2)
 8001064:	01013b03          	ld	x22,16(x2)
 8001068:	00c56533          	or	x10,x10,x12
 800106c:	05010113          	addi	x2,x2,80
 8001070:	00008067          	jalr	x0,0(x1)
 8001074:	7ff90813          	addi	x16,x18,2047
 8001078:	0e098663          	beq	x19,x0,8001164 <__muldf3+0x204>
 800107c:	00001737          	lui	x14,0x1
 8001080:	009a4633          	xor	x12,x20,x9
 8001084:	80070713          	addi	x14,x14,-2048 # 800 <_Min_Stack_Size-0x7ff800>
 8001088:	00346413          	ori	x8,x8,3
 800108c:	00a00693          	addi	x13,x0,10
 8001090:	00060893          	addi	x17,x12,0
 8001094:	00e90933          	add	x18,x18,x14
 8001098:	2e86ce63          	blt	x13,x8,8001394 <__muldf3+0x434>
 800109c:	00300693          	addi	x13,x0,3
 80010a0:	00100713          	addi	x14,x0,1
 80010a4:	00871433          	sll	x8,x14,x8
 80010a8:	53047513          	andi	x10,x8,1328
 80010ac:	02050863          	beq	x10,x0,80010dc <__muldf3+0x17c>
 80010b0:	00200793          	addi	x15,x0,2
 80010b4:	08fb0863          	beq	x22,x15,8001144 <__muldf3+0x1e4>
 80010b8:	00300793          	addi	x15,x0,3
 80010bc:	14fb0463          	beq	x22,x15,8001204 <__muldf3+0x2a4>
 80010c0:	000b0693          	addi	x13,x22,0
 80010c4:	00100793          	addi	x15,x0,1
 80010c8:	000a8993          	addi	x19,x21,0
 80010cc:	00088613          	addi	x12,x17,0
 80010d0:	f6f682e3          	beq	x13,x15,8001034 <__muldf3+0xd4>
 80010d4:	00090813          	addi	x16,x18,0
 80010d8:	1d80006f          	jal	x0,80012b0 <__muldf3+0x350>
 80010dc:	24047793          	andi	x15,x8,576
 80010e0:	06079a63          	bne	x15,x0,8001154 <__muldf3+0x1f4>
 80010e4:	08847413          	andi	x8,x8,136
 80010e8:	12040863          	beq	x8,x0,8001218 <__muldf3+0x2b8>
 80010ec:	00048893          	addi	x17,x9,0
 80010f0:	00098a93          	addi	x21,x19,0
 80010f4:	00068b13          	addi	x22,x13,0
 80010f8:	fb9ff06f          	jal	x0,80010b0 <__muldf3+0x150>
 80010fc:	0c099c63          	bne	x19,x0,80011d4 <__muldf3+0x274>
 8001100:	00090813          	addi	x16,x18,0
 8001104:	00146413          	ori	x8,x8,1
 8001108:	00a00793          	addi	x15,x0,10
 800110c:	00100693          	addi	x13,x0,1
 8001110:	00180913          	addi	x18,x16,1
 8001114:	ee87dae3          	bge	x15,x8,8001008 <__muldf3+0xa8>
 8001118:	0740006f          	jal	x0,800118c <__muldf3+0x22c>
 800111c:	080a9463          	bne	x21,x0,80011a4 <__muldf3+0x244>
 8001120:	00400413          	addi	x8,x0,4
 8001124:	00000913          	addi	x18,x0,0
 8001128:	00100b13          	addi	x22,x0,1
 800112c:	e95ff06f          	jal	x0,8000fc0 <__muldf3+0x60>
 8001130:	060a9263          	bne	x21,x0,8001194 <__muldf3+0x234>
 8001134:	00800413          	addi	x8,x0,8
 8001138:	7ff00913          	addi	x18,x0,2047
 800113c:	00200b13          	addi	x22,x0,2
 8001140:	e81ff06f          	jal	x0,8000fc0 <__muldf3+0x60>
 8001144:	00088613          	addi	x12,x17,0
 8001148:	7ff00793          	addi	x15,x0,2047
 800114c:	00000713          	addi	x14,x0,0
 8001150:	eedff06f          	jal	x0,800103c <__muldf3+0xdc>
 8001154:	00000613          	addi	x12,x0,0
 8001158:	7ff00793          	addi	x15,x0,2047
 800115c:	03371713          	slli	x14,x14,0x33
 8001160:	eddff06f          	jal	x0,800103c <__muldf3+0xdc>
 8001164:	000017b7          	lui	x15,0x1
 8001168:	80078793          	addi	x15,x15,-2048 # 800 <_Min_Stack_Size-0x7ff800>
 800116c:	00246413          	ori	x8,x8,2
 8001170:	00a00713          	addi	x14,x0,10
 8001174:	00f90933          	add	x18,x18,x15
 8001178:	00200693          	addi	x13,x0,2
 800117c:	00e00793          	addi	x15,x0,14
 8001180:	e88754e3          	bge	x14,x8,8001008 <__muldf3+0xa8>
 8001184:	00b00713          	addi	x14,x0,11
 8001188:	f6e782e3          	beq	x15,x14,80010ec <__muldf3+0x18c>
 800118c:	000a0893          	addi	x17,x20,0
 8001190:	f21ff06f          	jal	x0,80010b0 <__muldf3+0x150>
 8001194:	00c00413          	addi	x8,x0,12
 8001198:	7ff00913          	addi	x18,x0,2047
 800119c:	00300b13          	addi	x22,x0,3
 80011a0:	e21ff06f          	jal	x0,8000fc0 <__muldf3+0x60>
 80011a4:	000a8513          	addi	x10,x21,0
 80011a8:	00b13423          	sd	x11,8(x2)
 80011ac:	aecff0ef          	jal	x1,8000498 <__clzdi2>
 80011b0:	0005071b          	addiw	x14,x10,0
 80011b4:	c0d00793          	addi	x15,x0,-1011
 80011b8:	ff85051b          	addiw	x10,x10,-8
 80011bc:	00813583          	ld	x11,8(x2)
 80011c0:	00aa9ab3          	sll	x21,x21,x10
 80011c4:	40e78933          	sub	x18,x15,x14
 80011c8:	00000413          	addi	x8,x0,0
 80011cc:	00000b13          	addi	x22,x0,0
 80011d0:	df1ff06f          	jal	x0,8000fc0 <__muldf3+0x60>
 80011d4:	00098513          	addi	x10,x19,0
 80011d8:	ac0ff0ef          	jal	x1,8000498 <__clzdi2>
 80011dc:	0005081b          	addiw	x16,x10,0
 80011e0:	41090833          	sub	x16,x18,x16
 80011e4:	ff85051b          	addiw	x10,x10,-8
 80011e8:	c0d80813          	addi	x16,x16,-1011
 80011ec:	00a00793          	addi	x15,x0,10
 80011f0:	00a999b3          	sll	x19,x19,x10
 80011f4:	00000693          	addi	x13,x0,0
 80011f8:	00180913          	addi	x18,x16,1
 80011fc:	e087d6e3          	bge	x15,x8,8001008 <__muldf3+0xa8>
 8001200:	f8dff06f          	jal	x0,800118c <__muldf3+0x22c>
 8001204:	00100713          	addi	x14,x0,1
 8001208:	00000613          	addi	x12,x0,0
 800120c:	7ff00793          	addi	x15,x0,2047
 8001210:	03371713          	slli	x14,x14,0x33
 8001214:	e29ff06f          	jal	x0,800103c <__muldf3+0xdc>
 8001218:	fff00793          	addi	x15,x0,-1
 800121c:	0207d793          	srli	x15,x15,0x20
 8001220:	020ad693          	srli	x13,x21,0x20
 8001224:	0209d513          	srli	x10,x19,0x20
 8001228:	00fafab3          	and	x21,x21,x15
 800122c:	00f9f7b3          	and	x15,x19,x15
 8001230:	035785b3          	mul	x11,x15,x21
 8001234:	02f687b3          	mul	x15,x13,x15
 8001238:	0205d713          	srli	x14,x11,0x20
 800123c:	03550ab3          	mul	x21,x10,x21
 8001240:	00fa8ab3          	add	x21,x21,x15
 8001244:	01570733          	add	x14,x14,x21
 8001248:	02a686b3          	mul	x13,x13,x10
 800124c:	00f77863          	bgeu	x14,x15,800125c <__muldf3+0x2fc>
 8001250:	00100793          	addi	x15,x0,1
 8001254:	02079793          	slli	x15,x15,0x20
 8001258:	00f686b3          	add	x13,x13,x15
 800125c:	fff00513          	addi	x10,x0,-1
 8001260:	02055513          	srli	x10,x10,0x20
 8001264:	00a777b3          	and	x15,x14,x10
 8001268:	00a5f5b3          	and	x11,x11,x10
 800126c:	02079793          	slli	x15,x15,0x20
 8001270:	02075713          	srli	x14,x14,0x20
 8001274:	00b787b3          	add	x15,x15,x11
 8001278:	00d70733          	add	x14,x14,x13
 800127c:	00971713          	slli	x14,x14,0x9
 8001280:	00979693          	slli	x13,x15,0x9
 8001284:	00d036b3          	sltu	x13,x0,x13
 8001288:	0377d793          	srli	x15,x15,0x37
 800128c:	03875593          	srli	x11,x14,0x38
 8001290:	00f6e7b3          	or	x15,x13,x15
 8001294:	0015f693          	andi	x13,x11,1
 8001298:	00f769b3          	or	x19,x14,x15
 800129c:	00068a63          	beq	x13,x0,80012b0 <__muldf3+0x350>
 80012a0:	0019d793          	srli	x15,x19,0x1
 80012a4:	0019f713          	andi	x14,x19,1
 80012a8:	00e7e9b3          	or	x19,x15,x14
 80012ac:	00090813          	addi	x16,x18,0
 80012b0:	3ff80793          	addi	x15,x16,1023
 80012b4:	04f05a63          	bge	x0,x15,8001308 <__muldf3+0x3a8>
 80012b8:	0079f713          	andi	x14,x19,7
 80012bc:	00070a63          	beq	x14,x0,80012d0 <__muldf3+0x370>
 80012c0:	00f9f713          	andi	x14,x19,15
 80012c4:	00400693          	addi	x13,x0,4
 80012c8:	00d70463          	beq	x14,x13,80012d0 <__muldf3+0x370>
 80012cc:	00498993          	addi	x19,x19,4
 80012d0:	0389d713          	srli	x14,x19,0x38
 80012d4:	00177713          	andi	x14,x14,1
 80012d8:	00070c63          	beq	x14,x0,80012f0 <__muldf3+0x390>
 80012dc:	fff00793          	addi	x15,x0,-1
 80012e0:	03879793          	slli	x15,x15,0x38
 80012e4:	fff78793          	addi	x15,x15,-1
 80012e8:	00f9f9b3          	and	x19,x19,x15
 80012ec:	40080793          	addi	x15,x16,1024
 80012f0:	7fe00713          	addi	x14,x0,2046
 80012f4:	04f74063          	blt	x14,x15,8001334 <__muldf3+0x3d4>
 80012f8:	00999713          	slli	x14,x19,0x9
 80012fc:	00c75713          	srli	x14,x14,0xc
 8001300:	7ff7f793          	andi	x15,x15,2047
 8001304:	d39ff06f          	jal	x0,800103c <__muldf3+0xdc>
 8001308:	02078c63          	beq	x15,x0,8001340 <__muldf3+0x3e0>
 800130c:	00100693          	addi	x13,x0,1
 8001310:	40f686b3          	sub	x13,x13,x15
 8001314:	03800593          	addi	x11,x0,56
 8001318:	00000793          	addi	x15,x0,0
 800131c:	00000713          	addi	x14,x0,0
 8001320:	d0d5cee3          	blt	x11,x13,800103c <__muldf3+0xdc>
 8001324:	04000793          	addi	x15,x0,64
 8001328:	0006871b          	addiw	x14,x13,0
 800132c:	40d787bb          	subw	x15,x15,x13
 8001330:	0180006f          	jal	x0,8001348 <__muldf3+0x3e8>
 8001334:	7ff00793          	addi	x15,x0,2047
 8001338:	00000713          	addi	x14,x0,0
 800133c:	d01ff06f          	jal	x0,800103c <__muldf3+0xdc>
 8001340:	03f00793          	addi	x15,x0,63
 8001344:	00100713          	addi	x14,x0,1
 8001348:	00f997b3          	sll	x15,x19,x15
 800134c:	00f037b3          	sltu	x15,x0,x15
 8001350:	00e9d733          	srl	x14,x19,x14
 8001354:	00f76733          	or	x14,x14,x15
 8001358:	00777793          	andi	x15,x14,7
 800135c:	00078a63          	beq	x15,x0,8001370 <__muldf3+0x410>
 8001360:	00f77793          	andi	x15,x14,15
 8001364:	00400693          	addi	x13,x0,4
 8001368:	00d78463          	beq	x15,x13,8001370 <__muldf3+0x410>
 800136c:	00470713          	addi	x14,x14,4
 8001370:	03775793          	srli	x15,x14,0x37
 8001374:	0017f793          	andi	x15,x15,1
 8001378:	00078863          	beq	x15,x0,8001388 <__muldf3+0x428>
 800137c:	00100793          	addi	x15,x0,1
 8001380:	00000713          	addi	x14,x0,0
 8001384:	cb9ff06f          	jal	x0,800103c <__muldf3+0xdc>
 8001388:	00971713          	slli	x14,x14,0x9
 800138c:	00c75713          	srli	x14,x14,0xc
 8001390:	cadff06f          	jal	x0,800103c <__muldf3+0xdc>
 8001394:	00f00713          	addi	x14,x0,15
 8001398:	00e41a63          	bne	x8,x14,80013ac <__muldf3+0x44c>
 800139c:	00100713          	addi	x14,x0,1
 80013a0:	00000613          	addi	x12,x0,0
 80013a4:	03371713          	slli	x14,x14,0x33
 80013a8:	c95ff06f          	jal	x0,800103c <__muldf3+0xdc>
 80013ac:	00b00793          	addi	x15,x0,11
 80013b0:	00300693          	addi	x13,x0,3
 80013b4:	dd1ff06f          	jal	x0,8001184 <__muldf3+0x224>

00000000080013b8 <__subdf3>:
 80013b8:	fff00713          	addi	x14,x0,-1
 80013bc:	fe010113          	addi	x2,x2,-32
 80013c0:	00c75713          	srli	x14,x14,0xc
 80013c4:	0345d693          	srli	x13,x11,0x34
 80013c8:	00a777b3          	and	x15,x14,x10
 80013cc:	00813823          	sd	x8,16(x2)
 80013d0:	00b77733          	and	x14,x14,x11
 80013d4:	00913423          	sd	x9,8(x2)
 80013d8:	03455413          	srli	x8,x10,0x34
 80013dc:	03f55493          	srli	x9,x10,0x3f
 80013e0:	00113c23          	sd	x1,24(x2)
 80013e4:	01213023          	sd	x18,0(x2)
 80013e8:	7ff6f693          	andi	x13,x13,2047
 80013ec:	7ff00813          	addi	x16,x0,2047
 80013f0:	7ff47413          	andi	x8,x8,2047
 80013f4:	00048613          	addi	x12,x9,0
 80013f8:	00379793          	slli	x15,x15,0x3
 80013fc:	03f5d593          	srli	x11,x11,0x3f
 8001400:	00371713          	slli	x14,x14,0x3
 8001404:	13068a63          	beq	x13,x16,8001538 <__subdf3+0x180>
 8001408:	0015c593          	xori	x11,x11,1
 800140c:	40d4053b          	subw	x10,x8,x13
 8001410:	08b48a63          	beq	x9,x11,80014a4 <__subdf3+0xec>
 8001414:	3ca05e63          	bge	x0,x10,80017f0 <__subdf3+0x438>
 8001418:	20069263          	bne	x13,x0,800161c <__subdf3+0x264>
 800141c:	0c070c63          	beq	x14,x0,80014f4 <__subdf3+0x13c>
 8001420:	fff5051b          	addiw	x10,x10,-1
 8001424:	3e050663          	beq	x10,x0,8001810 <__subdf3+0x458>
 8001428:	09040a63          	beq	x8,x16,80014bc <__subdf3+0x104>
 800142c:	03800613          	addi	x12,x0,56
 8001430:	00100693          	addi	x13,x0,1
 8001434:	00a64e63          	blt	x12,x10,8001450 <__subdf3+0x98>
 8001438:	04000693          	addi	x13,x0,64
 800143c:	40a686bb          	subw	x13,x13,x10
 8001440:	00d716b3          	sll	x13,x14,x13
 8001444:	00a75533          	srl	x10,x14,x10
 8001448:	00d036b3          	sltu	x13,x0,x13
 800144c:	00d566b3          	or	x13,x10,x13
 8001450:	40d787b3          	sub	x15,x15,x13
 8001454:	0377d713          	srli	x14,x15,0x37
 8001458:	00177713          	andi	x14,x14,1
 800145c:	1c071a63          	bne	x14,x0,8001630 <__subdf3+0x278>
 8001460:	0077f713          	andi	x14,x15,7
 8001464:	08070863          	beq	x14,x0,80014f4 <__subdf3+0x13c>
 8001468:	00f7f713          	andi	x14,x15,15
 800146c:	00400693          	addi	x13,x0,4
 8001470:	00d70463          	beq	x14,x13,8001478 <__subdf3+0xc0>
 8001474:	00478793          	addi	x15,x15,4
 8001478:	0377d713          	srli	x14,x15,0x37
 800147c:	00177713          	andi	x14,x14,1
 8001480:	06070a63          	beq	x14,x0,80014f4 <__subdf3+0x13c>
 8001484:	00140413          	addi	x8,x8,1
 8001488:	7ff00713          	addi	x14,x0,2047
 800148c:	0014f613          	andi	x12,x9,1
 8001490:	18e40063          	beq	x8,x14,8001610 <__subdf3+0x258>
 8001494:	00979713          	slli	x14,x15,0x9
 8001498:	7ff47513          	andi	x10,x8,2047
 800149c:	00c75713          	srli	x14,x14,0xc
 80014a0:	0700006f          	jal	x0,8001510 <__subdf3+0x158>
 80014a4:	0ea05463          	bge	x0,x10,800158c <__subdf3+0x1d4>
 80014a8:	22069063          	bne	x13,x0,80016c8 <__subdf3+0x310>
 80014ac:	04070463          	beq	x14,x0,80014f4 <__subdf3+0x13c>
 80014b0:	fff5051b          	addiw	x10,x10,-1
 80014b4:	32050a63          	beq	x10,x0,80017e8 <__subdf3+0x430>
 80014b8:	23041063          	bne	x8,x16,80016d8 <__subdf3+0x320>
 80014bc:	0037d793          	srli	x15,x15,0x3
 80014c0:	0014f613          	andi	x12,x9,1
 80014c4:	7ff00513          	addi	x10,x0,2047
 80014c8:	00000713          	addi	x14,x0,0
 80014cc:	04078263          	beq	x15,x0,8001510 <__subdf3+0x158>
 80014d0:	00100713          	addi	x14,x0,1
 80014d4:	00000613          	addi	x12,x0,0
 80014d8:	7ff00513          	addi	x10,x0,2047
 80014dc:	03371713          	slli	x14,x14,0x33
 80014e0:	0300006f          	jal	x0,8001510 <__subdf3+0x158>
 80014e4:	28079463          	bne	x15,x0,800176c <__subdf3+0x3b4>
 80014e8:	00068413          	addi	x8,x13,0
 80014ec:	00058493          	addi	x9,x11,0
 80014f0:	00070793          	addi	x15,x14,0
 80014f4:	7ff00713          	addi	x14,x0,2047
 80014f8:	0037d793          	srli	x15,x15,0x3
 80014fc:	fce402e3          	beq	x8,x14,80014c0 <__subdf3+0x108>
 8001500:	00c79793          	slli	x15,x15,0xc
 8001504:	00c7d713          	srli	x14,x15,0xc
 8001508:	7ff47513          	andi	x10,x8,2047
 800150c:	0014f613          	andi	x12,x9,1
 8001510:	01813083          	ld	x1,24(x2)
 8001514:	01013403          	ld	x8,16(x2)
 8001518:	03451513          	slli	x10,x10,0x34
 800151c:	00e56533          	or	x10,x10,x14
 8001520:	03f61793          	slli	x15,x12,0x3f
 8001524:	00813483          	ld	x9,8(x2)
 8001528:	00013903          	ld	x18,0(x2)
 800152c:	00f56533          	or	x10,x10,x15
 8001530:	02010113          	addi	x2,x2,32
 8001534:	00008067          	jalr	x0,0(x1)
 8001538:	8014051b          	addiw	x10,x8,-2047
 800153c:	02071263          	bne	x14,x0,8001560 <__subdf3+0x1a8>
 8001540:	0015c593          	xori	x11,x11,1
 8001544:	06b48a63          	beq	x9,x11,80015b8 <__subdf3+0x200>
 8001548:	12050a63          	beq	x10,x0,800167c <__subdf3+0x2c4>
 800154c:	f8040ce3          	beq	x8,x0,80014e4 <__subdf3+0x12c>
 8001550:	00070793          	addi	x15,x14,0
 8001554:	00058493          	addi	x9,x11,0
 8001558:	0037d793          	srli	x15,x15,0x3
 800155c:	f65ff06f          	jal	x0,80014c0 <__subdf3+0x108>
 8001560:	feb494e3          	bne	x9,x11,8001548 <__subdf3+0x190>
 8001564:	06050463          	beq	x10,x0,80015cc <__subdf3+0x214>
 8001568:	00041c63          	bne	x8,x0,8001580 <__subdf3+0x1c8>
 800156c:	30078863          	beq	x15,x0,800187c <__subdf3+0x4c4>
 8001570:	fff54893          	xori	x17,x10,-1
 8001574:	30088a63          	beq	x17,x0,8001888 <__subdf3+0x4d0>
 8001578:	7ff00593          	addi	x11,x0,2047
 800157c:	02b69463          	bne	x13,x11,80015a4 <__subdf3+0x1ec>
 8001580:	00070793          	addi	x15,x14,0
 8001584:	0037d793          	srli	x15,x15,0x3
 8001588:	f39ff06f          	jal	x0,80014c0 <__subdf3+0x108>
 800158c:	04050063          	beq	x10,x0,80015cc <__subdf3+0x214>
 8001590:	fc040ee3          	beq	x8,x0,800156c <__subdf3+0x1b4>
 8001594:	00100593          	addi	x11,x0,1
 8001598:	03759593          	slli	x11,x11,0x37
 800159c:	40a008bb          	subw	x17,x0,x10
 80015a0:	00b7e7b3          	or	x15,x15,x11
 80015a4:	03800593          	addi	x11,x0,56
 80015a8:	2915d863          	bge	x11,x17,8001838 <__subdf3+0x480>
 80015ac:	00170793          	addi	x15,x14,1
 80015b0:	00068413          	addi	x8,x13,0
 80015b4:	eb5ff06f          	jal	x0,8001468 <__subdf3+0xb0>
 80015b8:	00050a63          	beq	x10,x0,80015cc <__subdf3+0x214>
 80015bc:	fa0408e3          	beq	x8,x0,800156c <__subdf3+0x1b4>
 80015c0:	00000793          	addi	x15,x0,0
 80015c4:	0037d793          	srli	x15,x15,0x3
 80015c8:	ef9ff06f          	jal	x0,80014c0 <__subdf3+0x108>
 80015cc:	00140593          	addi	x11,x8,1
 80015d0:	7fe5f693          	andi	x13,x11,2046
 80015d4:	1c069e63          	bne	x13,x0,80017b0 <__subdf3+0x3f8>
 80015d8:	24041863          	bne	x8,x0,8001828 <__subdf3+0x470>
 80015dc:	22078e63          	beq	x15,x0,8001818 <__subdf3+0x460>
 80015e0:	22070e63          	beq	x14,x0,800181c <__subdf3+0x464>
 80015e4:	00e787b3          	add	x15,x15,x14
 80015e8:	0377d693          	srli	x13,x15,0x37
 80015ec:	0016f693          	andi	x13,x13,1
 80015f0:	00068c63          	beq	x13,x0,8001608 <__subdf3+0x250>
 80015f4:	fff00713          	addi	x14,x0,-1
 80015f8:	03771713          	slli	x14,x14,0x37
 80015fc:	fff70713          	addi	x14,x14,-1
 8001600:	00e7f7b3          	and	x15,x15,x14
 8001604:	00100413          	addi	x8,x0,1
 8001608:	0037d793          	srli	x15,x15,0x3
 800160c:	ef5ff06f          	jal	x0,8001500 <__subdf3+0x148>
 8001610:	7ff00513          	addi	x10,x0,2047
 8001614:	00000713          	addi	x14,x0,0
 8001618:	ef9ff06f          	jal	x0,8001510 <__subdf3+0x158>
 800161c:	eb0400e3          	beq	x8,x16,80014bc <__subdf3+0x104>
 8001620:	00100693          	addi	x13,x0,1
 8001624:	03769693          	slli	x13,x13,0x37
 8001628:	00d76733          	or	x14,x14,x13
 800162c:	e01ff06f          	jal	x0,800142c <__subdf3+0x74>
 8001630:	00979913          	slli	x18,x15,0x9
 8001634:	00995913          	srli	x18,x18,0x9
 8001638:	00090513          	addi	x10,x18,0
 800163c:	e5dfe0ef          	jal	x1,8000498 <__clzdi2>
 8001640:	ff85071b          	addiw	x14,x10,-8
 8001644:	00e91933          	sll	x18,x18,x14
 8001648:	06874463          	blt	x14,x8,80016b0 <__subdf3+0x2f8>
 800164c:	4087053b          	subw	x10,x14,x8
 8001650:	0015051b          	addiw	x10,x10,1
 8001654:	04000793          	addi	x15,x0,64
 8001658:	40a787bb          	subw	x15,x15,x10
 800165c:	00f917b3          	sll	x15,x18,x15
 8001660:	00f037b3          	sltu	x15,x0,x15
 8001664:	00a95933          	srl	x18,x18,x10
 8001668:	00f967b3          	or	x15,x18,x15
 800166c:	00000413          	addi	x8,x0,0
 8001670:	0077f713          	andi	x14,x15,7
 8001674:	de071ae3          	bne	x14,x0,8001468 <__subdf3+0xb0>
 8001678:	e01ff06f          	jal	x0,8001478 <__subdf3+0xc0>
 800167c:	00140693          	addi	x13,x8,1
 8001680:	7fe6f693          	andi	x13,x13,2046
 8001684:	06069263          	bne	x13,x0,80016e8 <__subdf3+0x330>
 8001688:	14041463          	bne	x8,x0,80017d0 <__subdf3+0x418>
 800168c:	1c078863          	beq	x15,x0,800185c <__subdf3+0x4a4>
 8001690:	18070663          	beq	x14,x0,800181c <__subdf3+0x464>
 8001694:	40e78633          	sub	x12,x15,x14
 8001698:	03765693          	srli	x13,x12,0x37
 800169c:	0016f693          	andi	x13,x13,1
 80016a0:	1e068a63          	beq	x13,x0,8001894 <__subdf3+0x4dc>
 80016a4:	40f707b3          	sub	x15,x14,x15
 80016a8:	00058493          	addi	x9,x11,0
 80016ac:	fc5ff06f          	jal	x0,8001670 <__subdf3+0x2b8>
 80016b0:	fff00793          	addi	x15,x0,-1
 80016b4:	03779793          	slli	x15,x15,0x37
 80016b8:	fff78793          	addi	x15,x15,-1
 80016bc:	40e40433          	sub	x8,x8,x14
 80016c0:	00f977b3          	and	x15,x18,x15
 80016c4:	fadff06f          	jal	x0,8001670 <__subdf3+0x2b8>
 80016c8:	df040ae3          	beq	x8,x16,80014bc <__subdf3+0x104>
 80016cc:	00100693          	addi	x13,x0,1
 80016d0:	03769693          	slli	x13,x13,0x37
 80016d4:	00d76733          	or	x14,x14,x13
 80016d8:	03800693          	addi	x13,x0,56
 80016dc:	02a6d863          	bge	x13,x10,800170c <__subdf3+0x354>
 80016e0:	00178793          	addi	x15,x15,1
 80016e4:	d85ff06f          	jal	x0,8001468 <__subdf3+0xb0>
 80016e8:	40e78933          	sub	x18,x15,x14
 80016ec:	03795693          	srli	x13,x18,0x37
 80016f0:	0016f693          	andi	x13,x13,1
 80016f4:	0e069463          	bne	x13,x0,80017dc <__subdf3+0x424>
 80016f8:	f40910e3          	bne	x18,x0,8001638 <__subdf3+0x280>
 80016fc:	00000613          	addi	x12,x0,0
 8001700:	00000513          	addi	x10,x0,0
 8001704:	00000713          	addi	x14,x0,0
 8001708:	e09ff06f          	jal	x0,8001510 <__subdf3+0x158>
 800170c:	04000693          	addi	x13,x0,64
 8001710:	40a686bb          	subw	x13,x13,x10
 8001714:	00d716b3          	sll	x13,x14,x13
 8001718:	00a75533          	srl	x10,x14,x10
 800171c:	00d03733          	sltu	x14,x0,x13
 8001720:	00e56533          	or	x10,x10,x14
 8001724:	00a787b3          	add	x15,x15,x10
 8001728:	0377d713          	srli	x14,x15,0x37
 800172c:	00177713          	andi	x14,x14,1
 8001730:	d20708e3          	beq	x14,x0,8001460 <__subdf3+0xa8>
 8001734:	00140413          	addi	x8,x8,1
 8001738:	7ff00713          	addi	x14,x0,2047
 800173c:	ece40ae3          	beq	x8,x14,8001610 <__subdf3+0x258>
 8001740:	1ff00713          	addi	x14,x0,511
 8001744:	03671713          	slli	x14,x14,0x36
 8001748:	0017d693          	srli	x13,x15,0x1
 800174c:	fff70713          	addi	x14,x14,-1
 8001750:	00e6f733          	and	x14,x13,x14
 8001754:	0017f793          	andi	x15,x15,1
 8001758:	00f767b3          	or	x15,x14,x15
 800175c:	0077f693          	andi	x13,x15,7
 8001760:	d00694e3          	bne	x13,x0,8001468 <__subdf3+0xb0>
 8001764:	0037d793          	srli	x15,x15,0x3
 8001768:	d99ff06f          	jal	x0,8001500 <__subdf3+0x148>
 800176c:	fff54893          	xori	x17,x10,-1
 8001770:	0e088e63          	beq	x17,x0,800186c <__subdf3+0x4b4>
 8001774:	7ff00613          	addi	x12,x0,2047
 8001778:	00058493          	addi	x9,x11,0
 800177c:	e0c682e3          	beq	x13,x12,8001580 <__subdf3+0x1c8>
 8001780:	03800593          	addi	x11,x0,56
 8001784:	00100613          	addi	x12,x0,1
 8001788:	0115ce63          	blt	x11,x17,80017a4 <__subdf3+0x3ec>
 800178c:	04000613          	addi	x12,x0,64
 8001790:	4116063b          	subw	x12,x12,x17
 8001794:	00c79633          	sll	x12,x15,x12
 8001798:	0117d8b3          	srl	x17,x15,x17
 800179c:	00c03633          	sltu	x12,x0,x12
 80017a0:	00c8e633          	or	x12,x17,x12
 80017a4:	40c707b3          	sub	x15,x14,x12
 80017a8:	00068413          	addi	x8,x13,0
 80017ac:	ca9ff06f          	jal	x0,8001454 <__subdf3+0x9c>
 80017b0:	7ff00693          	addi	x13,x0,2047
 80017b4:	e4d58ee3          	beq	x11,x13,8001610 <__subdf3+0x258>
 80017b8:	00e78733          	add	x14,x15,x14
 80017bc:	00175793          	srli	x15,x14,0x1
 80017c0:	0077f693          	andi	x13,x15,7
 80017c4:	00058413          	addi	x8,x11,0
 80017c8:	ca0690e3          	bne	x13,x0,8001468 <__subdf3+0xb0>
 80017cc:	f99ff06f          	jal	x0,8001764 <__subdf3+0x3ac>
 80017d0:	04079e63          	bne	x15,x0,800182c <__subdf3+0x474>
 80017d4:	ce070ee3          	beq	x14,x0,80014d0 <__subdf3+0x118>
 80017d8:	d79ff06f          	jal	x0,8001550 <__subdf3+0x198>
 80017dc:	40f70933          	sub	x18,x14,x15
 80017e0:	00058493          	addi	x9,x11,0
 80017e4:	e55ff06f          	jal	x0,8001638 <__subdf3+0x280>
 80017e8:	00e787b3          	add	x15,x15,x14
 80017ec:	f3dff06f          	jal	x0,8001728 <__subdf3+0x370>
 80017f0:	e80506e3          	beq	x10,x0,800167c <__subdf3+0x2c4>
 80017f4:	ce0408e3          	beq	x8,x0,80014e4 <__subdf3+0x12c>
 80017f8:	00100613          	addi	x12,x0,1
 80017fc:	03761613          	slli	x12,x12,0x37
 8001800:	40a008bb          	subw	x17,x0,x10
 8001804:	00c7e7b3          	or	x15,x15,x12
 8001808:	00058493          	addi	x9,x11,0
 800180c:	f75ff06f          	jal	x0,8001780 <__subdf3+0x3c8>
 8001810:	40e787b3          	sub	x15,x15,x14
 8001814:	c41ff06f          	jal	x0,8001454 <__subdf3+0x9c>
 8001818:	00070793          	addi	x15,x14,0
 800181c:	0037d793          	srli	x15,x15,0x3
 8001820:	00000413          	addi	x8,x0,0
 8001824:	cddff06f          	jal	x0,8001500 <__subdf3+0x148>
 8001828:	d4078ce3          	beq	x15,x0,8001580 <__subdf3+0x1c8>
 800182c:	ca0712e3          	bne	x14,x0,80014d0 <__subdf3+0x118>
 8001830:	0037d793          	srli	x15,x15,0x3
 8001834:	c8dff06f          	jal	x0,80014c0 <__subdf3+0x108>
 8001838:	04000593          	addi	x11,x0,64
 800183c:	411585bb          	subw	x11,x11,x17
 8001840:	00b795b3          	sll	x11,x15,x11
 8001844:	0117d8b3          	srl	x17,x15,x17
 8001848:	00b037b3          	sltu	x15,x0,x11
 800184c:	00f8e8b3          	or	x17,x17,x15
 8001850:	00e887b3          	add	x15,x17,x14
 8001854:	00068413          	addi	x8,x13,0
 8001858:	ed1ff06f          	jal	x0,8001728 <__subdf3+0x370>
 800185c:	ea0700e3          	beq	x14,x0,80016fc <__subdf3+0x344>
 8001860:	00058493          	addi	x9,x11,0
 8001864:	00070793          	addi	x15,x14,0
 8001868:	fb5ff06f          	jal	x0,800181c <__subdf3+0x464>
 800186c:	40f707b3          	sub	x15,x14,x15
 8001870:	00068413          	addi	x8,x13,0
 8001874:	00058493          	addi	x9,x11,0
 8001878:	bddff06f          	jal	x0,8001454 <__subdf3+0x9c>
 800187c:	00068413          	addi	x8,x13,0
 8001880:	00070793          	addi	x15,x14,0
 8001884:	c71ff06f          	jal	x0,80014f4 <__subdf3+0x13c>
 8001888:	00e787b3          	add	x15,x15,x14
 800188c:	00068413          	addi	x8,x13,0
 8001890:	e99ff06f          	jal	x0,8001728 <__subdf3+0x370>
 8001894:	00060793          	addi	x15,x12,0
 8001898:	e60602e3          	beq	x12,x0,80016fc <__subdf3+0x344>
 800189c:	0037d793          	srli	x15,x15,0x3
 80018a0:	c61ff06f          	jal	x0,8001500 <__subdf3+0x148>

00000000080018a4 <pow>:
 80018a4:	f4010113          	addi	x2,x2,-192
 80018a8:	03455693          	srli	x13,x10,0x34
 80018ac:	0a813823          	sd	x8,176(x2)
 80018b0:	0a913423          	sd	x9,168(x2)
 80018b4:	0b213023          	sd	x18,160(x2)
 80018b8:	07713c23          	sd	x23,120(x2)
 80018bc:	0345d413          	srli	x8,x11,0x34
 80018c0:	0a113c23          	sd	x1,184(x2)
 80018c4:	09313c23          	sd	x19,152(x2)
 80018c8:	09413823          	sd	x20,144(x2)
 80018cc:	09513423          	sd	x21,136(x2)
 80018d0:	09613023          	sd	x22,128(x2)
 80018d4:	07813823          	sd	x24,112(x2)
 80018d8:	07913423          	sd	x25,104(x2)
 80018dc:	07a13023          	sd	x26,96(x2)
 80018e0:	05b13c23          	sd	x27,88(x2)
 80018e4:	fff6861b          	addiw	x12,x13,-1
 80018e8:	7fd00713          	addi	x14,x0,2045
 80018ec:	00058913          	addi	x18,x11,0
 80018f0:	00058493          	addi	x9,x11,0
 80018f4:	00050793          	addi	x15,x10,0
 80018f8:	00050b93          	addi	x23,x10,0
 80018fc:	00040593          	addi	x11,x8,0
 8001900:	48c76a63          	bltu	x14,x12,8001d94 <pow+0x4f0>
 8001904:	7ff47713          	andi	x14,x8,2047
 8001908:	c427051b          	addiw	x10,x14,-958
 800190c:	07f00613          	addi	x12,x0,127
 8001910:	00000a13          	addi	x20,x0,0
 8001914:	4ea66a63          	bltu	x12,x10,8001e08 <pow+0x564>
 8001918:	c0197537          	lui	x10,0xc0197
 800191c:	aab50513          	addi	x10,x10,-1365 # ffffffffc0196aab <_estack+0xffffffff9c196aab>
 8001920:	fff00b13          	addi	x22,x0,-1
 8001924:	02051513          	slli	x10,x10,0x20
 8001928:	00ab8533          	add	x10,x23,x10
 800192c:	034b1793          	slli	x15,x22,0x34
 8001930:	00f577b3          	and	x15,x10,x15
 8001934:	02d55993          	srli	x19,x10,0x2d
 8001938:	43455513          	srai	x10,x10,0x34
 800193c:	40fb8bb3          	sub	x23,x23,x15
 8001940:	07f9f993          	andi	x19,x19,127
 8001944:	aa9fe0ef          	jal	x1,80003ec <__floatsidf>
 8001948:	00298793          	addi	x15,x19,2
 800194c:	08002437          	lui	x8,0x8002
 8001950:	52040413          	addi	x8,x8,1312 # 8002520 <__pow_log_data>
 8001954:	00579793          	slli	x15,x15,0x5
 8001958:	00f407b3          	add	x15,x8,x15
 800195c:	00100493          	addi	x9,x0,1
 8001960:	0087bc83          	ld	x25,8(x15)
 8001964:	01f49493          	slli	x9,x9,0x1f
 8001968:	020b1793          	slli	x15,x22,0x20
 800196c:	009b84b3          	add	x9,x23,x9
 8001970:	00f4f4b3          	and	x9,x9,x15
 8001974:	00050c13          	addi	x24,x10,0
 8001978:	00048593          	addi	x11,x9,0
 800197c:	000c8513          	addi	x10,x25,0
 8001980:	de0ff0ef          	jal	x1,8000f60 <__muldf3>
 8001984:	08004ab7          	lui	x21,0x8004
 8001988:	dd8ab583          	ld	x11,-552(x21) # 8003dd8 <__exp_data+0x870>
 800198c:	00599993          	slli	x19,x19,0x5
 8001990:	013409b3          	add	x19,x8,x19
 8001994:	a25ff0ef          	jal	x1,80013b8 <__subdf3>
 8001998:	00050793          	addi	x15,x10,0
 800199c:	00048593          	addi	x11,x9,0
 80019a0:	000b8513          	addi	x10,x23,0
 80019a4:	00078b93          	addi	x23,x15,0
 80019a8:	a11ff0ef          	jal	x1,80013b8 <__subdf3>
 80019ac:	000c8593          	addi	x11,x25,0
 80019b0:	db0ff0ef          	jal	x1,8000f60 <__muldf3>
 80019b4:	00050593          	addi	x11,x10,0
 80019b8:	02a13423          	sd	x10,40(x2)
 80019bc:	000b8513          	addi	x10,x23,0
 80019c0:	b49fe0ef          	jal	x1,8000508 <__adddf3>
 80019c4:	00043583          	ld	x11,0(x8)
 80019c8:	00050493          	addi	x9,x10,0
 80019cc:	000c0513          	addi	x10,x24,0
 80019d0:	d90ff0ef          	jal	x1,8000f60 <__muldf3>
 80019d4:	0589b583          	ld	x11,88(x19)
 80019d8:	b31fe0ef          	jal	x1,8000508 <__adddf3>
 80019dc:	00050593          	addi	x11,x10,0
 80019e0:	02a13023          	sd	x10,32(x2)
 80019e4:	00048513          	addi	x10,x9,0
 80019e8:	b21fe0ef          	jal	x1,8000508 <__adddf3>
 80019ec:	01043d83          	ld	x27,16(x8)
 80019f0:	00050c93          	addi	x25,x10,0
 80019f4:	00048513          	addi	x10,x9,0
 80019f8:	000d8593          	addi	x11,x27,0
 80019fc:	d64ff0ef          	jal	x1,8000f60 <__muldf3>
 8001a00:	00050593          	addi	x11,x10,0
 8001a04:	00a13c23          	sd	x10,24(x2)
 8001a08:	00048513          	addi	x10,x9,0
 8001a0c:	d54ff0ef          	jal	x1,8000f60 <__muldf3>
 8001a10:	00050d13          	addi	x26,x10,0
 8001a14:	000d8593          	addi	x11,x27,0
 8001a18:	000b8513          	addi	x10,x23,0
 8001a1c:	d44ff0ef          	jal	x1,8000f60 <__muldf3>
 8001a20:	00050593          	addi	x11,x10,0
 8001a24:	00a13823          	sd	x10,16(x2)
 8001a28:	000b8513          	addi	x10,x23,0
 8001a2c:	d34ff0ef          	jal	x1,8000f60 <__muldf3>
 8001a30:	00050593          	addi	x11,x10,0
 8001a34:	00a13423          	sd	x10,8(x2)
 8001a38:	000c8513          	addi	x10,x25,0
 8001a3c:	acdfe0ef          	jal	x1,8000508 <__adddf3>
 8001a40:	04043583          	ld	x11,64(x8)
 8001a44:	00050b93          	addi	x23,x10,0
 8001a48:	00048513          	addi	x10,x9,0
 8001a4c:	d14ff0ef          	jal	x1,8000f60 <__muldf3>
 8001a50:	03843583          	ld	x11,56(x8)
 8001a54:	ab5fe0ef          	jal	x1,8000508 <__adddf3>
 8001a58:	000d0593          	addi	x11,x26,0
 8001a5c:	d04ff0ef          	jal	x1,8000f60 <__muldf3>
 8001a60:	03043583          	ld	x11,48(x8)
 8001a64:	00050d93          	addi	x27,x10,0
 8001a68:	00048513          	addi	x10,x9,0
 8001a6c:	cf4ff0ef          	jal	x1,8000f60 <__muldf3>
 8001a70:	02843583          	ld	x11,40(x8)
 8001a74:	a95fe0ef          	jal	x1,8000508 <__adddf3>
 8001a78:	00050593          	addi	x11,x10,0
 8001a7c:	000d8513          	addi	x10,x27,0
 8001a80:	a89fe0ef          	jal	x1,8000508 <__adddf3>
 8001a84:	000d0593          	addi	x11,x26,0
 8001a88:	cd8ff0ef          	jal	x1,8000f60 <__muldf3>
 8001a8c:	02043583          	ld	x11,32(x8)
 8001a90:	00050d93          	addi	x27,x10,0
 8001a94:	00048513          	addi	x10,x9,0
 8001a98:	cc8ff0ef          	jal	x1,8000f60 <__muldf3>
 8001a9c:	01843583          	ld	x11,24(x8)
 8001aa0:	a69fe0ef          	jal	x1,8000508 <__adddf3>
 8001aa4:	00050593          	addi	x11,x10,0
 8001aa8:	000d8513          	addi	x10,x27,0
 8001aac:	a5dfe0ef          	jal	x1,8000508 <__adddf3>
 8001ab0:	00050d93          	addi	x27,x10,0
 8001ab4:	000d0593          	addi	x11,x26,0
 8001ab8:	00048513          	addi	x10,x9,0
 8001abc:	ca4ff0ef          	jal	x1,8000f60 <__muldf3>
 8001ac0:	00050593          	addi	x11,x10,0
 8001ac4:	000d8513          	addi	x10,x27,0
 8001ac8:	c98ff0ef          	jal	x1,8000f60 <__muldf3>
 8001acc:	00843583          	ld	x11,8(x8)
 8001ad0:	00050893          	addi	x17,x10,0
 8001ad4:	000c0513          	addi	x10,x24,0
 8001ad8:	00088413          	addi	x8,x17,0
 8001adc:	c84ff0ef          	jal	x1,8000f60 <__muldf3>
 8001ae0:	0609b583          	ld	x11,96(x19)
 8001ae4:	a25fe0ef          	jal	x1,8000508 <__adddf3>
 8001ae8:	02013803          	ld	x16,32(x2)
 8001aec:	00050993          	addi	x19,x10,0
 8001af0:	000c8593          	addi	x11,x25,0
 8001af4:	00080513          	addi	x10,x16,0
 8001af8:	8c1ff0ef          	jal	x1,80013b8 <__subdf3>
 8001afc:	00048593          	addi	x11,x9,0
 8001b00:	a09fe0ef          	jal	x1,8000508 <__adddf3>
 8001b04:	00050593          	addi	x11,x10,0
 8001b08:	00098513          	addi	x10,x19,0
 8001b0c:	9fdfe0ef          	jal	x1,8000508 <__adddf3>
 8001b10:	01013603          	ld	x12,16(x2)
 8001b14:	01813683          	ld	x13,24(x2)
 8001b18:	00050493          	addi	x9,x10,0
 8001b1c:	00060593          	addi	x11,x12,0
 8001b20:	00068513          	addi	x10,x13,0
 8001b24:	9e5fe0ef          	jal	x1,8000508 <__adddf3>
 8001b28:	02813703          	ld	x14,40(x2)
 8001b2c:	00070593          	addi	x11,x14,0
 8001b30:	c30ff0ef          	jal	x1,8000f60 <__muldf3>
 8001b34:	00050593          	addi	x11,x10,0
 8001b38:	00048513          	addi	x10,x9,0
 8001b3c:	9cdfe0ef          	jal	x1,8000508 <__adddf3>
 8001b40:	00050493          	addi	x9,x10,0
 8001b44:	000b8593          	addi	x11,x23,0
 8001b48:	000c8513          	addi	x10,x25,0
 8001b4c:	86dff0ef          	jal	x1,80013b8 <__subdf3>
 8001b50:	00813783          	ld	x15,8(x2)
 8001b54:	00078593          	addi	x11,x15,0
 8001b58:	9b1fe0ef          	jal	x1,8000508 <__adddf3>
 8001b5c:	00050593          	addi	x11,x10,0
 8001b60:	00048513          	addi	x10,x9,0
 8001b64:	9a5fe0ef          	jal	x1,8000508 <__adddf3>
 8001b68:	00050593          	addi	x11,x10,0
 8001b6c:	00040513          	addi	x10,x8,0
 8001b70:	999fe0ef          	jal	x1,8000508 <__adddf3>
 8001b74:	00050493          	addi	x9,x10,0
 8001b78:	00050593          	addi	x11,x10,0
 8001b7c:	000b8513          	addi	x10,x23,0
 8001b80:	989fe0ef          	jal	x1,8000508 <__adddf3>
 8001b84:	f8000437          	lui	x8,0xf8000
 8001b88:	00a47cb3          	and	x25,x8,x10
 8001b8c:	01247433          	and	x8,x8,x18
 8001b90:	00050c13          	addi	x24,x10,0
 8001b94:	000c8593          	addi	x11,x25,0
 8001b98:	00040513          	addi	x10,x8,0 # fffffffff8000000 <_estack+0xffffffffd4000000>
 8001b9c:	bc4ff0ef          	jal	x1,8000f60 <__muldf3>
 8001ba0:	00050993          	addi	x19,x10,0
 8001ba4:	000c0593          	addi	x11,x24,0
 8001ba8:	000b8513          	addi	x10,x23,0
 8001bac:	80dff0ef          	jal	x1,80013b8 <__subdf3>
 8001bb0:	00048593          	addi	x11,x9,0
 8001bb4:	955fe0ef          	jal	x1,8000508 <__adddf3>
 8001bb8:	00050493          	addi	x9,x10,0
 8001bbc:	000c8593          	addi	x11,x25,0
 8001bc0:	000c0513          	addi	x10,x24,0
 8001bc4:	ff4ff0ef          	jal	x1,80013b8 <__subdf3>
 8001bc8:	00050593          	addi	x11,x10,0
 8001bcc:	00048513          	addi	x10,x9,0
 8001bd0:	939fe0ef          	jal	x1,8000508 <__adddf3>
 8001bd4:	00090593          	addi	x11,x18,0
 8001bd8:	b88ff0ef          	jal	x1,8000f60 <__muldf3>
 8001bdc:	00050793          	addi	x15,x10,0
 8001be0:	00040593          	addi	x11,x8,0
 8001be4:	00090513          	addi	x10,x18,0
 8001be8:	00078413          	addi	x8,x15,0
 8001bec:	fccff0ef          	jal	x1,80013b8 <__subdf3>
 8001bf0:	000c8593          	addi	x11,x25,0
 8001bf4:	b6cff0ef          	jal	x1,8000f60 <__muldf3>
 8001bf8:	00050593          	addi	x11,x10,0
 8001bfc:	0349db93          	srli	x23,x19,0x34
 8001c00:	00040513          	addi	x10,x8,0
 8001c04:	905fe0ef          	jal	x1,8000508 <__adddf3>
 8001c08:	7ffbfb93          	andi	x23,x23,2047
 8001c0c:	c37b879b          	addiw	x15,x23,-969
 8001c10:	03e00713          	addi	x14,x0,62
 8001c14:	00050493          	addi	x9,x10,0
 8001c18:	24f76463          	bltu	x14,x15,8001e60 <pow+0x5bc>
 8001c1c:	08003437          	lui	x8,0x8003
 8001c20:	56840413          	addi	x8,x8,1384 # 8003568 <__exp_data>
 8001c24:	00043583          	ld	x11,0(x8)
 8001c28:	00843b03          	ld	x22,8(x8)
 8001c2c:	00098513          	addi	x10,x19,0
 8001c30:	b30ff0ef          	jal	x1,8000f60 <__muldf3>
 8001c34:	000b0593          	addi	x11,x22,0
 8001c38:	8d1fe0ef          	jal	x1,8000508 <__adddf3>
 8001c3c:	000b0593          	addi	x11,x22,0
 8001c40:	00050913          	addi	x18,x10,0
 8001c44:	f74ff0ef          	jal	x1,80013b8 <__subdf3>
 8001c48:	01043583          	ld	x11,16(x8)
 8001c4c:	00050b13          	addi	x22,x10,0
 8001c50:	012a0a33          	add	x20,x20,x18
 8001c54:	b0cff0ef          	jal	x1,8000f60 <__muldf3>
 8001c58:	00098593          	addi	x11,x19,0
 8001c5c:	8adfe0ef          	jal	x1,8000508 <__adddf3>
 8001c60:	01843583          	ld	x11,24(x8)
 8001c64:	00050993          	addi	x19,x10,0
 8001c68:	000b0513          	addi	x10,x22,0
 8001c6c:	af4ff0ef          	jal	x1,8000f60 <__muldf3>
 8001c70:	00050593          	addi	x11,x10,0
 8001c74:	00098513          	addi	x10,x19,0
 8001c78:	891fe0ef          	jal	x1,8000508 <__adddf3>
 8001c7c:	00050593          	addi	x11,x10,0
 8001c80:	00048513          	addi	x10,x9,0
 8001c84:	07f97493          	andi	x9,x18,127
 8001c88:	881fe0ef          	jal	x1,8000508 <__adddf3>
 8001c8c:	00149493          	slli	x9,x9,0x1
 8001c90:	00f48793          	addi	x15,x9,15
 8001c94:	00379793          	slli	x15,x15,0x3
 8001c98:	00f407b3          	add	x15,x8,x15
 8001c9c:	0007b783          	ld	x15,0(x15)
 8001ca0:	00050593          	addi	x11,x10,0
 8001ca4:	02da1a13          	slli	x20,x20,0x2d
 8001ca8:	00fa0a33          	add	x20,x20,x15
 8001cac:	00050993          	addi	x19,x10,0
 8001cb0:	ab0ff0ef          	jal	x1,8000f60 <__muldf3>
 8001cb4:	02843583          	ld	x11,40(x8)
 8001cb8:	00050b13          	addi	x22,x10,0
 8001cbc:	00098513          	addi	x10,x19,0
 8001cc0:	aa0ff0ef          	jal	x1,8000f60 <__muldf3>
 8001cc4:	02043583          	ld	x11,32(x8)
 8001cc8:	00e48493          	addi	x9,x9,14
 8001ccc:	00349493          	slli	x9,x9,0x3
 8001cd0:	839fe0ef          	jal	x1,8000508 <__adddf3>
 8001cd4:	000b0593          	addi	x11,x22,0
 8001cd8:	a88ff0ef          	jal	x1,8000f60 <__muldf3>
 8001cdc:	009404b3          	add	x9,x8,x9
 8001ce0:	0004b583          	ld	x11,0(x9)
 8001ce4:	00050493          	addi	x9,x10,0
 8001ce8:	00098513          	addi	x10,x19,0
 8001cec:	81dfe0ef          	jal	x1,8000508 <__adddf3>
 8001cf0:	00050593          	addi	x11,x10,0
 8001cf4:	00048513          	addi	x10,x9,0
 8001cf8:	811fe0ef          	jal	x1,8000508 <__adddf3>
 8001cfc:	03843583          	ld	x11,56(x8)
 8001d00:	00050493          	addi	x9,x10,0
 8001d04:	00098513          	addi	x10,x19,0
 8001d08:	a58ff0ef          	jal	x1,8000f60 <__muldf3>
 8001d0c:	03043583          	ld	x11,48(x8)
 8001d10:	ff8fe0ef          	jal	x1,8000508 <__adddf3>
 8001d14:	00050413          	addi	x8,x10,0
 8001d18:	000b0593          	addi	x11,x22,0
 8001d1c:	000b0513          	addi	x10,x22,0
 8001d20:	a40ff0ef          	jal	x1,8000f60 <__muldf3>
 8001d24:	00050593          	addi	x11,x10,0
 8001d28:	00040513          	addi	x10,x8,0
 8001d2c:	a34ff0ef          	jal	x1,8000f60 <__muldf3>
 8001d30:	00050593          	addi	x11,x10,0
 8001d34:	00048513          	addi	x10,x9,0
 8001d38:	fd0fe0ef          	jal	x1,8000508 <__adddf3>
 8001d3c:	160b8a63          	beq	x23,x0,8001eb0 <pow+0x60c>
 8001d40:	000a0593          	addi	x11,x20,0
 8001d44:	a1cff0ef          	jal	x1,8000f60 <__muldf3>
 8001d48:	000a0593          	addi	x11,x20,0
 8001d4c:	fbcfe0ef          	jal	x1,8000508 <__adddf3>
 8001d50:	00050593          	addi	x11,x10,0
 8001d54:	0b813083          	ld	x1,184(x2)
 8001d58:	0b013403          	ld	x8,176(x2)
 8001d5c:	0a813483          	ld	x9,168(x2)
 8001d60:	0a013903          	ld	x18,160(x2)
 8001d64:	09813983          	ld	x19,152(x2)
 8001d68:	09013a03          	ld	x20,144(x2)
 8001d6c:	08813a83          	ld	x21,136(x2)
 8001d70:	08013b03          	ld	x22,128(x2)
 8001d74:	07813b83          	ld	x23,120(x2)
 8001d78:	07013c03          	ld	x24,112(x2)
 8001d7c:	06813c83          	ld	x25,104(x2)
 8001d80:	06013d03          	ld	x26,96(x2)
 8001d84:	05813d83          	ld	x27,88(x2)
 8001d88:	00058513          	addi	x10,x11,0
 8001d8c:	0c010113          	addi	x2,x2,192
 8001d90:	00008067          	jalr	x0,0(x1)
 8001d94:	fff00993          	addi	x19,x0,-1
 8001d98:	00191813          	slli	x16,x18,0x1
 8001d9c:	03599713          	slli	x14,x19,0x35
 8001da0:	fff80893          	addi	x17,x16,-1
 8001da4:	ffe70613          	addi	x12,x14,-2
 8001da8:	35166863          	bltu	x12,x17,80020f8 <pow+0x854>
 8001dac:	00151713          	slli	x14,x10,0x1
 8001db0:	fff70713          	addi	x14,x14,-1
 8001db4:	36e66263          	bltu	x12,x14,8002118 <pow+0x874>
 8001db8:	28055063          	bge	x10,x0,8002038 <pow+0x794>
 8001dbc:	7ff47413          	andi	x8,x8,2047
 8001dc0:	3fe00713          	addi	x14,x0,1022
 8001dc4:	20875463          	bge	x14,x8,8001fcc <pow+0x728>
 8001dc8:	43300713          	addi	x14,x0,1075
 8001dcc:	3a874a63          	blt	x14,x8,8002180 <pow+0x8dc>
 8001dd0:	43300613          	addi	x12,x0,1075
 8001dd4:	4086063b          	subw	x12,x12,x8
 8001dd8:	00c99733          	sll	x14,x19,x12
 8001ddc:	fff74713          	xori	x14,x14,-1
 8001de0:	01277733          	and	x14,x14,x18
 8001de4:	1e071463          	bne	x14,x0,8001fcc <pow+0x728>
 8001de8:	00c95a33          	srl	x20,x18,x12
 8001dec:	001a7a13          	andi	x20,x20,1
 8001df0:	012a1a1b          	slliw	x20,x20,0x12
 8001df4:	00179b93          	slli	x23,x15,0x1
 8001df8:	001bdb93          	srli	x23,x23,0x1
 8001dfc:	7ff6f693          	andi	x13,x13,2047
 8001e00:	7ff5f713          	andi	x14,x11,2047
 8001e04:	01c0006f          	jal	x0,8001e20 <pow+0x57c>
 8001e08:	fff00613          	addi	x12,x0,-1
 8001e0c:	00191813          	slli	x16,x18,0x1
 8001e10:	03561613          	slli	x12,x12,0x35
 8001e14:	fff80513          	addi	x10,x16,-1
 8001e18:	ffe60613          	addi	x12,x12,-2
 8001e1c:	36a66663          	bltu	x12,x10,8002188 <pow+0x8e4>
 8001e20:	c427051b          	addiw	x10,x14,-958
 8001e24:	07f00613          	addi	x12,x0,127
 8001e28:	0007071b          	addiw	x14,x14,0
 8001e2c:	0aa67e63          	bgeu	x12,x10,8001ee8 <pow+0x644>
 8001e30:	3ff00693          	addi	x13,x0,1023
 8001e34:	03469693          	slli	x13,x13,0x34
 8001e38:	1cdb8a63          	beq	x23,x13,800200c <pow+0x768>
 8001e3c:	3bd00793          	addi	x15,x0,957
 8001e40:	12e7e863          	bltu	x15,x14,8001f70 <pow+0x6cc>
 8001e44:	080047b7          	lui	x15,0x8004
 8001e48:	2976fe63          	bgeu	x13,x23,80020e4 <pow+0x840>
 8001e4c:	dd87b583          	ld	x11,-552(x15) # 8003dd8 <__exp_data+0x870>
 8001e50:	00090513          	addi	x10,x18,0
 8001e54:	eb4fe0ef          	jal	x1,8000508 <__adddf3>
 8001e58:	00050593          	addi	x11,x10,0
 8001e5c:	ef9ff06f          	jal	x0,8001d54 <pow+0x4b0>
 8001e60:	1a07cc63          	blt	x15,x0,8002018 <pow+0x774>
 8001e64:	40800793          	addi	x15,x0,1032
 8001e68:	1177f063          	bgeu	x15,x23,8001f68 <pow+0x6c4>
 8001e6c:	000a0513          	addi	x10,x20,0
 8001e70:	1209c063          	blt	x19,x0,8001f90 <pow+0x6ec>
 8001e74:	0b013403          	ld	x8,176(x2)
 8001e78:	0b813083          	ld	x1,184(x2)
 8001e7c:	0a813483          	ld	x9,168(x2)
 8001e80:	0a013903          	ld	x18,160(x2)
 8001e84:	09813983          	ld	x19,152(x2)
 8001e88:	09013a03          	ld	x20,144(x2)
 8001e8c:	08813a83          	ld	x21,136(x2)
 8001e90:	08013b03          	ld	x22,128(x2)
 8001e94:	07813b83          	ld	x23,120(x2)
 8001e98:	07013c03          	ld	x24,112(x2)
 8001e9c:	06813c83          	ld	x25,104(x2)
 8001ea0:	06013d03          	ld	x26,96(x2)
 8001ea4:	05813d83          	ld	x27,88(x2)
 8001ea8:	0c010113          	addi	x2,x2,192
 8001eac:	4700006f          	jal	x0,800231c <__math_oflow>
 8001eb0:	02091793          	slli	x15,x18,0x20
 8001eb4:	0607c063          	blt	x15,x0,8001f14 <pow+0x670>
 8001eb8:	c0f00413          	addi	x8,x0,-1009
 8001ebc:	03441413          	slli	x8,x8,0x34
 8001ec0:	008a0433          	add	x8,x20,x8
 8001ec4:	00040593          	addi	x11,x8,0
 8001ec8:	898ff0ef          	jal	x1,8000f60 <__muldf3>
 8001ecc:	00040593          	addi	x11,x8,0
 8001ed0:	e38fe0ef          	jal	x1,8000508 <__adddf3>
 8001ed4:	080047b7          	lui	x15,0x8004
 8001ed8:	df07b583          	ld	x11,-528(x15) # 8003df0 <__exp_data+0x888>
 8001edc:	884ff0ef          	jal	x1,8000f60 <__muldf3>
 8001ee0:	00050593          	addi	x11,x10,0
 8001ee4:	e71ff06f          	jal	x0,8001d54 <pow+0x4b0>
 8001ee8:	a20698e3          	bne	x13,x0,8001918 <pow+0x74>
 8001eec:	08004737          	lui	x14,0x8004
 8001ef0:	de873583          	ld	x11,-536(x14) # 8003de8 <__exp_data+0x880>
 8001ef4:	00078513          	addi	x10,x15,0
 8001ef8:	868ff0ef          	jal	x1,8000f60 <__muldf3>
 8001efc:	00151b93          	slli	x23,x10,0x1
 8001f00:	ff300793          	addi	x15,x0,-13
 8001f04:	001bdb93          	srli	x23,x23,0x1
 8001f08:	03679793          	slli	x15,x15,0x36
 8001f0c:	00fb8bb3          	add	x23,x23,x15
 8001f10:	a09ff06f          	jal	x0,8001918 <pow+0x74>
 8001f14:	1ff00413          	addi	x8,x0,511
 8001f18:	03541413          	slli	x8,x8,0x35
 8001f1c:	008a0433          	add	x8,x20,x8
 8001f20:	00040593          	addi	x11,x8,0
 8001f24:	83cff0ef          	jal	x1,8000f60 <__muldf3>
 8001f28:	00050593          	addi	x11,x10,0
 8001f2c:	00050493          	addi	x9,x10,0
 8001f30:	00040513          	addi	x10,x8,0
 8001f34:	dd4fe0ef          	jal	x1,8000508 <__adddf3>
 8001f38:	00050913          	addi	x18,x10,0
 8001f3c:	2a8000ef          	jal	x1,80021e4 <fabs>
 8001f40:	dd8ab983          	ld	x19,-552(x21)
 8001f44:	00098593          	addi	x11,x19,0
 8001f48:	f45fe0ef          	jal	x1,8000e8c <__ledf2>
 8001f4c:	0e054c63          	blt	x10,x0,8002044 <pow+0x7a0>
 8001f50:	08004437          	lui	x8,0x8004
 8001f54:	df843583          	ld	x11,-520(x8) # 8003df8 <__exp_data+0x890>
 8001f58:	00090513          	addi	x10,x18,0
 8001f5c:	804ff0ef          	jal	x1,8000f60 <__muldf3>
 8001f60:	00050593          	addi	x11,x10,0
 8001f64:	df1ff06f          	jal	x0,8001d54 <pow+0x4b0>
 8001f68:	00000b93          	addi	x23,x0,0
 8001f6c:	cb1ff06f          	jal	x0,8001c1c <pow+0x378>
 8001f70:	7ff00793          	addi	x15,x0,2047
 8001f74:	00b7b7b3          	sltu	x15,x15,x11
 8001f78:	00168693          	addi	x13,x13,1
 8001f7c:	0017c793          	xori	x15,x15,1
 8001f80:	00dbb6b3          	sltu	x13,x23,x13
 8001f84:	0ff7f793          	andi	x15,x15,255
 8001f88:	00000513          	addi	x10,x0,0
 8001f8c:	eef694e3          	bne	x13,x15,8001e74 <pow+0x5d0>
 8001f90:	0b013403          	ld	x8,176(x2)
 8001f94:	0b813083          	ld	x1,184(x2)
 8001f98:	0a813483          	ld	x9,168(x2)
 8001f9c:	0a013903          	ld	x18,160(x2)
 8001fa0:	09813983          	ld	x19,152(x2)
 8001fa4:	09013a03          	ld	x20,144(x2)
 8001fa8:	08813a83          	ld	x21,136(x2)
 8001fac:	08013b03          	ld	x22,128(x2)
 8001fb0:	07813b83          	ld	x23,120(x2)
 8001fb4:	07013c03          	ld	x24,112(x2)
 8001fb8:	06813c83          	ld	x25,104(x2)
 8001fbc:	06013d03          	ld	x26,96(x2)
 8001fc0:	05813d83          	ld	x27,88(x2)
 8001fc4:	0c010113          	addi	x2,x2,192
 8001fc8:	3600006f          	jal	x0,8002328 <__math_uflow>
 8001fcc:	0b013403          	ld	x8,176(x2)
 8001fd0:	0b813083          	ld	x1,184(x2)
 8001fd4:	0a813483          	ld	x9,168(x2)
 8001fd8:	0a013903          	ld	x18,160(x2)
 8001fdc:	09813983          	ld	x19,152(x2)
 8001fe0:	09013a03          	ld	x20,144(x2)
 8001fe4:	08813a83          	ld	x21,136(x2)
 8001fe8:	08013b03          	ld	x22,128(x2)
 8001fec:	07813b83          	ld	x23,120(x2)
 8001ff0:	07013c03          	ld	x24,112(x2)
 8001ff4:	06813c83          	ld	x25,104(x2)
 8001ff8:	06013d03          	ld	x26,96(x2)
 8001ffc:	05813d83          	ld	x27,88(x2)
 8002000:	00078513          	addi	x10,x15,0
 8002004:	0c010113          	addi	x2,x2,192
 8002008:	2f00006f          	jal	x0,80022f8 <__math_invalid>
 800200c:	080047b7          	lui	x15,0x8004
 8002010:	dd87b583          	ld	x11,-552(x15) # 8003dd8 <__exp_data+0x870>
 8002014:	d41ff06f          	jal	x0,8001d54 <pow+0x4b0>
 8002018:	dd8ab583          	ld	x11,-552(x21)
 800201c:	00098513          	addi	x10,x19,0
 8002020:	ce8fe0ef          	jal	x1,8000508 <__adddf3>
 8002024:	00050593          	addi	x11,x10,0
 8002028:	d20a06e3          	beq	x20,x0,8001d54 <pow+0x4b0>
 800202c:	03fb1b13          	slli	x22,x22,0x3f
 8002030:	00ab45b3          	xor	x11,x22,x10
 8002034:	d21ff06f          	jal	x0,8001d54 <pow+0x4b0>
 8002038:	00000a13          	addi	x20,x0,0
 800203c:	7ff47713          	andi	x14,x8,2047
 8002040:	de1ff06f          	jal	x0,8001e20 <pow+0x57c>
 8002044:	00000593          	addi	x11,x0,0
 8002048:	00090513          	addi	x10,x18,0
 800204c:	e41fe0ef          	jal	x1,8000e8c <__ledf2>
 8002050:	00055663          	bge	x10,x0,800205c <pow+0x7b8>
 8002054:	080047b7          	lui	x15,0x8004
 8002058:	de07b983          	ld	x19,-544(x15) # 8003de0 <__exp_data+0x878>
 800205c:	00090593          	addi	x11,x18,0
 8002060:	00040513          	addi	x10,x8,0
 8002064:	b54ff0ef          	jal	x1,80013b8 <__subdf3>
 8002068:	00048593          	addi	x11,x9,0
 800206c:	c9cfe0ef          	jal	x1,8000508 <__adddf3>
 8002070:	00050a13          	addi	x20,x10,0
 8002074:	00098593          	addi	x11,x19,0
 8002078:	00090513          	addi	x10,x18,0
 800207c:	c8cfe0ef          	jal	x1,8000508 <__adddf3>
 8002080:	00050593          	addi	x11,x10,0
 8002084:	00050493          	addi	x9,x10,0
 8002088:	00098513          	addi	x10,x19,0
 800208c:	b2cff0ef          	jal	x1,80013b8 <__subdf3>
 8002090:	00090593          	addi	x11,x18,0
 8002094:	c74fe0ef          	jal	x1,8000508 <__adddf3>
 8002098:	000a0593          	addi	x11,x20,0
 800209c:	c6cfe0ef          	jal	x1,8000508 <__adddf3>
 80020a0:	00048593          	addi	x11,x9,0
 80020a4:	c64fe0ef          	jal	x1,8000508 <__adddf3>
 80020a8:	00098593          	addi	x11,x19,0
 80020ac:	b0cff0ef          	jal	x1,80013b8 <__subdf3>
 80020b0:	00000593          	addi	x11,x0,0
 80020b4:	00050913          	addi	x18,x10,0
 80020b8:	d61fe0ef          	jal	x1,8000e18 <__eqdf2>
 80020bc:	00051663          	bne	x10,x0,80020c8 <pow+0x824>
 80020c0:	03f45413          	srli	x8,x8,0x3f
 80020c4:	03f41913          	slli	x18,x8,0x3f
 80020c8:	08004437          	lui	x8,0x8004
 80020cc:	df843583          	ld	x11,-520(x8) # 8003df8 <__exp_data+0x890>
 80020d0:	04b13023          	sd	x11,64(x2)
 80020d4:	04013503          	ld	x10,64(x2)
 80020d8:	e89fe0ef          	jal	x1,8000f60 <__muldf3>
 80020dc:	04a13423          	sd	x10,72(x2)
 80020e0:	e75ff06f          	jal	x0,8001f54 <pow+0x6b0>
 80020e4:	dd87b503          	ld	x10,-552(x15)
 80020e8:	00090593          	addi	x11,x18,0
 80020ec:	accff0ef          	jal	x1,80013b8 <__subdf3>
 80020f0:	00050593          	addi	x11,x10,0
 80020f4:	c61ff06f          	jal	x0,8001d54 <pow+0x4b0>
 80020f8:	f0080ae3          	beq	x16,x0,800200c <pow+0x768>
 80020fc:	00151693          	slli	x13,x10,0x1
 8002100:	08d77e63          	bgeu	x14,x13,800219c <pow+0x8f8>
 8002104:	00090593          	addi	x11,x18,0
 8002108:	00078513          	addi	x10,x15,0
 800210c:	bfcfe0ef          	jal	x1,8000508 <__adddf3>
 8002110:	00050593          	addi	x11,x10,0
 8002114:	c41ff06f          	jal	x0,8001d54 <pow+0x4b0>
 8002118:	00050593          	addi	x11,x10,0
 800211c:	e45fe0ef          	jal	x1,8000f60 <__muldf3>
 8002120:	00050593          	addi	x11,x10,0
 8002124:	040bd063          	bge	x23,x0,8002164 <pow+0x8c0>
 8002128:	7ff47413          	andi	x8,x8,2047
 800212c:	c014071b          	addiw	x14,x8,-1023
 8002130:	03400793          	addi	x15,x0,52
 8002134:	02e7e863          	bltu	x15,x14,8002164 <pow+0x8c0>
 8002138:	43300793          	addi	x15,x0,1075
 800213c:	408787bb          	subw	x15,x15,x8
 8002140:	00f99733          	sll	x14,x19,x15
 8002144:	fff74713          	xori	x14,x14,-1
 8002148:	01277733          	and	x14,x14,x18
 800214c:	00071c63          	bne	x14,x0,8002164 <pow+0x8c0>
 8002150:	00f957b3          	srl	x15,x18,x15
 8002154:	0017f793          	andi	x15,x15,1
 8002158:	00078663          	beq	x15,x0,8002164 <pow+0x8c0>
 800215c:	03f99993          	slli	x19,x19,0x3f
 8002160:	00a9c5b3          	xor	x11,x19,x10
 8002164:	be04d8e3          	bge	x9,x0,8001d54 <pow+0x4b0>
 8002168:	080047b7          	lui	x15,0x8004
 800216c:	dd87b503          	ld	x10,-552(x15) # 8003dd8 <__exp_data+0x870>
 8002170:	875fe0ef          	jal	x1,80009e4 <__divdf3>
 8002174:	02a13c23          	sd	x10,56(x2)
 8002178:	03813583          	ld	x11,56(x2)
 800217c:	bd9ff06f          	jal	x0,8001d54 <pow+0x4b0>
 8002180:	00000a13          	addi	x20,x0,0
 8002184:	c71ff06f          	jal	x0,8001df4 <pow+0x550>
 8002188:	e80802e3          	beq	x16,x0,800200c <pow+0x768>
 800218c:	3ff00713          	addi	x14,x0,1023
 8002190:	03471713          	slli	x14,x14,0x34
 8002194:	00179693          	slli	x13,x15,0x1
 8002198:	e6e78ae3          	beq	x15,x14,800200c <pow+0x768>
 800219c:	fff00713          	addi	x14,x0,-1
 80021a0:	03571713          	slli	x14,x14,0x35
 80021a4:	f6e810e3          	bne	x16,x14,8002104 <pow+0x860>
 80021a8:	3ff00793          	addi	x15,x0,1023
 80021ac:	03579793          	slli	x15,x15,0x35
 80021b0:	e4f68ee3          	beq	x13,x15,800200c <pow+0x768>
 80021b4:	00f6b7b3          	sltu	x15,x13,x15
 80021b8:	0017c793          	xori	x15,x15,1
 80021bc:	fff94713          	xori	x14,x18,-1
 80021c0:	0ff7f793          	andi	x15,x15,255
 80021c4:	03f75713          	srli	x14,x14,0x3f
 80021c8:	00000593          	addi	x11,x0,0
 80021cc:	b8e794e3          	bne	x15,x14,8001d54 <pow+0x4b0>
 80021d0:	00090593          	addi	x11,x18,0
 80021d4:	00090513          	addi	x10,x18,0
 80021d8:	d89fe0ef          	jal	x1,8000f60 <__muldf3>
 80021dc:	00050593          	addi	x11,x10,0
 80021e0:	b75ff06f          	jal	x0,8001d54 <pow+0x4b0>

00000000080021e4 <fabs>:
 80021e4:	00151513          	slli	x10,x10,0x1
 80021e8:	00155513          	srli	x10,x10,0x1
 80021ec:	00008067          	jalr	x0,0(x1)

00000000080021f0 <memset>:
 80021f0:	10060263          	beq	x12,x0,80022f4 <memset+0x104>
 80021f4:	0ff5f793          	andi	x15,x11,255
 80021f8:	00f50023          	sb	x15,0(x10)
 80021fc:	00c50733          	add	x14,x10,x12
 8002200:	fef70fa3          	sb	x15,-1(x14)
 8002204:	00200693          	addi	x13,x0,2
 8002208:	0ec6f663          	bgeu	x13,x12,80022f4 <memset+0x104>
 800220c:	00f500a3          	sb	x15,1(x10)
 8002210:	00f50123          	sb	x15,2(x10)
 8002214:	fef70f23          	sb	x15,-2(x14)
 8002218:	fef70ea3          	sb	x15,-3(x14)
 800221c:	00600693          	addi	x13,x0,6
 8002220:	0cc6fa63          	bgeu	x13,x12,80022f4 <memset+0x104>
 8002224:	00f501a3          	sb	x15,3(x10)
 8002228:	fef70e23          	sb	x15,-4(x14)
 800222c:	00800693          	addi	x13,x0,8
 8002230:	0cc6f263          	bgeu	x13,x12,80022f4 <memset+0x104>
 8002234:	0ff5f593          	andi	x11,x11,255
 8002238:	0085979b          	slliw	x15,x11,0x8
 800223c:	40a00733          	sub	x14,x0,x10
 8002240:	00377713          	andi	x14,x14,3
 8002244:	00b787bb          	addw	x15,x15,x11
 8002248:	40e60633          	sub	x12,x12,x14
 800224c:	0107959b          	slliw	x11,x15,0x10
 8002250:	00b787bb          	addw	x15,x15,x11
 8002254:	00e50733          	add	x14,x10,x14
 8002258:	ffc67613          	andi	x12,x12,-4
 800225c:	00f72023          	sw	x15,0(x14)
 8002260:	00c705b3          	add	x11,x14,x12
 8002264:	fef5ae23          	sw	x15,-4(x11)
 8002268:	08c6f663          	bgeu	x13,x12,80022f4 <memset+0x104>
 800226c:	00f72223          	sw	x15,4(x14)
 8002270:	00f72423          	sw	x15,8(x14)
 8002274:	fef5aa23          	sw	x15,-12(x11)
 8002278:	fef5ac23          	sw	x15,-8(x11)
 800227c:	01800693          	addi	x13,x0,24
 8002280:	06c6fa63          	bgeu	x13,x12,80022f4 <memset+0x104>
 8002284:	00477813          	andi	x16,x14,4
 8002288:	00f72623          	sw	x15,12(x14)
 800228c:	00f72823          	sw	x15,16(x14)
 8002290:	00f72a23          	sw	x15,20(x14)
 8002294:	00f72c23          	sw	x15,24(x14)
 8002298:	01880813          	addi	x16,x16,24
 800229c:	02079893          	slli	x17,x15,0x20
 80022a0:	02079693          	slli	x13,x15,0x20
 80022a4:	0208d893          	srli	x17,x17,0x20
 80022a8:	fef5a223          	sw	x15,-28(x11)
 80022ac:	fef5a423          	sw	x15,-24(x11)
 80022b0:	fef5a623          	sw	x15,-20(x11)
 80022b4:	fef5a823          	sw	x15,-16(x11)
 80022b8:	41060633          	sub	x12,x12,x16
 80022bc:	01f00793          	addi	x15,x0,31
 80022c0:	01070733          	add	x14,x14,x16
 80022c4:	011686b3          	add	x13,x13,x17
 80022c8:	02c7f663          	bgeu	x15,x12,80022f4 <memset+0x104>
 80022cc:	fe060613          	addi	x12,x12,-32
 80022d0:	fe067793          	andi	x15,x12,-32
 80022d4:	02078793          	addi	x15,x15,32
 80022d8:	00f707b3          	add	x15,x14,x15
 80022dc:	00d73023          	sd	x13,0(x14)
 80022e0:	00d73423          	sd	x13,8(x14)
 80022e4:	00d73823          	sd	x13,16(x14)
 80022e8:	00d73c23          	sd	x13,24(x14)
 80022ec:	02070713          	addi	x14,x14,32
 80022f0:	fef716e3          	bne	x14,x15,80022dc <memset+0xec>
 80022f4:	00008067          	jalr	x0,0(x1)

00000000080022f8 <__math_invalid>:
 80022f8:	ff010113          	addi	x2,x2,-16
 80022fc:	00050593          	addi	x11,x10,0
 8002300:	00113423          	sd	x1,8(x2)
 8002304:	8b4ff0ef          	jal	x1,80013b8 <__subdf3>
 8002308:	00050593          	addi	x11,x10,0
 800230c:	ed8fe0ef          	jal	x1,80009e4 <__divdf3>
 8002310:	00813083          	ld	x1,8(x2)
 8002314:	01010113          	addi	x2,x2,16
 8002318:	00008067          	jalr	x0,0(x1)

000000000800231c <__math_oflow>:
 800231c:	080047b7          	lui	x15,0x8004
 8002320:	e007b583          	ld	x11,-512(x15) # 8003e00 <__exp_data+0x898>
 8002324:	0100006f          	jal	x0,8002334 <__math_xflow>

0000000008002328 <__math_uflow>:
 8002328:	080047b7          	lui	x15,0x8004
 800232c:	e087b583          	ld	x11,-504(x15) # 8003e08 <__exp_data+0x8a0>
 8002330:	0040006f          	jal	x0,8002334 <__math_xflow>

0000000008002334 <__math_xflow>:
 8002334:	fe010113          	addi	x2,x2,-32
 8002338:	00113c23          	sd	x1,24(x2)
 800233c:	00058793          	addi	x15,x11,0
 8002340:	00058713          	addi	x14,x11,0
 8002344:	00050863          	beq	x10,x0,8002354 <__math_xflow+0x20>
 8002348:	fff00713          	addi	x14,x0,-1
 800234c:	03f71713          	slli	x14,x14,0x3f
 8002350:	00e5c733          	xor	x14,x11,x14
 8002354:	00e13423          	sd	x14,8(x2)
 8002358:	00813583          	ld	x11,8(x2)
 800235c:	00078513          	addi	x10,x15,0
 8002360:	c01fe0ef          	jal	x1,8000f60 <__muldf3>
 8002364:	01813083          	ld	x1,24(x2)
 8002368:	02010113          	addi	x2,x2,32
 800236c:	00008067          	jalr	x0,0(x1)
