
test_4.elf:     file format elf64-littleriscv


Disassembly of section .text:

0000000008000000 <DET>:
 8000000:	fd010113          	addi	x2,x2,-48
 8000004:	02113423          	sd	x1,40(x2)
 8000008:	02813023          	sd	x8,32(x2)
 800000c:	03010413          	addi	x8,x2,48
 8000010:	fca43c23          	sd	x10,-40(x8)
 8000014:	00058793          	addi	x15,x11,0
 8000018:	fcf42a23          	sw	x15,-44(x8)
 800001c:	fe042423          	sw	x0,-24(x8)
 8000020:	fd442783          	lw	x15,-44(x8)
 8000024:	0007871b          	addiw	x14,x15,0
 8000028:	00100793          	addi	x15,x0,1
 800002c:	00f71863          	bne	x14,x15,800003c <DET+0x3c>
 8000030:	fd843783          	ld	x15,-40(x8)
 8000034:	0007a783          	lw	x15,0(x15)
 8000038:	0f00006f          	jal	x0,8000128 <DET+0x128>
 800003c:	fd442783          	lw	x15,-44(x8)
 8000040:	0007871b          	addiw	x14,x15,0
 8000044:	00100793          	addi	x15,x0,1
 8000048:	0ce7de63          	bge	x15,x14,8000124 <DET+0x124>
 800004c:	fe042623          	sw	x0,-20(x8)
 8000050:	0bc0006f          	jal	x0,800010c <DET+0x10c>
 8000054:	fd442703          	lw	x14,-44(x8)
 8000058:	fec42783          	lw	x15,-20(x8)
 800005c:	00070613          	addi	x12,x14,0
 8000060:	00078593          	addi	x11,x15,0
 8000064:	fd843503          	ld	x10,-40(x8)
 8000068:	0d4000ef          	jal	x1,800013c <Minor>
 800006c:	00050793          	addi	x15,x10,0
 8000070:	fef42223          	sw	x15,-28(x8)
 8000074:	fec42783          	lw	x15,-20(x8)
 8000078:	0027879b          	addiw	x15,x15,2
 800007c:	0007879b          	addiw	x15,x15,0
 8000080:	00078513          	addi	x10,x15,0
 8000084:	368000ef          	jal	x1,80003ec <__floatsidf>
 8000088:	00050713          	addi	x14,x10,0
 800008c:	080027b7          	lui	x15,0x8002
 8000090:	3707b783          	ld	x15,880(x15) # 8002370 <_etext>
 8000094:	00070593          	addi	x11,x14,0
 8000098:	00078513          	addi	x10,x15,0
 800009c:	009010ef          	jal	x1,80018a4 <pow>
 80000a0:	00050793          	addi	x15,x10,0
 80000a4:	00078513          	addi	x10,x15,0
 80000a8:	2dc000ef          	jal	x1,8000384 <__fixdfsi>
 80000ac:	00050793          	addi	x15,x10,0
 80000b0:	0007869b          	addiw	x13,x15,0
 80000b4:	fd843703          	ld	x14,-40(x8)
 80000b8:	fec42783          	lw	x15,-20(x8)
 80000bc:	00279793          	slli	x15,x15,0x2
 80000c0:	00f707b3          	add	x15,x14,x15
 80000c4:	0007a783          	lw	x15,0(x15)
 80000c8:	00078593          	addi	x11,x15,0
 80000cc:	00068513          	addi	x10,x13,0
 80000d0:	3a4000ef          	jal	x1,8000474 <__muldi3>
 80000d4:	00050793          	addi	x15,x10,0
 80000d8:	0007879b          	addiw	x15,x15,0
 80000dc:	fe442703          	lw	x14,-28(x8)
 80000e0:	00070593          	addi	x11,x14,0
 80000e4:	00078513          	addi	x10,x15,0
 80000e8:	38c000ef          	jal	x1,8000474 <__muldi3>
 80000ec:	00050793          	addi	x15,x10,0
 80000f0:	0007879b          	addiw	x15,x15,0
 80000f4:	fe842703          	lw	x14,-24(x8)
 80000f8:	00f707bb          	addw	x15,x14,x15
 80000fc:	fef42423          	sw	x15,-24(x8)
 8000100:	fec42783          	lw	x15,-20(x8)
 8000104:	0017879b          	addiw	x15,x15,1
 8000108:	fef42623          	sw	x15,-20(x8)
 800010c:	fec42783          	lw	x15,-20(x8)
 8000110:	00078713          	addi	x14,x15,0
 8000114:	fd442783          	lw	x15,-44(x8)
 8000118:	0007071b          	addiw	x14,x14,0
 800011c:	0007879b          	addiw	x15,x15,0
 8000120:	f2f74ae3          	blt	x14,x15,8000054 <DET+0x54>
 8000124:	fe842783          	lw	x15,-24(x8)
 8000128:	00078513          	addi	x10,x15,0
 800012c:	02813083          	ld	x1,40(x2)
 8000130:	02013403          	ld	x8,32(x2)
 8000134:	03010113          	addi	x2,x2,48
 8000138:	00008067          	jalr	x0,0(x1)

000000000800013c <Minor>:
 800013c:	99010113          	addi	x2,x2,-1648
 8000140:	66113423          	sd	x1,1640(x2)
 8000144:	66813023          	sd	x8,1632(x2)
 8000148:	67010413          	addi	x8,x2,1648
 800014c:	98a43c23          	sd	x10,-1640(x8)
 8000150:	00058793          	addi	x15,x11,0
 8000154:	00060713          	addi	x14,x12,0
 8000158:	98f42a23          	sw	x15,-1644(x8)
 800015c:	00070793          	addi	x15,x14,0
 8000160:	98f42823          	sw	x15,-1648(x8)
 8000164:	fe042623          	sw	x0,-20(x8)
 8000168:	1380006f          	jal	x0,80002a0 <Minor+0x164>
 800016c:	fe042423          	sw	x0,-24(x8)
 8000170:	10c0006f          	jal	x0,800027c <Minor+0x140>
 8000174:	fe842783          	lw	x15,-24(x8)
 8000178:	00078713          	addi	x14,x15,0
 800017c:	99442783          	lw	x15,-1644(x8)
 8000180:	0007071b          	addiw	x14,x14,0
 8000184:	0007879b          	addiw	x15,x15,0
 8000188:	06f75463          	bge	x14,x15,80001f0 <Minor+0xb4>
 800018c:	fec42783          	lw	x15,-20(x8)
 8000190:	00178713          	addi	x14,x15,1
 8000194:	00070793          	addi	x15,x14,0
 8000198:	00279793          	slli	x15,x15,0x2
 800019c:	00e787b3          	add	x15,x15,x14
 80001a0:	00479793          	slli	x15,x15,0x4
 80001a4:	00078713          	addi	x14,x15,0
 80001a8:	99843783          	ld	x15,-1640(x8)
 80001ac:	00e78733          	add	x14,x15,x14
 80001b0:	fe842783          	lw	x15,-24(x8)
 80001b4:	00279793          	slli	x15,x15,0x2
 80001b8:	00f707b3          	add	x15,x14,x15
 80001bc:	0007a683          	lw	x13,0(x15)
 80001c0:	fe842603          	lw	x12,-24(x8)
 80001c4:	fec42703          	lw	x14,-20(x8)
 80001c8:	00070793          	addi	x15,x14,0
 80001cc:	00279793          	slli	x15,x15,0x2
 80001d0:	00e787b3          	add	x15,x15,x14
 80001d4:	00279793          	slli	x15,x15,0x2
 80001d8:	00c787b3          	add	x15,x15,x12
 80001dc:	00279793          	slli	x15,x15,0x2
 80001e0:	ff078793          	addi	x15,x15,-16
 80001e4:	008787b3          	add	x15,x15,x8
 80001e8:	9ad7ac23          	sw	x13,-1608(x15)
 80001ec:	0840006f          	jal	x0,8000270 <Minor+0x134>
 80001f0:	fe842783          	lw	x15,-24(x8)
 80001f4:	00078713          	addi	x14,x15,0
 80001f8:	99442783          	lw	x15,-1644(x8)
 80001fc:	0007071b          	addiw	x14,x14,0
 8000200:	0007879b          	addiw	x15,x15,0
 8000204:	06f74663          	blt	x14,x15,8000270 <Minor+0x134>
 8000208:	fec42783          	lw	x15,-20(x8)
 800020c:	00178713          	addi	x14,x15,1
 8000210:	00070793          	addi	x15,x14,0
 8000214:	00279793          	slli	x15,x15,0x2
 8000218:	00e787b3          	add	x15,x15,x14
 800021c:	00479793          	slli	x15,x15,0x4
 8000220:	00078713          	addi	x14,x15,0
 8000224:	99843783          	ld	x15,-1640(x8)
 8000228:	00e78733          	add	x14,x15,x14
 800022c:	fe842783          	lw	x15,-24(x8)
 8000230:	0017879b          	addiw	x15,x15,1
 8000234:	0007879b          	addiw	x15,x15,0
 8000238:	00279793          	slli	x15,x15,0x2
 800023c:	00f707b3          	add	x15,x14,x15
 8000240:	0007a683          	lw	x13,0(x15)
 8000244:	fe842603          	lw	x12,-24(x8)
 8000248:	fec42703          	lw	x14,-20(x8)
 800024c:	00070793          	addi	x15,x14,0
 8000250:	00279793          	slli	x15,x15,0x2
 8000254:	00e787b3          	add	x15,x15,x14
 8000258:	00279793          	slli	x15,x15,0x2
 800025c:	00c787b3          	add	x15,x15,x12
 8000260:	00279793          	slli	x15,x15,0x2
 8000264:	ff078793          	addi	x15,x15,-16
 8000268:	008787b3          	add	x15,x15,x8
 800026c:	9ad7ac23          	sw	x13,-1608(x15)
 8000270:	fe842783          	lw	x15,-24(x8)
 8000274:	0017879b          	addiw	x15,x15,1
 8000278:	fef42423          	sw	x15,-24(x8)
 800027c:	99042783          	lw	x15,-1648(x8)
 8000280:	fff7879b          	addiw	x15,x15,-1
 8000284:	0007871b          	addiw	x14,x15,0
 8000288:	fe842783          	lw	x15,-24(x8)
 800028c:	0007879b          	addiw	x15,x15,0
 8000290:	eee7c2e3          	blt	x15,x14,8000174 <Minor+0x38>
 8000294:	fec42783          	lw	x15,-20(x8)
 8000298:	0017879b          	addiw	x15,x15,1
 800029c:	fef42623          	sw	x15,-20(x8)
 80002a0:	99042783          	lw	x15,-1648(x8)
 80002a4:	fff7879b          	addiw	x15,x15,-1
 80002a8:	0007871b          	addiw	x14,x15,0
 80002ac:	fec42783          	lw	x15,-20(x8)
 80002b0:	0007879b          	addiw	x15,x15,0
 80002b4:	eae7cce3          	blt	x15,x14,800016c <Minor+0x30>
 80002b8:	99042783          	lw	x15,-1648(x8)
 80002bc:	fff7879b          	addiw	x15,x15,-1
 80002c0:	0007871b          	addiw	x14,x15,0
 80002c4:	9a840793          	addi	x15,x8,-1624
 80002c8:	00070593          	addi	x11,x14,0
 80002cc:	00078513          	addi	x10,x15,0
 80002d0:	d31ff0ef          	jal	x1,8000000 <DET>
 80002d4:	00050793          	addi	x15,x10,0
 80002d8:	00078513          	addi	x10,x15,0
 80002dc:	66813083          	ld	x1,1640(x2)
 80002e0:	66013403          	ld	x8,1632(x2)
 80002e4:	67010113          	addi	x2,x2,1648
 80002e8:	00008067          	jalr	x0,0(x1)

00000000080002ec <main>:
 80002ec:	9b010113          	addi	x2,x2,-1616
 80002f0:	64113423          	sd	x1,1608(x2)
 80002f4:	64813023          	sd	x8,1600(x2)
 80002f8:	65010413          	addi	x8,x2,1616
 80002fc:	9b040793          	addi	x15,x8,-1616
 8000300:	64000713          	addi	x14,x0,1600
 8000304:	00070613          	addi	x12,x14,0
 8000308:	00000593          	addi	x11,x0,0
 800030c:	00078513          	addi	x10,x15,0
 8000310:	6e1010ef          	jal	x1,80021f0 <memset>
 8000314:	00100793          	addi	x15,x0,1
 8000318:	9af42823          	sw	x15,-1616(x8)
 800031c:	00100793          	addi	x15,x0,1
 8000320:	9af42a23          	sw	x15,-1612(x8)
 8000324:	00400793          	addi	x15,x0,4
 8000328:	9af42c23          	sw	x15,-1608(x8)
 800032c:	00500793          	addi	x15,x0,5
 8000330:	a0f42023          	sw	x15,-1536(x8)
 8000334:	00100793          	addi	x15,x0,1
 8000338:	a0f42223          	sw	x15,-1532(x8)
 800033c:	00400793          	addi	x15,x0,4
 8000340:	a0f42423          	sw	x15,-1528(x8)
 8000344:	00900793          	addi	x15,x0,9
 8000348:	a4f42823          	sw	x15,-1456(x8)
 800034c:	00800793          	addi	x15,x0,8
 8000350:	a4f42a23          	sw	x15,-1452(x8)
 8000354:	00500793          	addi	x15,x0,5
 8000358:	a4f42c23          	sw	x15,-1448(x8)
 800035c:	9b040793          	addi	x15,x8,-1616
 8000360:	00300593          	addi	x11,x0,3
 8000364:	00078513          	addi	x10,x15,0
 8000368:	c99ff0ef          	jal	x1,8000000 <DET>
 800036c:	00050793          	addi	x15,x10,0
 8000370:	00078513          	addi	x10,x15,0
 8000374:	64813083          	ld	x1,1608(x2)
 8000378:	64013403          	ld	x8,1600(x2)
 800037c:	65010113          	addi	x2,x2,1616
 8000380:	00008067          	jalr	x0,0(x1)

0000000008000384 <__fixdfsi>:
 8000384:	03455713          	srli	x14,x10,0x34
 8000388:	00c51793          	slli	x15,x10,0xc
 800038c:	7ff77713          	andi	x14,x14,2047
 8000390:	3fe00693          	addi	x13,x0,1022
 8000394:	00c7d793          	srli	x15,x15,0xc
 8000398:	03f55513          	srli	x10,x10,0x3f
 800039c:	00e6de63          	bge	x13,x14,80003b8 <__fixdfsi+0x34>
 80003a0:	41d00693          	addi	x13,x0,1053
 80003a4:	00e6de63          	bge	x13,x14,80003c0 <__fixdfsi+0x3c>
 80003a8:	800007b7          	lui	x15,0x80000
 80003ac:	fff7c793          	xori	x15,x15,-1
 80003b0:	00a7853b          	addw	x10,x15,x10
 80003b4:	00008067          	jalr	x0,0(x1)
 80003b8:	00000513          	addi	x10,x0,0
 80003bc:	00008067          	jalr	x0,0(x1)
 80003c0:	00100693          	addi	x13,x0,1
 80003c4:	03469693          	slli	x13,x13,0x34
 80003c8:	00d7e7b3          	or	x15,x15,x13
 80003cc:	43300693          	addi	x13,x0,1075
 80003d0:	40e6873b          	subw	x14,x13,x14
 80003d4:	00e7d7b3          	srl	x15,x15,x14
 80003d8:	00050663          	beq	x10,x0,80003e4 <__fixdfsi+0x60>
 80003dc:	40f0053b          	subw	x10,x0,x15
 80003e0:	00008067          	jalr	x0,0(x1)
 80003e4:	0007851b          	addiw	x10,x15,0 # ffffffff80000000 <_estack+0xffffffff5c000000>
 80003e8:	00008067          	jalr	x0,0(x1)

00000000080003ec <__floatsidf>:
 80003ec:	fe010113          	addi	x2,x2,-32
 80003f0:	00113c23          	sd	x1,24(x2)
 80003f4:	00813823          	sd	x8,16(x2)
 80003f8:	00913423          	sd	x9,8(x2)
 80003fc:	06050063          	beq	x10,x0,800045c <__floatsidf+0x70>
 8000400:	0005071b          	addiw	x14,x10,0
 8000404:	01f5549b          	srliw	x9,x10,0x1f
 8000408:	06054263          	blt	x10,x0,800046c <__floatsidf+0x80>
 800040c:	02071413          	slli	x8,x14,0x20
 8000410:	02045413          	srli	x8,x8,0x20
 8000414:	00040513          	addi	x10,x8,0
 8000418:	080000ef          	jal	x1,8000498 <__clzdi2>
 800041c:	ff55079b          	addiw	x15,x10,-11
 8000420:	00f41733          	sll	x14,x8,x15
 8000424:	43e00793          	addi	x15,x0,1086
 8000428:	00c71713          	slli	x14,x14,0xc
 800042c:	40a787bb          	subw	x15,x15,x10
 8000430:	00c75713          	srli	x14,x14,0xc
 8000434:	7ff7f793          	andi	x15,x15,2047
 8000438:	01813083          	ld	x1,24(x2)
 800043c:	01013403          	ld	x8,16(x2)
 8000440:	03479793          	slli	x15,x15,0x34
 8000444:	03f49513          	slli	x10,x9,0x3f
 8000448:	00e7e7b3          	or	x15,x15,x14
 800044c:	00813483          	ld	x9,8(x2)
 8000450:	00a7e533          	or	x10,x15,x10
 8000454:	02010113          	addi	x2,x2,32
 8000458:	00008067          	jalr	x0,0(x1)
 800045c:	00000493          	addi	x9,x0,0
 8000460:	00000793          	addi	x15,x0,0
 8000464:	00000713          	addi	x14,x0,0
 8000468:	fd1ff06f          	jal	x0,8000438 <__floatsidf+0x4c>
 800046c:	40e0073b          	subw	x14,x0,x14
 8000470:	f9dff06f          	jal	x0,800040c <__floatsidf+0x20>

0000000008000474 <__muldi3>:
 8000474:	00050613          	addi	x12,x10,0
 8000478:	00000513          	addi	x10,x0,0
 800047c:	0015f693          	andi	x13,x11,1
 8000480:	00068463          	beq	x13,x0,8000488 <__muldi3+0x14>
 8000484:	00c50533          	add	x10,x10,x12
 8000488:	0015d593          	srli	x11,x11,0x1
 800048c:	00161613          	slli	x12,x12,0x1
 8000490:	fe0596e3          	bne	x11,x0,800047c <__muldi3+0x8>
 8000494:	00008067          	jalr	x0,0(x1)

0000000008000498 <__clzdi2>:
 8000498:	03855793          	srli	x15,x10,0x38
 800049c:	06079063          	bne	x15,x0,80004fc <__clzdi2+0x64>
 80004a0:	03800793          	addi	x15,x0,56
 80004a4:	0080006f          	jal	x0,80004ac <__clzdi2+0x14>
 80004a8:	02069863          	bne	x13,x0,80004d8 <__clzdi2+0x40>
 80004ac:	ff878793          	addi	x15,x15,-8
 80004b0:	00f55733          	srl	x14,x10,x15
 80004b4:	0ff77693          	andi	x13,x14,255
 80004b8:	fe0798e3          	bne	x15,x0,80004a8 <__clzdi2+0x10>
 80004bc:	04000693          	addi	x13,x0,64
 80004c0:	18000797          	auipc	x15,0x18000
 80004c4:	b487b783          	ld	x15,-1208(x15) # 20000008 <_GLOBAL_OFFSET_TABLE_+0x8>
 80004c8:	00a787b3          	add	x15,x15,x10
 80004cc:	0007c503          	lbu	x10,0(x15)
 80004d0:	40a6853b          	subw	x10,x13,x10
 80004d4:	00008067          	jalr	x0,0(x1)
 80004d8:	04000693          	addi	x13,x0,64
 80004dc:	40f686b3          	sub	x13,x13,x15
 80004e0:	00070513          	addi	x10,x14,0
 80004e4:	18000797          	auipc	x15,0x18000
 80004e8:	b247b783          	ld	x15,-1244(x15) # 20000008 <_GLOBAL_OFFSET_TABLE_+0x8>
 80004ec:	00a787b3          	add	x15,x15,x10
 80004f0:	0007c503          	lbu	x10,0(x15)
 80004f4:	40a6853b          	subw	x10,x13,x10
 80004f8:	00008067          	jalr	x0,0(x1)
 80004fc:	00078513          	addi	x10,x15,0
 8000500:	00800693          	addi	x13,x0,8
 8000504:	fbdff06f          	jal	x0,80004c0 <__clzdi2+0x28>

0000000008000508 <__adddf3>:
 8000508:	fff00613          	addi	x12,x0,-1
 800050c:	fe010113          	addi	x2,x2,-32
 8000510:	00c65713          	srli	x14,x12,0xc
 8000514:	00a777b3          	and	x15,x14,x10
 8000518:	0345d693          	srli	x13,x11,0x34
 800051c:	00b77733          	and	x14,x14,x11
 8000520:	00813823          	sd	x8,16(x2)
 8000524:	00913423          	sd	x9,8(x2)
 8000528:	03455413          	srli	x8,x10,0x34
 800052c:	00113c23          	sd	x1,24(x2)
 8000530:	01213023          	sd	x18,0(x2)
 8000534:	03f55493          	srli	x9,x10,0x3f
 8000538:	03f5d593          	srli	x11,x11,0x3f
 800053c:	7ff47413          	andi	x8,x8,2047
 8000540:	00379793          	slli	x15,x15,0x3
 8000544:	7ff6f693          	andi	x13,x13,2047
 8000548:	00371713          	slli	x14,x14,0x3
 800054c:	10b48463          	beq	x9,x11,8000654 <__adddf3+0x14c>
 8000550:	40d4053b          	subw	x10,x8,x13
 8000554:	0005061b          	addiw	x12,x10,0
 8000558:	0ac05c63          	bge	x0,x12,8000610 <__adddf3+0x108>
 800055c:	12068863          	beq	x13,x0,800068c <__adddf3+0x184>
 8000560:	7ff00693          	addi	x13,x0,2047
 8000564:	0cd40a63          	beq	x8,x13,8000638 <__adddf3+0x130>
 8000568:	00100693          	addi	x13,x0,1
 800056c:	03769693          	slli	x13,x13,0x37
 8000570:	00d76733          	or	x14,x14,x13
 8000574:	03800593          	addi	x11,x0,56
 8000578:	00100693          	addi	x13,x0,1
 800057c:	00c5ce63          	blt	x11,x12,8000598 <__adddf3+0x90>
 8000580:	04000693          	addi	x13,x0,64
 8000584:	40c686bb          	subw	x13,x13,x12
 8000588:	00d716b3          	sll	x13,x14,x13
 800058c:	00c75633          	srl	x12,x14,x12
 8000590:	00d036b3          	sltu	x13,x0,x13
 8000594:	00d666b3          	or	x13,x12,x13
 8000598:	40d787b3          	sub	x15,x15,x13
 800059c:	0377d713          	srli	x14,x15,0x37
 80005a0:	00177713          	andi	x14,x14,1
 80005a4:	16071e63          	bne	x14,x0,8000720 <__adddf3+0x218>
 80005a8:	0077f713          	andi	x14,x15,7
 80005ac:	14070c63          	beq	x14,x0,8000704 <__adddf3+0x1fc>
 80005b0:	00f7f713          	andi	x14,x15,15
 80005b4:	00400693          	addi	x13,x0,4
 80005b8:	00d70463          	beq	x14,x13,80005c0 <__adddf3+0xb8>
 80005bc:	00478793          	addi	x15,x15,4
 80005c0:	0377d713          	srli	x14,x15,0x37
 80005c4:	00177713          	andi	x14,x14,1
 80005c8:	12070e63          	beq	x14,x0,8000704 <__adddf3+0x1fc>
 80005cc:	00140413          	addi	x8,x8,1
 80005d0:	7ff00713          	addi	x14,x0,2047
 80005d4:	00048813          	addi	x16,x9,0
 80005d8:	12e40e63          	beq	x8,x14,8000714 <__adddf3+0x20c>
 80005dc:	00979713          	slli	x14,x15,0x9
 80005e0:	7ff47513          	andi	x10,x8,2047
 80005e4:	00c75713          	srli	x14,x14,0xc
 80005e8:	01813083          	ld	x1,24(x2)
 80005ec:	01013403          	ld	x8,16(x2)
 80005f0:	03451513          	slli	x10,x10,0x34
 80005f4:	00e56533          	or	x10,x10,x14
 80005f8:	03f81793          	slli	x15,x16,0x3f
 80005fc:	00813483          	ld	x9,8(x2)
 8000600:	00013903          	ld	x18,0(x2)
 8000604:	00f56533          	or	x10,x10,x15
 8000608:	02010113          	addi	x2,x2,32
 800060c:	00008067          	jalr	x0,0(x1)
 8000610:	08060c63          	beq	x12,x0,80006a8 <__adddf3+0x1a0>
 8000614:	1e041463          	bne	x8,x0,80007fc <__adddf3+0x2f4>
 8000618:	0e078063          	beq	x15,x0,80006f8 <__adddf3+0x1f0>
 800061c:	fff54513          	xori	x10,x10,-1
 8000620:	0005051b          	addiw	x10,x10,0
 8000624:	34050c63          	beq	x10,x0,800097c <__adddf3+0x474>
 8000628:	7ff00613          	addi	x12,x0,2047
 800062c:	1ec69463          	bne	x13,x12,8000814 <__adddf3+0x30c>
 8000630:	00058493          	addi	x9,x11,0
 8000634:	00070793          	addi	x15,x14,0
 8000638:	0037d793          	srli	x15,x15,0x3
 800063c:	16078e63          	beq	x15,x0,80007b8 <__adddf3+0x2b0>
 8000640:	00100713          	addi	x14,x0,1
 8000644:	00000813          	addi	x16,x0,0
 8000648:	7ff00513          	addi	x10,x0,2047
 800064c:	03371713          	slli	x14,x14,0x33
 8000650:	f99ff06f          	jal	x0,80005e8 <__adddf3+0xe0>
 8000654:	40d4053b          	subw	x10,x8,x13
 8000658:	0005059b          	addiw	x11,x10,0
 800065c:	00048813          	addi	x16,x9,0
 8000660:	10b05663          	bge	x0,x11,800076c <__adddf3+0x264>
 8000664:	06068c63          	beq	x13,x0,80006dc <__adddf3+0x1d4>
 8000668:	7ff00693          	addi	x13,x0,2047
 800066c:	fcd406e3          	beq	x8,x13,8000638 <__adddf3+0x130>
 8000670:	00100693          	addi	x13,x0,1
 8000674:	03769693          	slli	x13,x13,0x37
 8000678:	00d76733          	or	x14,x14,x13
 800067c:	03800693          	addi	x13,x0,56
 8000680:	1eb6d663          	bge	x13,x11,800086c <__adddf3+0x364>
 8000684:	00178793          	addi	x15,x15,1
 8000688:	f29ff06f          	jal	x0,80005b0 <__adddf3+0xa8>
 800068c:	06070c63          	beq	x14,x0,8000704 <__adddf3+0x1fc>
 8000690:	fff5061b          	addiw	x12,x10,-1
 8000694:	28060e63          	beq	x12,x0,8000930 <__adddf3+0x428>
 8000698:	7ff00693          	addi	x13,x0,2047
 800069c:	ecd41ce3          	bne	x8,x13,8000574 <__adddf3+0x6c>
 80006a0:	0037d793          	srli	x15,x15,0x3
 80006a4:	f99ff06f          	jal	x0,800063c <__adddf3+0x134>
 80006a8:	00140693          	addi	x13,x8,1
 80006ac:	7fe6f693          	andi	x13,x13,2046
 80006b0:	18069c63          	bne	x13,x0,8000848 <__adddf3+0x340>
 80006b4:	24041c63          	bne	x8,x0,800090c <__adddf3+0x404>
 80006b8:	2a078a63          	beq	x15,x0,800096c <__adddf3+0x464>
 80006bc:	12070263          	beq	x14,x0,80007e0 <__adddf3+0x2d8>
 80006c0:	40e78633          	sub	x12,x15,x14
 80006c4:	03765693          	srli	x13,x12,0x37
 80006c8:	0016f693          	andi	x13,x13,1
 80006cc:	30068463          	beq	x13,x0,80009d4 <__adddf3+0x4cc>
 80006d0:	40f707b3          	sub	x15,x14,x15
 80006d4:	00058493          	addi	x9,x11,0
 80006d8:	0880006f          	jal	x0,8000760 <__adddf3+0x258>
 80006dc:	02070463          	beq	x14,x0,8000704 <__adddf3+0x1fc>
 80006e0:	fff5059b          	addiw	x11,x10,-1
 80006e4:	24058263          	beq	x11,x0,8000928 <__adddf3+0x420>
 80006e8:	7ff00693          	addi	x13,x0,2047
 80006ec:	f8d418e3          	bne	x8,x13,800067c <__adddf3+0x174>
 80006f0:	0037d793          	srli	x15,x15,0x3
 80006f4:	f49ff06f          	jal	x0,800063c <__adddf3+0x134>
 80006f8:	00068413          	addi	x8,x13,0
 80006fc:	00058493          	addi	x9,x11,0
 8000700:	00070793          	addi	x15,x14,0
 8000704:	7ff00713          	addi	x14,x0,2047
 8000708:	0037d793          	srli	x15,x15,0x3
 800070c:	f2e408e3          	beq	x8,x14,800063c <__adddf3+0x134>
 8000710:	0d80006f          	jal	x0,80007e8 <__adddf3+0x2e0>
 8000714:	7ff00513          	addi	x10,x0,2047
 8000718:	00000713          	addi	x14,x0,0
 800071c:	ecdff06f          	jal	x0,80005e8 <__adddf3+0xe0>
 8000720:	00979913          	slli	x18,x15,0x9
 8000724:	00995913          	srli	x18,x18,0x9
 8000728:	00090513          	addi	x10,x18,0
 800072c:	d6dff0ef          	jal	x1,8000498 <__clzdi2>
 8000730:	ff85071b          	addiw	x14,x10,-8
 8000734:	00e91933          	sll	x18,x18,x14
 8000738:	06874463          	blt	x14,x8,80007a0 <__adddf3+0x298>
 800073c:	4087053b          	subw	x10,x14,x8
 8000740:	0015051b          	addiw	x10,x10,1
 8000744:	04000793          	addi	x15,x0,64
 8000748:	40a787bb          	subw	x15,x15,x10
 800074c:	00f917b3          	sll	x15,x18,x15
 8000750:	00f037b3          	sltu	x15,x0,x15
 8000754:	00a95933          	srl	x18,x18,x10
 8000758:	00f967b3          	or	x15,x18,x15
 800075c:	00000413          	addi	x8,x0,0
 8000760:	0077f713          	andi	x14,x15,7
 8000764:	e40716e3          	bne	x14,x0,80005b0 <__adddf3+0xa8>
 8000768:	e59ff06f          	jal	x0,80005c0 <__adddf3+0xb8>
 800076c:	04058e63          	beq	x11,x0,80007c8 <__adddf3+0x2c0>
 8000770:	14040e63          	beq	x8,x0,80008cc <__adddf3+0x3c4>
 8000774:	7ff00613          	addi	x12,x0,2047
 8000778:	eac68ee3          	beq	x13,x12,8000634 <__adddf3+0x12c>
 800077c:	00100613          	addi	x12,x0,1
 8000780:	03761613          	slli	x12,x12,0x37
 8000784:	40a0053b          	subw	x10,x0,x10
 8000788:	00c7e7b3          	or	x15,x15,x12
 800078c:	03800613          	addi	x12,x0,56
 8000790:	1aa65c63          	bge	x12,x10,8000948 <__adddf3+0x440>
 8000794:	00170793          	addi	x15,x14,1
 8000798:	00068413          	addi	x8,x13,0
 800079c:	e15ff06f          	jal	x0,80005b0 <__adddf3+0xa8>
 80007a0:	fff00793          	addi	x15,x0,-1
 80007a4:	03779793          	slli	x15,x15,0x37
 80007a8:	fff78793          	addi	x15,x15,-1
 80007ac:	40e40433          	sub	x8,x8,x14
 80007b0:	00f977b3          	and	x15,x18,x15
 80007b4:	fadff06f          	jal	x0,8000760 <__adddf3+0x258>
 80007b8:	00048813          	addi	x16,x9,0
 80007bc:	7ff00513          	addi	x10,x0,2047
 80007c0:	00000713          	addi	x14,x0,0
 80007c4:	e25ff06f          	jal	x0,80005e8 <__adddf3+0xe0>
 80007c8:	00140593          	addi	x11,x8,1
 80007cc:	7fe5f693          	andi	x13,x11,2046
 80007d0:	10069e63          	bne	x13,x0,80008ec <__adddf3+0x3e4>
 80007d4:	16041263          	bne	x8,x0,8000938 <__adddf3+0x430>
 80007d8:	1c078063          	beq	x15,x0,8000998 <__adddf3+0x490>
 80007dc:	1c071263          	bne	x14,x0,80009a0 <__adddf3+0x498>
 80007e0:	0037d793          	srli	x15,x15,0x3
 80007e4:	00000413          	addi	x8,x0,0
 80007e8:	00c79793          	slli	x15,x15,0xc
 80007ec:	00c7d713          	srli	x14,x15,0xc
 80007f0:	7ff47513          	andi	x10,x8,2047
 80007f4:	00048813          	addi	x16,x9,0
 80007f8:	df1ff06f          	jal	x0,80005e8 <__adddf3+0xe0>
 80007fc:	7ff00613          	addi	x12,x0,2047
 8000800:	e2c688e3          	beq	x13,x12,8000630 <__adddf3+0x128>
 8000804:	00100613          	addi	x12,x0,1
 8000808:	03761613          	slli	x12,x12,0x37
 800080c:	40a0053b          	subw	x10,x0,x10
 8000810:	00c7e7b3          	or	x15,x15,x12
 8000814:	03800813          	addi	x16,x0,56
 8000818:	00100613          	addi	x12,x0,1
 800081c:	00a84e63          	blt	x16,x10,8000838 <__adddf3+0x330>
 8000820:	04000613          	addi	x12,x0,64
 8000824:	40a6063b          	subw	x12,x12,x10
 8000828:	00c79633          	sll	x12,x15,x12
 800082c:	00a7d533          	srl	x10,x15,x10
 8000830:	00c03633          	sltu	x12,x0,x12
 8000834:	00c56633          	or	x12,x10,x12
 8000838:	40c707b3          	sub	x15,x14,x12
 800083c:	00068413          	addi	x8,x13,0
 8000840:	00058493          	addi	x9,x11,0
 8000844:	d59ff06f          	jal	x0,800059c <__adddf3+0x94>
 8000848:	40e78933          	sub	x18,x15,x14
 800084c:	03795693          	srli	x13,x18,0x37
 8000850:	0016f693          	andi	x13,x13,1
 8000854:	0c069463          	bne	x13,x0,800091c <__adddf3+0x414>
 8000858:	ec0918e3          	bne	x18,x0,8000728 <__adddf3+0x220>
 800085c:	00000813          	addi	x16,x0,0
 8000860:	00000513          	addi	x10,x0,0
 8000864:	00000713          	addi	x14,x0,0
 8000868:	d81ff06f          	jal	x0,80005e8 <__adddf3+0xe0>
 800086c:	04000693          	addi	x13,x0,64
 8000870:	40b686bb          	subw	x13,x13,x11
 8000874:	00d716b3          	sll	x13,x14,x13
 8000878:	00b755b3          	srl	x11,x14,x11
 800087c:	00d03733          	sltu	x14,x0,x13
 8000880:	00e5e5b3          	or	x11,x11,x14
 8000884:	00b787b3          	add	x15,x15,x11
 8000888:	0377d713          	srli	x14,x15,0x37
 800088c:	00177713          	andi	x14,x14,1
 8000890:	d0070ce3          	beq	x14,x0,80005a8 <__adddf3+0xa0>
 8000894:	00140413          	addi	x8,x8,1
 8000898:	7ff00713          	addi	x14,x0,2047
 800089c:	e6e40ce3          	beq	x8,x14,8000714 <__adddf3+0x20c>
 80008a0:	1ff00713          	addi	x14,x0,511
 80008a4:	03671713          	slli	x14,x14,0x36
 80008a8:	0017d693          	srli	x13,x15,0x1
 80008ac:	fff70713          	addi	x14,x14,-1
 80008b0:	00e6f733          	and	x14,x13,x14
 80008b4:	0017f793          	andi	x15,x15,1
 80008b8:	00f767b3          	or	x15,x14,x15
 80008bc:	0077f693          	andi	x13,x15,7
 80008c0:	ce0698e3          	bne	x13,x0,80005b0 <__adddf3+0xa8>
 80008c4:	0037d793          	srli	x15,x15,0x3
 80008c8:	f21ff06f          	jal	x0,80007e8 <__adddf3+0x2e0>
 80008cc:	0c078063          	beq	x15,x0,800098c <__adddf3+0x484>
 80008d0:	fff54513          	xori	x10,x10,-1
 80008d4:	0005051b          	addiw	x10,x10,0
 80008d8:	0e050863          	beq	x10,x0,80009c8 <__adddf3+0x4c0>
 80008dc:	7ff00613          	addi	x12,x0,2047
 80008e0:	eac696e3          	bne	x13,x12,800078c <__adddf3+0x284>
 80008e4:	00070793          	addi	x15,x14,0
 80008e8:	d51ff06f          	jal	x0,8000638 <__adddf3+0x130>
 80008ec:	7ff00693          	addi	x13,x0,2047
 80008f0:	e2d582e3          	beq	x11,x13,8000714 <__adddf3+0x20c>
 80008f4:	00e78733          	add	x14,x15,x14
 80008f8:	00175793          	srli	x15,x14,0x1
 80008fc:	0077f693          	andi	x13,x15,7
 8000900:	00058413          	addi	x8,x11,0
 8000904:	ca0696e3          	bne	x13,x0,80005b0 <__adddf3+0xa8>
 8000908:	fbdff06f          	jal	x0,80008c4 <__adddf3+0x3bc>
 800090c:	02079863          	bne	x15,x0,800093c <__adddf3+0x434>
 8000910:	d20708e3          	beq	x14,x0,8000640 <__adddf3+0x138>
 8000914:	00058493          	addi	x9,x11,0
 8000918:	d1dff06f          	jal	x0,8000634 <__adddf3+0x12c>
 800091c:	40f70933          	sub	x18,x14,x15
 8000920:	00058493          	addi	x9,x11,0
 8000924:	e05ff06f          	jal	x0,8000728 <__adddf3+0x220>
 8000928:	00e787b3          	add	x15,x15,x14
 800092c:	f5dff06f          	jal	x0,8000888 <__adddf3+0x380>
 8000930:	40e787b3          	sub	x15,x15,x14
 8000934:	c69ff06f          	jal	x0,800059c <__adddf3+0x94>
 8000938:	ce078ee3          	beq	x15,x0,8000634 <__adddf3+0x12c>
 800093c:	d00712e3          	bne	x14,x0,8000640 <__adddf3+0x138>
 8000940:	0037d793          	srli	x15,x15,0x3
 8000944:	cf9ff06f          	jal	x0,800063c <__adddf3+0x134>
 8000948:	04000613          	addi	x12,x0,64
 800094c:	40a6063b          	subw	x12,x12,x10
 8000950:	00c79633          	sll	x12,x15,x12
 8000954:	00a7d533          	srl	x10,x15,x10
 8000958:	00c037b3          	sltu	x15,x0,x12
 800095c:	00f56533          	or	x10,x10,x15
 8000960:	00e507b3          	add	x15,x10,x14
 8000964:	00068413          	addi	x8,x13,0
 8000968:	f21ff06f          	jal	x0,8000888 <__adddf3+0x380>
 800096c:	ee0708e3          	beq	x14,x0,800085c <__adddf3+0x354>
 8000970:	00058493          	addi	x9,x11,0
 8000974:	00070793          	addi	x15,x14,0
 8000978:	e69ff06f          	jal	x0,80007e0 <__adddf3+0x2d8>
 800097c:	40f707b3          	sub	x15,x14,x15
 8000980:	00068413          	addi	x8,x13,0
 8000984:	00058493          	addi	x9,x11,0
 8000988:	c15ff06f          	jal	x0,800059c <__adddf3+0x94>
 800098c:	00068413          	addi	x8,x13,0
 8000990:	00070793          	addi	x15,x14,0
 8000994:	d71ff06f          	jal	x0,8000704 <__adddf3+0x1fc>
 8000998:	00070793          	addi	x15,x14,0
 800099c:	e45ff06f          	jal	x0,80007e0 <__adddf3+0x2d8>
 80009a0:	00e787b3          	add	x15,x15,x14
 80009a4:	0377d693          	srli	x13,x15,0x37
 80009a8:	0016f693          	andi	x13,x13,1
 80009ac:	f0068ce3          	beq	x13,x0,80008c4 <__adddf3+0x3bc>
 80009b0:	03761713          	slli	x14,x12,0x37
 80009b4:	fff70713          	addi	x14,x14,-1
 80009b8:	00e7f7b3          	and	x15,x15,x14
 80009bc:	00100413          	addi	x8,x0,1
 80009c0:	0037d793          	srli	x15,x15,0x3
 80009c4:	e25ff06f          	jal	x0,80007e8 <__adddf3+0x2e0>
 80009c8:	00e787b3          	add	x15,x15,x14
 80009cc:	00068413          	addi	x8,x13,0
 80009d0:	eb9ff06f          	jal	x0,8000888 <__adddf3+0x380>
 80009d4:	00060793          	addi	x15,x12,0
 80009d8:	e80602e3          	beq	x12,x0,800085c <__adddf3+0x354>
 80009dc:	0037d793          	srli	x15,x15,0x3
 80009e0:	e09ff06f          	jal	x0,80007e8 <__adddf3+0x2e0>

00000000080009e4 <__divdf3>:
 80009e4:	fb010113          	addi	x2,x2,-80
 80009e8:	03455793          	srli	x15,x10,0x34
 80009ec:	03313423          	sd	x19,40(x2)
 80009f0:	03413023          	sd	x20,32(x2)
 80009f4:	00c51993          	slli	x19,x10,0xc
 80009f8:	04113423          	sd	x1,72(x2)
 80009fc:	04813023          	sd	x8,64(x2)
 8000a00:	02913c23          	sd	x9,56(x2)
 8000a04:	03213823          	sd	x18,48(x2)
 8000a08:	01513c23          	sd	x21,24(x2)
 8000a0c:	01613823          	sd	x22,16(x2)
 8000a10:	7ff7f793          	andi	x15,x15,2047
 8000a14:	00c9d993          	srli	x19,x19,0xc
 8000a18:	03f55a13          	srli	x20,x10,0x3f
 8000a1c:	14078063          	beq	x15,x0,8000b5c <__divdf3+0x178>
 8000a20:	7ff00713          	addi	x14,x0,2047
 8000a24:	14e78663          	beq	x15,x14,8000b70 <__divdf3+0x18c>
 8000a28:	00100713          	addi	x14,x0,1
 8000a2c:	00399993          	slli	x19,x19,0x3
 8000a30:	03771713          	slli	x14,x14,0x37
 8000a34:	00e9e9b3          	or	x19,x19,x14
 8000a38:	c0178913          	addi	x18,x15,-1023
 8000a3c:	00000413          	addi	x8,x0,0
 8000a40:	00000a93          	addi	x21,x0,0
 8000a44:	0345d793          	srli	x15,x11,0x34
 8000a48:	00c59513          	slli	x10,x11,0xc
 8000a4c:	7ff7f793          	andi	x15,x15,2047
 8000a50:	00c55b13          	srli	x22,x10,0xc
 8000a54:	03f5d493          	srli	x9,x11,0x3f
 8000a58:	0c078a63          	beq	x15,x0,8000b2c <__divdf3+0x148>
 8000a5c:	7ff00713          	addi	x14,x0,2047
 8000a60:	12e78263          	beq	x15,x14,8000b84 <__divdf3+0x1a0>
 8000a64:	00100713          	addi	x14,x0,1
 8000a68:	003b1513          	slli	x10,x22,0x3
 8000a6c:	03771713          	slli	x14,x14,0x37
 8000a70:	00e56b33          	or	x22,x10,x14
 8000a74:	c0178793          	addi	x15,x15,-1023
 8000a78:	00000613          	addi	x12,x0,0
 8000a7c:	00f00693          	addi	x13,x0,15
 8000a80:	009a4733          	xor	x14,x20,x9
 8000a84:	40f90933          	sub	x18,x18,x15
 8000a88:	2486e663          	bltu	x13,x8,8000cd4 <__divdf3+0x2f0>
 8000a8c:	00002697          	auipc	x13,0x2
 8000a90:	9ec68693          	addi	x13,x13,-1556 # 8002478 <__clz_tab+0x100>
 8000a94:	00241413          	slli	x8,x8,0x2
 8000a98:	00d40433          	add	x8,x8,x13
 8000a9c:	00042783          	lw	x15,0(x8)
 8000aa0:	00d787b3          	add	x15,x15,x13
 8000aa4:	00078067          	jalr	x0,0(x15)
 8000aa8:	7ff00793          	addi	x15,x0,2047
 8000aac:	00000693          	addi	x13,x0,0
 8000ab0:	04813083          	ld	x1,72(x2)
 8000ab4:	04013403          	ld	x8,64(x2)
 8000ab8:	03479513          	slli	x10,x15,0x34
 8000abc:	00d56533          	or	x10,x10,x13
 8000ac0:	03f71713          	slli	x14,x14,0x3f
 8000ac4:	03813483          	ld	x9,56(x2)
 8000ac8:	03013903          	ld	x18,48(x2)
 8000acc:	02813983          	ld	x19,40(x2)
 8000ad0:	02013a03          	ld	x20,32(x2)
 8000ad4:	01813a83          	ld	x21,24(x2)
 8000ad8:	01013b03          	ld	x22,16(x2)
 8000adc:	00e56533          	or	x10,x10,x14
 8000ae0:	05010113          	addi	x2,x2,80
 8000ae4:	00008067          	jalr	x0,0(x1)
 8000ae8:	00300793          	addi	x15,x0,3
 8000aec:	02fa8663          	beq	x21,x15,8000b18 <__divdf3+0x134>
 8000af0:	00100793          	addi	x15,x0,1
 8000af4:	14fa9c63          	bne	x21,x15,8000c4c <__divdf3+0x268>
 8000af8:	00050713          	addi	x14,x10,0
 8000afc:	00000793          	addi	x15,x0,0
 8000b00:	00000693          	addi	x13,x0,0
 8000b04:	fadff06f          	jal	x0,8000ab0 <__divdf3+0xcc>
 8000b08:	00300793          	addi	x15,x0,3
 8000b0c:	00048513          	addi	x10,x9,0
 8000b10:	000b0993          	addi	x19,x22,0
 8000b14:	12f61c63          	bne	x12,x15,8000c4c <__divdf3+0x268>
 8000b18:	00100693          	addi	x13,x0,1
 8000b1c:	00000713          	addi	x14,x0,0
 8000b20:	7ff00793          	addi	x15,x0,2047
 8000b24:	03369693          	slli	x13,x13,0x33
 8000b28:	f89ff06f          	jal	x0,8000ab0 <__divdf3+0xcc>
 8000b2c:	0c0b1e63          	bne	x22,x0,8000c08 <__divdf3+0x224>
 8000b30:	00146413          	ori	x8,x8,1
 8000b34:	00d00793          	addi	x15,x0,13
 8000b38:	009a4733          	xor	x14,x20,x9
 8000b3c:	f687e6e3          	bltu	x15,x8,8000aa8 <__divdf3+0xc4>
 8000b40:	00002697          	auipc	x13,0x2
 8000b44:	97868693          	addi	x13,x13,-1672 # 80024b8 <__clz_tab+0x140>
 8000b48:	00241413          	slli	x8,x8,0x2
 8000b4c:	00d40433          	add	x8,x8,x13
 8000b50:	00042783          	lw	x15,0(x8)
 8000b54:	00d787b3          	add	x15,x15,x13
 8000b58:	00078067          	jalr	x0,0(x15)
 8000b5c:	06099e63          	bne	x19,x0,8000bd8 <__divdf3+0x1f4>
 8000b60:	00400413          	addi	x8,x0,4
 8000b64:	00000913          	addi	x18,x0,0
 8000b68:	00100a93          	addi	x21,x0,1
 8000b6c:	ed9ff06f          	jal	x0,8000a44 <__divdf3+0x60>
 8000b70:	04099c63          	bne	x19,x0,8000bc8 <__divdf3+0x1e4>
 8000b74:	00800413          	addi	x8,x0,8
 8000b78:	7ff00913          	addi	x18,x0,2047
 8000b7c:	00200a93          	addi	x21,x0,2
 8000b80:	ec5ff06f          	jal	x0,8000a44 <__divdf3+0x60>
 8000b84:	020b1a63          	bne	x22,x0,8000bb8 <__divdf3+0x1d4>
 8000b88:	00246413          	ori	x8,x8,2
 8000b8c:	ffd40413          	addi	x8,x8,-3
 8000b90:	00b00693          	addi	x13,x0,11
 8000b94:	009a4733          	xor	x14,x20,x9
 8000b98:	f686e2e3          	bltu	x13,x8,8000afc <__divdf3+0x118>
 8000b9c:	00002617          	auipc	x12,0x2
 8000ba0:	95460613          	addi	x12,x12,-1708 # 80024f0 <__clz_tab+0x178>
 8000ba4:	00241413          	slli	x8,x8,0x2
 8000ba8:	00c40433          	add	x8,x8,x12
 8000bac:	00042683          	lw	x13,0(x8)
 8000bb0:	00c686b3          	add	x13,x13,x12
 8000bb4:	00068067          	jalr	x0,0(x13)
 8000bb8:	00346413          	ori	x8,x8,3
 8000bbc:	7ff00793          	addi	x15,x0,2047
 8000bc0:	00300613          	addi	x12,x0,3
 8000bc4:	eb9ff06f          	jal	x0,8000a7c <__divdf3+0x98>
 8000bc8:	00c00413          	addi	x8,x0,12
 8000bcc:	7ff00913          	addi	x18,x0,2047
 8000bd0:	00300a93          	addi	x21,x0,3
 8000bd4:	e71ff06f          	jal	x0,8000a44 <__divdf3+0x60>
 8000bd8:	00098513          	addi	x10,x19,0
 8000bdc:	00b13423          	sd	x11,8(x2)
 8000be0:	8b9ff0ef          	jal	x1,8000498 <__clzdi2>
 8000be4:	0005071b          	addiw	x14,x10,0
 8000be8:	c0d00793          	addi	x15,x0,-1011
 8000bec:	ff85051b          	addiw	x10,x10,-8
 8000bf0:	00813583          	ld	x11,8(x2)
 8000bf4:	00a999b3          	sll	x19,x19,x10
 8000bf8:	40e78933          	sub	x18,x15,x14
 8000bfc:	00000413          	addi	x8,x0,0
 8000c00:	00000a93          	addi	x21,x0,0
 8000c04:	e41ff06f          	jal	x0,8000a44 <__divdf3+0x60>
 8000c08:	000b0513          	addi	x10,x22,0
 8000c0c:	88dff0ef          	jal	x1,8000498 <__clzdi2>
 8000c10:	0005071b          	addiw	x14,x10,0
 8000c14:	c0d00793          	addi	x15,x0,-1011
 8000c18:	ff85051b          	addiw	x10,x10,-8
 8000c1c:	00ab1b33          	sll	x22,x22,x10
 8000c20:	40e787b3          	sub	x15,x15,x14
 8000c24:	00000613          	addi	x12,x0,0
 8000c28:	e55ff06f          	jal	x0,8000a7c <__divdf3+0x98>
 8000c2c:	80190913          	addi	x18,x18,-2047
 8000c30:	00200793          	addi	x15,x0,2
 8000c34:	000a0513          	addi	x10,x20,0
 8000c38:	eafa98e3          	bne	x21,x15,8000ae8 <__divdf3+0x104>
 8000c3c:	00050713          	addi	x14,x10,0
 8000c40:	7ff00793          	addi	x15,x0,2047
 8000c44:	00000693          	addi	x13,x0,0
 8000c48:	e69ff06f          	jal	x0,8000ab0 <__divdf3+0xcc>
 8000c4c:	00050713          	addi	x14,x10,0
 8000c50:	3ff90793          	addi	x15,x18,1023
 8000c54:	04f05a63          	bge	x0,x15,8000ca8 <__divdf3+0x2c4>
 8000c58:	0079f693          	andi	x13,x19,7
 8000c5c:	00068a63          	beq	x13,x0,8000c70 <__divdf3+0x28c>
 8000c60:	00f9f693          	andi	x13,x19,15
 8000c64:	00400613          	addi	x12,x0,4
 8000c68:	00c68463          	beq	x13,x12,8000c70 <__divdf3+0x28c>
 8000c6c:	00498993          	addi	x19,x19,4
 8000c70:	0389d693          	srli	x13,x19,0x38
 8000c74:	0016f693          	andi	x13,x13,1
 8000c78:	00068c63          	beq	x13,x0,8000c90 <__divdf3+0x2ac>
 8000c7c:	fff00793          	addi	x15,x0,-1
 8000c80:	03879793          	slli	x15,x15,0x38
 8000c84:	fff78793          	addi	x15,x15,-1
 8000c88:	00f9f9b3          	and	x19,x19,x15
 8000c8c:	40090793          	addi	x15,x18,1024
 8000c90:	7fe00693          	addi	x13,x0,2046
 8000c94:	e0f6cae3          	blt	x13,x15,8000aa8 <__divdf3+0xc4>
 8000c98:	00999693          	slli	x13,x19,0x9
 8000c9c:	00c6d693          	srli	x13,x13,0xc
 8000ca0:	7ff7f793          	andi	x15,x15,2047
 8000ca4:	e0dff06f          	jal	x0,8000ab0 <__divdf3+0xcc>
 8000ca8:	0e078463          	beq	x15,x0,8000d90 <__divdf3+0x3ac>
 8000cac:	00100613          	addi	x12,x0,1
 8000cb0:	40f60633          	sub	x12,x12,x15
 8000cb4:	03800593          	addi	x11,x0,56
 8000cb8:	00000793          	addi	x15,x0,0
 8000cbc:	00000693          	addi	x13,x0,0
 8000cc0:	dec5c8e3          	blt	x11,x12,8000ab0 <__divdf3+0xcc>
 8000cc4:	04000793          	addi	x15,x0,64
 8000cc8:	0006069b          	addiw	x13,x12,0
 8000ccc:	40c787bb          	subw	x15,x15,x12
 8000cd0:	0c80006f          	jal	x0,8000d98 <__divdf3+0x3b4>
 8000cd4:	fff00693          	addi	x13,x0,-1
 8000cd8:	008b1813          	slli	x16,x22,0x8
 8000cdc:	0206d693          	srli	x13,x13,0x20
 8000ce0:	02085593          	srli	x11,x16,0x20
 8000ce4:	00d876b3          	and	x13,x16,x13
 8000ce8:	0969f863          	bgeu	x19,x22,8000d78 <__divdf3+0x394>
 8000cec:	02b9d633          	divu	x12,x19,x11
 8000cf0:	00098793          	addi	x15,x19,0
 8000cf4:	fff90913          	addi	x18,x18,-1
 8000cf8:	00000993          	addi	x19,x0,0
 8000cfc:	02d60533          	mul	x10,x12,x13
 8000d00:	02b7f7b3          	remu	x15,x15,x11
 8000d04:	02079793          	slli	x15,x15,0x20
 8000d08:	0137e7b3          	or	x15,x15,x19
 8000d0c:	00a7fa63          	bgeu	x15,x10,8000d20 <__divdf3+0x33c>
 8000d10:	00f807b3          	add	x15,x16,x15
 8000d14:	fff60893          	addi	x17,x12,-1
 8000d18:	0d07fe63          	bgeu	x15,x16,8000df4 <__divdf3+0x410>
 8000d1c:	00088613          	addi	x12,x17,0
 8000d20:	40a787b3          	sub	x15,x15,x10
 8000d24:	02b7d533          	divu	x10,x15,x11
 8000d28:	02b7f7b3          	remu	x15,x15,x11
 8000d2c:	02d506b3          	mul	x13,x10,x13
 8000d30:	02079793          	slli	x15,x15,0x20
 8000d34:	02d7f663          	bgeu	x15,x13,8000d60 <__divdf3+0x37c>
 8000d38:	010785b3          	add	x11,x15,x16
 8000d3c:	00f5b8b3          	sltu	x17,x11,x15
 8000d40:	fff50313          	addi	x6,x10,-1
 8000d44:	00058793          	addi	x15,x11,0
 8000d48:	00089a63          	bne	x17,x0,8000d5c <__divdf3+0x378>
 8000d4c:	00d5f863          	bgeu	x11,x13,8000d5c <__divdf3+0x378>
 8000d50:	ffe50513          	addi	x10,x10,-2
 8000d54:	010587b3          	add	x15,x11,x16
 8000d58:	0080006f          	jal	x0,8000d60 <__divdf3+0x37c>
 8000d5c:	00030513          	addi	x10,x6,0
 8000d60:	02061613          	slli	x12,x12,0x20
 8000d64:	40d787b3          	sub	x15,x15,x13
 8000d68:	00a66633          	or	x12,x12,x10
 8000d6c:	00f037b3          	sltu	x15,x0,x15
 8000d70:	00f669b3          	or	x19,x12,x15
 8000d74:	eddff06f          	jal	x0,8000c50 <__divdf3+0x26c>
 8000d78:	0019d793          	srli	x15,x19,0x1
 8000d7c:	02b7d633          	divu	x12,x15,x11
 8000d80:	03f99993          	slli	x19,x19,0x3f
 8000d84:	0209d993          	srli	x19,x19,0x20
 8000d88:	02d60533          	mul	x10,x12,x13
 8000d8c:	f75ff06f          	jal	x0,8000d00 <__divdf3+0x31c>
 8000d90:	03f00793          	addi	x15,x0,63
 8000d94:	00100693          	addi	x13,x0,1
 8000d98:	00f997b3          	sll	x15,x19,x15
 8000d9c:	00f037b3          	sltu	x15,x0,x15
 8000da0:	00d9d6b3          	srl	x13,x19,x13
 8000da4:	00f6e6b3          	or	x13,x13,x15
 8000da8:	0076f793          	andi	x15,x13,7
 8000dac:	00078a63          	beq	x15,x0,8000dc0 <__divdf3+0x3dc>
 8000db0:	00f6f793          	andi	x15,x13,15
 8000db4:	00400613          	addi	x12,x0,4
 8000db8:	00c78463          	beq	x15,x12,8000dc0 <__divdf3+0x3dc>
 8000dbc:	00468693          	addi	x13,x13,4
 8000dc0:	0376d793          	srli	x15,x13,0x37
 8000dc4:	0017f793          	andi	x15,x15,1
 8000dc8:	02078e63          	beq	x15,x0,8000e04 <__divdf3+0x420>
 8000dcc:	00100793          	addi	x15,x0,1
 8000dd0:	00000693          	addi	x13,x0,0
 8000dd4:	cddff06f          	jal	x0,8000ab0 <__divdf3+0xcc>
 8000dd8:	00048513          	addi	x10,x9,0
 8000ddc:	00050713          	addi	x14,x10,0
 8000de0:	d1dff06f          	jal	x0,8000afc <__divdf3+0x118>
 8000de4:	00100693          	addi	x13,x0,1
 8000de8:	00000713          	addi	x14,x0,0
 8000dec:	03369693          	slli	x13,x13,0x33
 8000df0:	cc1ff06f          	jal	x0,8000ab0 <__divdf3+0xcc>
 8000df4:	f2a7f4e3          	bgeu	x15,x10,8000d1c <__divdf3+0x338>
 8000df8:	ffe60613          	addi	x12,x12,-2
 8000dfc:	010787b3          	add	x15,x15,x16
 8000e00:	f21ff06f          	jal	x0,8000d20 <__divdf3+0x33c>
 8000e04:	00969693          	slli	x13,x13,0x9
 8000e08:	00c6d693          	srli	x13,x13,0xc
 8000e0c:	ca5ff06f          	jal	x0,8000ab0 <__divdf3+0xcc>
 8000e10:	00048513          	addi	x10,x9,0
 8000e14:	e29ff06f          	jal	x0,8000c3c <__divdf3+0x258>

0000000008000e18 <__eqdf2>:
 8000e18:	03455693          	srli	x13,x10,0x34
 8000e1c:	fff00713          	addi	x14,x0,-1
 8000e20:	00c75713          	srli	x14,x14,0xc
 8000e24:	0345d613          	srli	x12,x11,0x34
 8000e28:	7ff6f693          	andi	x13,x13,2047
 8000e2c:	7ff00813          	addi	x16,x0,2047
 8000e30:	00a778b3          	and	x17,x14,x10
 8000e34:	03f55793          	srli	x15,x10,0x3f
 8000e38:	00b77733          	and	x14,x14,x11
 8000e3c:	7ff67613          	andi	x12,x12,2047
 8000e40:	03f5d593          	srli	x11,x11,0x3f
 8000e44:	00100513          	addi	x10,x0,1
 8000e48:	01068c63          	beq	x13,x16,8000e60 <__eqdf2+0x48>
 8000e4c:	01060863          	beq	x12,x16,8000e5c <__eqdf2+0x44>
 8000e50:	00c69463          	bne	x13,x12,8000e58 <__eqdf2+0x40>
 8000e54:	02e88063          	beq	x17,x14,8000e74 <__eqdf2+0x5c>
 8000e58:	00008067          	jalr	x0,0(x1)
 8000e5c:	00008067          	jalr	x0,0(x1)
 8000e60:	fe089ce3          	bne	x17,x0,8000e58 <__eqdf2+0x40>
 8000e64:	fed61ae3          	bne	x12,x13,8000e58 <__eqdf2+0x40>
 8000e68:	fe0718e3          	bne	x14,x0,8000e58 <__eqdf2+0x40>
 8000e6c:	00b7c533          	xor	x10,x15,x11
 8000e70:	00008067          	jalr	x0,0(x1)
 8000e74:	00000513          	addi	x10,x0,0
 8000e78:	feb780e3          	beq	x15,x11,8000e58 <__eqdf2+0x40>
 8000e7c:	00100513          	addi	x10,x0,1
 8000e80:	fc069ce3          	bne	x13,x0,8000e58 <__eqdf2+0x40>
 8000e84:	01103533          	sltu	x10,x0,x17
 8000e88:	00008067          	jalr	x0,0(x1)

0000000008000e8c <__ledf2>:
 8000e8c:	03455613          	srli	x12,x10,0x34
 8000e90:	fff00713          	addi	x14,x0,-1
 8000e94:	00c75713          	srli	x14,x14,0xc
 8000e98:	0345d693          	srli	x13,x11,0x34
 8000e9c:	7ff67613          	andi	x12,x12,2047
 8000ea0:	7ff00813          	addi	x16,x0,2047
 8000ea4:	00a778b3          	and	x17,x14,x10
 8000ea8:	03f55793          	srli	x15,x10,0x3f
 8000eac:	00b77733          	and	x14,x14,x11
 8000eb0:	7ff6f513          	andi	x10,x13,2047
 8000eb4:	03f5d593          	srli	x11,x11,0x3f
 8000eb8:	05060263          	beq	x12,x16,8000efc <__ledf2+0x70>
 8000ebc:	03050063          	beq	x10,x16,8000edc <__ledf2+0x50>
 8000ec0:	04061c63          	bne	x12,x0,8000f18 <__ledf2+0x8c>
 8000ec4:	02051263          	bne	x10,x0,8000ee8 <__ledf2+0x5c>
 8000ec8:	06070c63          	beq	x14,x0,8000f40 <__ledf2+0xb4>
 8000ecc:	08089663          	bne	x17,x0,8000f58 <__ledf2+0xcc>
 8000ed0:	08058063          	beq	x11,x0,8000f50 <__ledf2+0xc4>
 8000ed4:	00058513          	addi	x10,x11,0
 8000ed8:	00008067          	jalr	x0,0(x1)
 8000edc:	00200513          	addi	x10,x0,2
 8000ee0:	00071c63          	bne	x14,x0,8000ef8 <__ledf2+0x6c>
 8000ee4:	00061463          	bne	x12,x0,8000eec <__ledf2+0x60>
 8000ee8:	fe0884e3          	beq	x17,x0,8000ed0 <__ledf2+0x44>
 8000eec:	04b78463          	beq	x15,x11,8000f34 <__ledf2+0xa8>
 8000ef0:	00100513          	addi	x10,x0,1
 8000ef4:	04079e63          	bne	x15,x0,8000f50 <__ledf2+0xc4>
 8000ef8:	00008067          	jalr	x0,0(x1)
 8000efc:	04089663          	bne	x17,x0,8000f48 <__ledf2+0xbc>
 8000f00:	fec518e3          	bne	x10,x12,8000ef0 <__ledf2+0x64>
 8000f04:	00200513          	addi	x10,x0,2
 8000f08:	fe0718e3          	bne	x14,x0,8000ef8 <__ledf2+0x6c>
 8000f0c:	feb792e3          	bne	x15,x11,8000ef0 <__ledf2+0x64>
 8000f10:	00000513          	addi	x10,x0,0
 8000f14:	00008067          	jalr	x0,0(x1)
 8000f18:	fc050ce3          	beq	x10,x0,8000ef0 <__ledf2+0x64>
 8000f1c:	fcb79ae3          	bne	x15,x11,8000ef0 <__ledf2+0x64>
 8000f20:	fcc548e3          	blt	x10,x12,8000ef0 <__ledf2+0x64>
 8000f24:	00a64863          	blt	x12,x10,8000f34 <__ledf2+0xa8>
 8000f28:	fd1764e3          	bltu	x14,x17,8000ef0 <__ledf2+0x64>
 8000f2c:	00000513          	addi	x10,x0,0
 8000f30:	fce8f4e3          	bgeu	x17,x14,8000ef8 <__ledf2+0x6c>
 8000f34:	00078e63          	beq	x15,x0,8000f50 <__ledf2+0xc4>
 8000f38:	00078513          	addi	x10,x15,0
 8000f3c:	00008067          	jalr	x0,0(x1)
 8000f40:	fa0898e3          	bne	x17,x0,8000ef0 <__ledf2+0x64>
 8000f44:	00008067          	jalr	x0,0(x1)
 8000f48:	00200513          	addi	x10,x0,2
 8000f4c:	00008067          	jalr	x0,0(x1)
 8000f50:	fff00513          	addi	x10,x0,-1
 8000f54:	00008067          	jalr	x0,0(x1)
 8000f58:	fcb788e3          	beq	x15,x11,8000f28 <__ledf2+0x9c>
 8000f5c:	f95ff06f          	jal	x0,8000ef0 <__ledf2+0x64>

0000000008000f60 <__muldf3>:
 8000f60:	fb010113          	addi	x2,x2,-80
 8000f64:	03455793          	srli	x15,x10,0x34
 8000f68:	03413023          	sd	x20,32(x2)
 8000f6c:	01513c23          	sd	x21,24(x2)
 8000f70:	04113423          	sd	x1,72(x2)
 8000f74:	00c51a93          	slli	x21,x10,0xc
 8000f78:	04813023          	sd	x8,64(x2)
 8000f7c:	02913c23          	sd	x9,56(x2)
 8000f80:	03213823          	sd	x18,48(x2)
 8000f84:	03313423          	sd	x19,40(x2)
 8000f88:	01613823          	sd	x22,16(x2)
 8000f8c:	7ff7f793          	andi	x15,x15,2047
 8000f90:	00cada93          	srli	x21,x21,0xc
 8000f94:	03f55a13          	srli	x20,x10,0x3f
 8000f98:	18078263          	beq	x15,x0,800111c <__muldf3+0x1bc>
 8000f9c:	7ff00713          	addi	x14,x0,2047
 8000fa0:	18e78863          	beq	x15,x14,8001130 <__muldf3+0x1d0>
 8000fa4:	00100713          	addi	x14,x0,1
 8000fa8:	003a9a93          	slli	x21,x21,0x3
 8000fac:	03771713          	slli	x14,x14,0x37
 8000fb0:	00eaeab3          	or	x21,x21,x14
 8000fb4:	c0178913          	addi	x18,x15,-1023
 8000fb8:	00000413          	addi	x8,x0,0
 8000fbc:	00000b13          	addi	x22,x0,0
 8000fc0:	0345d793          	srli	x15,x11,0x34
 8000fc4:	00c59713          	slli	x14,x11,0xc
 8000fc8:	7ff7f793          	andi	x15,x15,2047
 8000fcc:	00c75993          	srli	x19,x14,0xc
 8000fd0:	03f5d493          	srli	x9,x11,0x3f
 8000fd4:	12078463          	beq	x15,x0,80010fc <__muldf3+0x19c>
 8000fd8:	7ff00713          	addi	x14,x0,2047
 8000fdc:	08e78c63          	beq	x15,x14,8001074 <__muldf3+0x114>
 8000fe0:	c0178793          	addi	x15,x15,-1023
 8000fe4:	00100693          	addi	x13,x0,1
 8000fe8:	03769693          	slli	x13,x13,0x37
 8000fec:	01278833          	add	x16,x15,x18
 8000ff0:	00399713          	slli	x14,x19,0x3
 8000ff4:	00a00793          	addi	x15,x0,10
 8000ff8:	00d769b3          	or	x19,x14,x13
 8000ffc:	00180913          	addi	x18,x16,1
 8001000:	00000693          	addi	x13,x0,0
 8001004:	1887c463          	blt	x15,x8,800118c <__muldf3+0x22c>
 8001008:	009a4633          	xor	x12,x20,x9
 800100c:	00200713          	addi	x14,x0,2
 8001010:	00060893          	addi	x17,x12,0
 8001014:	08874663          	blt	x14,x8,80010a0 <__muldf3+0x140>
 8001018:	fff40413          	addi	x8,x8,-1
 800101c:	00100593          	addi	x11,x0,1
 8001020:	1e85ec63          	bltu	x11,x8,8001218 <__muldf3+0x2b8>
 8001024:	12e68063          	beq	x13,x14,8001144 <__muldf3+0x1e4>
 8001028:	00100793          	addi	x15,x0,1
 800102c:	00088613          	addi	x12,x17,0
 8001030:	0af69263          	bne	x13,x15,80010d4 <__muldf3+0x174>
 8001034:	00000793          	addi	x15,x0,0
 8001038:	00000713          	addi	x14,x0,0
 800103c:	04813083          	ld	x1,72(x2)
 8001040:	04013403          	ld	x8,64(x2)
 8001044:	03479513          	slli	x10,x15,0x34
 8001048:	00e56533          	or	x10,x10,x14
 800104c:	03f61613          	slli	x12,x12,0x3f
 8001050:	03813483          	ld	x9,56(x2)
 8001054:	03013903          	ld	x18,48(x2)
 8001058:	02813983          	ld	x19,40(x2)
 800105c:	02013a03          	ld	x20,32(x2)
 8001060:	01813a83          	ld	x21,24(x2)
 8001064:	01013b03          	ld	x22,16(x2)
 8001068:	00c56533          	or	x10,x10,x12
 800106c:	05010113          	addi	x2,x2,80
 8001070:	00008067          	jalr	x0,0(x1)
 8001074:	7ff90813          	addi	x16,x18,2047
 8001078:	0e098663          	beq	x19,x0,8001164 <__muldf3+0x204>
 800107c:	00001737          	lui	x14,0x1
 8001080:	009a4633          	xor	x12,x20,x9
 8001084:	80070713          	addi	x14,x14,-2048 # 800 <_Min_Stack_Size-0x7ff800>
 8001088:	00346413          	ori	x8,x8,3
 800108c:	00a00693          	addi	x13,x0,10
 8001090:	00060893          	addi	x17,x12,0
 8001094:	00e90933          	add	x18,x18,x14
 8001098:	2e86ce63          	blt	x13,x8,8001394 <__muldf3+0x434>
 800109c:	00300693          	addi	x13,x0,3
 80010a0:	00100713          	addi	x14,x0,1
 80010a4:	00871433          	sll	x8,x14,x8
 80010a8:	53047513          	andi	x10,x8,1328
 80010ac:	02050863          	beq	x10,x0,80010dc <__muldf3+0x17c>
 80010b0:	00200793          	addi	x15,x0,2
 80010b4:	08fb0863          	beq	x22,x15,8001144 <__muldf3+0x1e4>
 80010b8:	00300793          	addi	x15,x0,3
 80010bc:	14fb0463          	beq	x22,x15,8001204 <__muldf3+0x2a4>
 80010c0:	000b0693          	addi	x13,x22,0
 80010c4:	00100793          	addi	x15,x0,1
 80010c8:	000a8993          	addi	x19,x21,0
 80010cc:	00088613          	addi	x12,x17,0
 80010d0:	f6f682e3          	beq	x13,x15,8001034 <__muldf3+0xd4>
 80010d4:	00090813          	addi	x16,x18,0
 80010d8:	1d80006f          	jal	x0,80012b0 <__muldf3+0x350>
 80010dc:	24047793          	andi	x15,x8,576
 80010e0:	06079a63          	bne	x15,x0,8001154 <__muldf3+0x1f4>
 80010e4:	08847413          	andi	x8,x8,136
 80010e8:	12040863          	beq	x8,x0,8001218 <__muldf3+0x2b8>
 80010ec:	00048893          	addi	x17,x9,0
 80010f0:	00098a93          	addi	x21,x19,0
 80010f4:	00068b13          	addi	x22,x13,0
 80010f8:	fb9ff06f          	jal	x0,80010b0 <__muldf3+0x150>
 80010fc:	0c099c63          	bne	x19,x0,80011d4 <__muldf3+0x274>
 8001100:	00090813          	addi	x16,x18,0
 8001104:	00146413          	ori	x8,x8,1
 8001108:	00a00793          	addi	x15,x0,10
 800110c:	00100693          	addi	x13,x0,1
 8001110:	00180913          	addi	x18,x16,1
 8001114:	ee87dae3          	bge	x15,x8,8001008 <__muldf3+0xa8>
 8001118:	0740006f          	jal	x0,800118c <__muldf3+0x22c>
 800111c:	080a9463          	bne	x21,x0,80011a4 <__muldf3+0x244>
 8001120:	00400413          	addi	x8,x0,4
 8001124:	00000913          	addi	x18,x0,0
 8001128:	00100b13          	addi	x22,x0,1
 800112c:	e95ff06f          	jal	x0,8000fc0 <__muldf3+0x60>
 8001130:	060a9263          	bne	x21,x0,8001194 <__muldf3+0x234>
 8001134:	00800413          	addi	x8,x0,8
 8001138:	7ff00913          	addi	x18,x0,2047
 800113c:	00200b13          	addi	x22,x0,2
 8001140:	e81ff06f          	jal	x0,8000fc0 <__muldf3+0x60>
 8001144:	00088613          	addi	x12,x17,0
 8001148:	7ff00793          	addi	x15,x0,2047
 800114c:	00000713          	addi	x14,x0,0
 8001150:	eedff06f          	jal	x0,800103c <__muldf3+0xdc>
 8001154:	00000613          	addi	x12,x0,0
 8001158:	7ff00793          	addi	x15,x0,2047
 800115c:	03371713          	slli	x14,x14,0x33
 8001160:	eddff06f          	jal	x0,800103c <__muldf3+0xdc>
 8001164:	000017b7          	lui	x15,0x1
 8001168:	80078793          	addi	x15,x15,-2048 # 800 <_Min_Stack_Size-0x7ff800>
 800116c:	00246413          	ori	x8,x8,2
 8001170:	00a00713          	addi	x14,x0,10
 8001174:	00f90933          	add	x18,x18,x15
 8001178:	00200693          	addi	x13,x0,2
 800117c:	00e00793          	addi	x15,x0,14
 8001180:	e88754e3          	bge	x14,x8,8001008 <__muldf3+0xa8>
 8001184:	00b00713          	addi	x14,x0,11
 8001188:	f6e782e3          	beq	x15,x14,80010ec <__muldf3+0x18c>
 800118c:	000a0893          	addi	x17,x20,0
 8001190:	f21ff06f          	jal	x0,80010b0 <__muldf3+0x150>
 8001194:	00c00413          	addi	x8,x0,12
 8001198:	7ff00913          	addi	x18,x0,2047
 800119c:	00300b13          	addi	x22,x0,3
 80011a0:	e21ff06f          	jal	x0,8000fc0 <__muldf3+0x60>
 80011a4:	000a8513          	addi	x10,x21,0
 80011a8:	00b13423          	sd	x11,8(x2)
 80011ac:	aecff0ef          	jal	x1,8000498 <__clzdi2>
 80011b0:	0005071b          	addiw	x14,x10,0
 80011b4:	c0d00793          	addi	x15,x0,-1011
 80011b8:	ff85051b          	addiw	x10,x10,-8
 80011bc:	00813583          	ld	x11,8(x2)
 80011c0:	00aa9ab3          	sll	x21,x21,x10
 80011c4:	40e78933          	sub	x18,x15,x14
 80011c8:	00000413          	addi	x8,x0,0
 80011cc:	00000b13          	addi	x22,x0,0
 80011d0:	df1ff06f          	jal	x0,8000fc0 <__muldf3+0x60>
 80011d4:	00098513          	addi	x10,x19,0
 80011d8:	ac0ff0ef          	jal	x1,8000498 <__clzdi2>
 80011dc:	0005081b          	addiw	x16,x10,0
 80011e0:	41090833          	sub	x16,x18,x16
 80011e4:	ff85051b          	addiw	x10,x10,-8
 80011e8:	c0d80813          	addi	x16,x16,-1011
 80011ec:	00a00793          	addi	x15,x0,10
 80011f0:	00a999b3          	sll	x19,x19,x10
 80011f4:	00000693          	addi	x13,x0,0
 80011f8:	00180913          	addi	x18,x16,1
 80011fc:	e087d6e3          	bge	x15,x8,8001008 <__muldf3+0xa8>
 8001200:	f8dff06f          	jal	x0,800118c <__muldf3+0x22c>
 8001204:	00100713          	addi	x14,x0,1
 8001208:	00000613          	addi	x12,x0,0
 800120c:	7ff00793          	addi	x15,x0,2047
 8001210:	03371713          	slli	x14,x14,0x33
 8001214:	e29ff06f          	jal	x0,800103c <__muldf3+0xdc>
 8001218:	fff00793          	addi	x15,x0,-1
 800121c:	0207d793          	srli	x15,x15,0x20
 8001220:	020ad693          	srli	x13,x21,0x20
 8001224:	0209d513          	srli	x10,x19,0x20
 8001228:	00fafab3          	and	x21,x21,x15
 800122c:	00f9f7b3          	and	x15,x19,x15
 8001230:	035785b3          	mul	x11,x15,x21
 8001234:	02f687b3          	mul	x15,x13,x15
 8001238:	0205d713          	srli	x14,x11,0x20
 800123c:	03550ab3          	mul	x21,x10,x21
 8001240:	00fa8ab3          	add	x21,x21,x15
 8001244:	01570733          	add	x14,x14,x21
 8001248:	02a686b3          	mul	x13,x13,x10
 800124c:	00f77863          	bgeu	x14,x15,800125c <__muldf3+0x2fc>
 8001250:	00100793          	addi	x15,x0,1
 8001254:	02079793          	slli	x15,x15,0x20
 8001258:	00f686b3          	add	x13,x13,x15
 800125c:	fff00513          	addi	x10,x0,-1
 8001260:	02055513          	srli	x10,x10,0x20
 8001264:	00a777b3          	and	x15,x14,x10
 8001268:	00a5f5b3          	and	x11,x11,x10
 800126c:	02079793          	slli	x15,x15,0x20
 8001270:	02075713          	srli	x14,x14,0x20
 8001274:	00b787b3          	add	x15,x15,x11
 8001278:	00d70733          	add	x14,x14,x13
 800127c:	00971713          	slli	x14,x14,0x9
 8001280:	00979693          	slli	x13,x15,0x9
 8001284:	00d036b3          	sltu	x13,x0,x13
 8001288:	0377d793          	srli	x15,x15,0x37
 800128c:	03875593          	srli	x11,x14,0x38
 8001290:	00f6e7b3          	or	x15,x13,x15
 8001294:	0015f693          	andi	x13,x11,1
 8001298:	00f769b3          	or	x19,x14,x15
 800129c:	00068a63          	beq	x13,x0,80012b0 <__muldf3+0x350>
 80012a0:	0019d793          	srli	x15,x19,0x1
 80012a4:	0019f713          	andi	x14,x19,1
 80012a8:	00e7e9b3          	or	x19,x15,x14
 80012ac:	00090813          	addi	x16,x18,0
 80012b0:	3ff80793          	addi	x15,x16,1023
 80012b4:	04f05a63          	bge	x0,x15,8001308 <__muldf3+0x3a8>
 80012b8:	0079f713          	andi	x14,x19,7
 80012bc:	00070a63          	beq	x14,x0,80012d0 <__muldf3+0x370>
 80012c0:	00f9f713          	andi	x14,x19,15
 80012c4:	00400693          	addi	x13,x0,4
 80012c8:	00d70463          	beq	x14,x13,80012d0 <__muldf3+0x370>
 80012cc:	00498993          	addi	x19,x19,4
 80012d0:	0389d713          	srli	x14,x19,0x38
 80012d4:	00177713          	andi	x14,x14,1
 80012d8:	00070c63          	beq	x14,x0,80012f0 <__muldf3+0x390>
 80012dc:	fff00793          	addi	x15,x0,-1
 80012e0:	03879793          	slli	x15,x15,0x38
 80012e4:	fff78793          	addi	x15,x15,-1
 80012e8:	00f9f9b3          	and	x19,x19,x15
 80012ec:	40080793          	addi	x15,x16,1024
 80012f0:	7fe00713          	addi	x14,x0,2046
 80012f4:	04f74063          	blt	x14,x15,8001334 <__muldf3+0x3d4>
 80012f8:	00999713          	slli	x14,x19,0x9
 80012fc:	00c75713          	srli	x14,x14,0xc
 8001300:	7ff7f793          	andi	x15,x15,2047
 8001304:	d39ff06f          	jal	x0,800103c <__muldf3+0xdc>
 8001308:	02078c63          	beq	x15,x0,8001340 <__muldf3+0x3e0>
 800130c:	00100693          	addi	x13,x0,1
 8001310:	40f686b3          	sub	x13,x13,x15
 8001314:	03800593          	addi	x11,x0,56
 8001318:	00000793          	addi	x15,x0,0
 800131c:	00000713          	addi	x14,x0,0
 8001320:	d0d5cee3          	blt	x11,x13,800103c <__muldf3+0xdc>
 8001324:	04000793          	addi	x15,x0,64
 8001328:	0006871b          	addiw	x14,x13,0
 800132c:	40d787bb          	subw	x15,x15,x13
 8001330:	0180006f          	jal	x0,8001348 <__muldf3+0x3e8>
 8001334:	7ff00793          	addi	x15,x0,2047
 8001338:	00000713          	addi	x14,x0,0
 800133c:	d01ff06f          	jal	x0,800103c <__muldf3+0xdc>
 8001340:	03f00793          	addi	x15,x0,63
 8001344:	00100713          	addi	x14,x0,1
 8001348:	00f997b3          	sll	x15,x19,x15
 800134c:	00f037b3          	sltu	x15,x0,x15
 8001350:	00e9d733          	srl	x14,x19,x14
 8001354:	00f76733          	or	x14,x14,x15
 8001358:	00777793          	andi	x15,x14,7
 800135c:	00078a63          	beq	x15,x0,8001370 <__muldf3+0x410>
 8001360:	00f77793          	andi	x15,x14,15
 8001364:	00400693          	addi	x13,x0,4
 8001368:	00d78463          	beq	x15,x13,8001370 <__muldf3+0x410>
 800136c:	00470713          	addi	x14,x14,4
 8001370:	03775793          	srli	x15,x14,0x37
 8001374:	0017f793          	andi	x15,x15,1
 8001378:	00078863          	beq	x15,x0,8001388 <__muldf3+0x428>
 800137c:	00100793          	addi	x15,x0,1
 8001380:	00000713          	addi	x14,x0,0
 8001384:	cb9ff06f          	jal	x0,800103c <__muldf3+0xdc>
 8001388:	00971713          	slli	x14,x14,0x9
 800138c:	00c75713          	srli	x14,x14,0xc
 8001390:	cadff06f          	jal	x0,800103c <__muldf3+0xdc>
 8001394:	00f00713          	addi	x14,x0,15
 8001398:	00e41a63          	bne	x8,x14,80013ac <__muldf3+0x44c>
 800139c:	00100713          	addi	x14,x0,1
 80013a0:	00000613          	addi	x12,x0,0
 80013a4:	03371713          	slli	x14,x14,0x33
 80013a8:	c95ff06f          	jal	x0,800103c <__muldf3+0xdc>
 80013ac:	00b00793          	addi	x15,x0,11
 80013b0:	00300693          	addi	x13,x0,3
 80013b4:	dd1ff06f          	jal	x0,8001184 <__muldf3+0x224>

00000000080013b8 <__subdf3>:
 80013b8:	fff00713          	addi	x14,x0,-1
 80013bc:	fe010113          	addi	x2,x2,-32
 80013c0:	00c75713          	srli	x14,x14,0xc
 80013c4:	0345d693          	srli	x13,x11,0x34
 80013c8:	00a777b3          	and	x15,x14,x10
 80013cc:	00813823          	sd	x8,16(x2)
 80013d0:	00b77733          	and	x14,x14,x11
 80013d4:	00913423          	sd	x9,8(x2)
 80013d8:	03455413          	srli	x8,x10,0x34
 80013dc:	03f55493          	srli	x9,x10,0x3f
 80013e0:	00113c23          	sd	x1,24(x2)
 80013e4:	01213023          	sd	x18,0(x2)
 80013e8:	7ff6f693          	andi	x13,x13,2047
 80013ec:	7ff00813          	addi	x16,x0,2047
 80013f0:	7ff47413          	andi	x8,x8,2047
 80013f4:	00048613          	addi	x12,x9,0
 80013f8:	00379793          	slli	x15,x15,0x3
 80013fc:	03f5d593          	srli	x11,x11,0x3f
 8001400:	00371713          	slli	x14,x14,0x3
 8001404:	13068a63          	beq	x13,x16,8001538 <__subdf3+0x180>
 8001408:	0015c593          	xori	x11,x11,1
 800140c:	40d4053b          	subw	x10,x8,x13
 8001410:	08b48a63          	beq	x9,x11,80014a4 <__subdf3+0xec>
 8001414:	3ca05e63          	bge	x0,x10,80017f0 <__subdf3+0x438>
 8001418:	20069263          	bne	x13,x0,800161c <__subdf3+0x264>
 800141c:	0c070c63          	beq	x14,x0,80014f4 <__subdf3+0x13c>
 8001420:	fff5051b          	addiw	x10,x10,-1
 8001424:	3e050663          	beq	x10,x0,8001810 <__subdf3+0x458>
 8001428:	09040a63          	beq	x8,x16,80014bc <__subdf3+0x104>
 800142c:	03800613          	addi	x12,x0,56
 8001430:	00100693          	addi	x13,x0,1
 8001434:	00a64e63          	blt	x12,x10,8001450 <__subdf3+0x98>
 8001438:	04000693          	addi	x13,x0,64
 800143c:	40a686bb          	subw	x13,x13,x10
 8001440:	00d716b3          	sll	x13,x14,x13
 8001444:	00a75533          	srl	x10,x14,x10
 8001448:	00d036b3          	sltu	x13,x0,x13
 800144c:	00d566b3          	or	x13,x10,x13
 8001450:	40d787b3          	sub	x15,x15,x13
 8001454:	0377d713          	srli	x14,x15,0x37
 8001458:	00177713          	andi	x14,x14,1
 800145c:	1c071a63          	bne	x14,x0,8001630 <__subdf3+0x278>
 8001460:	0077f713          	andi	x14,x15,7
 8001464:	08070863          	beq	x14,x0,80014f4 <__subdf3+0x13c>
 8001468:	00f7f713          	andi	x14,x15,15
 800146c:	00400693          	addi	x13,x0,4
 8001470:	00d70463          	beq	x14,x13,8001478 <__subdf3+0xc0>
 8001474:	00478793          	addi	x15,x15,4
 8001478:	0377d713          	srli	x14,x15,0x37
 800147c:	00177713          	andi	x14,x14,1
 8001480:	06070a63          	beq	x14,x0,80014f4 <__subdf3+0x13c>
 8001484:	00140413          	addi	x8,x8,1
 8001488:	7ff00713          	addi	x14,x0,2047
 800148c:	0014f613          	andi	x12,x9,1
 8001490:	18e40063          	beq	x8,x14,8001610 <__subdf3+0x258>
 8001494:	00979713          	slli	x14,x15,0x9
 8001498:	7ff47513          	andi	x10,x8,2047
 800149c:	00c75713          	srli	x14,x14,0xc
 80014a0:	0700006f          	jal	x0,8001510 <__subdf3+0x158>
 80014a4:	0ea05463          	bge	x0,x10,800158c <__subdf3+0x1d4>
 80014a8:	22069063          	bne	x13,x0,80016c8 <__subdf3+0x310>
 80014ac:	04070463          	beq	x14,x0,80014f4 <__subdf3+0x13c>
 80014b0:	fff5051b          	addiw	x10,x10,-1
 80014b4:	32050a63          	beq	x10,x0,80017e8 <__subdf3+0x430>
 80014b8:	23041063          	bne	x8,x16,80016d8 <__subdf3+0x320>
 80014bc:	0037d793          	srli	x15,x15,0x3
 80014c0:	0014f613          	andi	x12,x9,1
 80014c4:	7ff00513          	addi	x10,x0,2047
 80014c8:	00000713          	addi	x14,x0,0
 80014cc:	04078263          	beq	x15,x0,8001510 <__subdf3+0x158>
 80014d0:	00100713          	addi	x14,x0,1
 80014d4:	00000613          	addi	x12,x0,0
 80014d8:	7ff00513          	addi	x10,x0,2047
 80014dc:	03371713          	slli	x14,x14,0x33
 80014e0:	0300006f          	jal	x0,8001510 <__subdf3+0x158>
 80014e4:	28079463          	bne	x15,x0,800176c <__subdf3+0x3b4>
 80014e8:	00068413          	addi	x8,x13,0
 80014ec:	00058493          	addi	x9,x11,0
 80014f0:	00070793          	addi	x15,x14,0
 80014f4:	7ff00713          	addi	x14,x0,2047
 80014f8:	0037d793          	srli	x15,x15,0x3
 80014fc:	fce402e3          	beq	x8,x14,80014c0 <__subdf3+0x108>
 8001500:	00c79793          	slli	x15,x15,0xc
 8001504:	00c7d713          	srli	x14,x15,0xc
 8001508:	7ff47513          	andi	x10,x8,2047
 800150c:	0014f613          	andi	x12,x9,1
 8001510:	01813083          	ld	x1,24(x2)
 8001514:	01013403          	ld	x8,16(x2)
 8001518:	03451513          	slli	x10,x10,0x34
 800151c:	00e56533          	or	x10,x10,x14
 8001520:	03f61793          	slli	x15,x12,0x3f
 8001524:	00813483          	ld	x9,8(x2)
 8001528:	00013903          	ld	x18,0(x2)
 800152c:	00f56533          	or	x10,x10,x15
 8001530:	02010113          	addi	x2,x2,32
 8001534:	00008067          	jalr	x0,0(x1)
 8001538:	8014051b          	addiw	x10,x8,-2047
 800153c:	02071263          	bne	x14,x0,8001560 <__subdf3+0x1a8>
 8001540:	0015c593          	xori	x11,x11,1
 8001544:	06b48a63          	beq	x9,x11,80015b8 <__subdf3+0x200>
 8001548:	12050a63          	beq	x10,x0,800167c <__subdf3+0x2c4>
 800154c:	f8040ce3          	beq	x8,x0,80014e4 <__subdf3+0x12c>
 8001550:	00070793          	addi	x15,x14,0
 8001554:	00058493          	addi	x9,x11,0
 8001558:	0037d793          	srli	x15,x15,0x3
 800155c:	f65ff06f          	jal	x0,80014c0 <__subdf3+0x108>
 8001560:	feb494e3          	bne	x9,x11,8001548 <__subdf3+0x190>
 8001564:	06050463          	beq	x10,x0,80015cc <__subdf3+0x214>
 8001568:	00041c63          	bne	x8,x0,8001580 <__subdf3+0x1c8>
 800156c:	30078863          	beq	x15,x0,800187c <__subdf3+0x4c4>
 8001570:	fff54893          	xori	x17,x10,-1
 8001574:	30088a63          	beq	x17,x0,8001888 <__subdf3+0x4d0>
 8001578:	7ff00593          	addi	x11,x0,2047
 800157c:	02b69463          	bne	x13,x11,80015a4 <__subdf3+0x1ec>
 8001580:	00070793          	addi	x15,x14,0
 8001584:	0037d793          	srli	x15,x15,0x3
 8001588:	f39ff06f          	jal	x0,80014c0 <__subdf3+0x108>
 800158c:	04050063          	beq	x10,x0,80015cc <__subdf3+0x214>
 8001590:	fc040ee3          	beq	x8,x0,800156c <__subdf3+0x1b4>
 8001594:	00100593          	addi	x11,x0,1
 8001598:	03759593          	slli	x11,x11,0x37
 800159c:	40a008bb          	subw	x17,x0,x10
 80015a0:	00b7e7b3          	or	x15,x15,x11
 80015a4:	03800593          	addi	x11,x0,56
 80015a8:	2915d863          	bge	x11,x17,8001838 <__subdf3+0x480>
 80015ac:	00170793          	addi	x15,x14,1
 80015b0:	00068413          	addi	x8,x13,0
 80015b4:	eb5ff06f          	jal	x0,8001468 <__subdf3+0xb0>
 80015b8:	00050a63          	beq	x10,x0,80015cc <__subdf3+0x214>
 80015bc:	fa0408e3          	beq	x8,x0,800156c <__subdf3+0x1b4>
 80015c0:	00000793          	addi	x15,x0,0
 80015c4:	0037d793          	srli	x15,x15,0x3
 80015c8:	ef9ff06f          	jal	x0,80014c0 <__subdf3+0x108>
 80015cc:	00140593          	addi	x11,x8,1
 80015d0:	7fe5f693          	andi	x13,x11,2046
 80015d4:	1c069e63          	bne	x13,x0,80017b0 <__subdf3+0x3f8>
 80015d8:	24041863          	bne	x8,x0,8001828 <__subdf3+0x470>
 80015dc:	22078e63          	beq	x15,x0,8001818 <__subdf3+0x460>
 80015e0:	22070e63          	beq	x14,x0,800181c <__subdf3+0x464>
 80015e4:	00e787b3          	add	x15,x15,x14
 80015e8:	0377d693          	srli	x13,x15,0x37
 80015ec:	0016f693          	andi	x13,x13,1
 80015f0:	00068c63          	beq	x13,x0,8001608 <__subdf3+0x250>
 80015f4:	fff00713          	addi	x14,x0,-1
 80015f8:	03771713          	slli	x14,x14,0x37
 80015fc:	fff70713          	addi	x14,x14,-1
 8001600:	00e7f7b3          	and	x15,x15,x14
 8001604:	00100413          	addi	x8,x0,1
 8001608:	0037d793          	srli	x15,x15,0x3
 800160c:	ef5ff06f          	jal	x0,8001500 <__subdf3+0x148>
 8001610:	7ff00513          	addi	x10,x0,2047
 8001614:	00000713          	addi	x14,x0,0
 8001618:	ef9ff06f          	jal	x0,8001510 <__subdf3+0x158>
 800161c:	eb0400e3          	beq	x8,x16,80014bc <__subdf3+0x104>
 8001620:	00100693          	addi	x13,x0,1
 8001624:	03769693          	slli	x13,x13,0x37
 8001628:	00d76733          	or	x14,x14,x13
 800162c:	e01ff06f          	jal	x0,800142c <__subdf3+0x74>
 8001630:	00979913          	slli	x18,x15,0x9
 8001634:	00995913          	srli	x18,x18,0x9
 8001638:	00090513          	addi	x10,x18,0
 800163c:	e5dfe0ef          	jal	x1,8000498 <__clzdi2>
 8001640:	ff85071b          	addiw	x14,x10,-8
 8001644:	00e91933          	sll	x18,x18,x14
 8001648:	06874463          	blt	x14,x8,80016b0 <__subdf3+0x2f8>
 800164c:	4087053b          	subw	x10,x14,x8
 8001650:	0015051b          	addiw	x10,x10,1
 8001654:	04000793          	addi	x15,x0,64
 8001658:	40a787bb          	subw	x15,x15,x10
 800165c:	00f917b3          	sll	x15,x18,x15
 8001660:	00f037b3          	sltu	x15,x0,x15
 8001664:	00a95933          	srl	x18,x18,x10
 8001668:	00f967b3          	or	x15,x18,x15
 800166c:	00000413          	addi	x8,x0,0
 8001670:	0077f713          	andi	x14,x15,7
 8001674:	de071ae3          	bne	x14,x0,8001468 <__subdf3+0xb0>
 8001678:	e01ff06f          	jal	x0,8001478 <__subdf3+0xc0>
 800167c:	00140693          	addi	x13,x8,1
 8001680:	7fe6f693          	andi	x13,x13,2046
 8001684:	06069263          	bne	x13,x0,80016e8 <__subdf3+0x330>
 8001688:	14041463          	bne	x8,x0,80017d0 <__subdf3+0x418>
 800168c:	1c078863          	beq	x15,x0,800185c <__subdf3+0x4a4>
 8001690:	18070663          	beq	x14,x0,800181c <__subdf3+0x464>
 8001694:	40e78633          	sub	x12,x15,x14
 8001698:	03765693          	srli	x13,x12,0x37
 800169c:	0016f693          	andi	x13,x13,1
 80016a0:	1e068a63          	beq	x13,x0,8001894 <__subdf3+0x4dc>
 80016a4:	40f707b3          	sub	x15,x14,x15
 80016a8:	00058493          	addi	x9,x11,0
 80016ac:	fc5ff06f          	jal	x0,8001670 <__subdf3+0x2b8>
 80016b0:	fff00793          	addi	x15,x0,-1
 80016b4:	03779793          	slli	x15,x15,0x37
 80016b8:	fff78793          	addi	x15,x15,-1
 80016bc:	40e40433          	sub	x8,x8,x14
 80016c0:	00f977b3          	and	x15,x18,x15
 80016c4:	fadff06f          	jal	x0,8001670 <__subdf3+0x2b8>
 80016c8:	df040ae3          	beq	x8,x16,80014bc <__subdf3+0x104>
 80016cc:	00100693          	addi	x13,x0,1
 80016d0:	03769693          	slli	x13,x13,0x37
 80016d4:	00d76733          	or	x14,x14,x13
 80016d8:	03800693          	addi	x13,x0,56
 80016dc:	02a6d863          	bge	x13,x10,800170c <__subdf3+0x354>
 80016e0:	00178793          	addi	x15,x15,1
 80016e4:	d85ff06f          	jal	x0,8001468 <__subdf3+0xb0>
 80016e8:	40e78933          	sub	x18,x15,x14
 80016ec:	03795693          	srli	x13,x18,0x37
 80016f0:	0016f693          	andi	x13,x13,1
 80016f4:	0e069463          	bne	x13,x0,80017dc <__subdf3+0x424>
 80016f8:	f40910e3          	bne	x18,x0,8001638 <__subdf3+0x280>
 80016fc:	00000613          	addi	x12,x0,0
 8001700:	00000513          	addi	x10,x0,0
 8001704:	00000713          	addi	x14,x0,0
 8001708:	e09ff06f          	jal	x0,8001510 <__subdf3+0x158>
 800170c:	04000693          	addi	x13,x0,64
 8001710:	40a686bb          	subw	x13,x13,x10
 8001714:	00d716b3          	sll	x13,x14,x13
 8001718:	00a75533          	srl	x10,x14,x10
 800171c:	00d03733          	sltu	x14,x0,x13
 8001720:	00e56533          	or	x10,x10,x14
 8001724:	00a787b3          	add	x15,x15,x10
 8001728:	0377d713          	srli	x14,x15,0x37
 800172c:	00177713          	andi	x14,x14,1
 8001730:	d20708e3          	beq	x14,x0,8001460 <__subdf3+0xa8>
 8001734:	00140413          	addi	x8,x8,1
 8001738:	7ff00713          	addi	x14,x0,2047
 800173c:	ece40ae3          	beq	x8,x14,8001610 <__subdf3+0x258>
 8001740:	1ff00713          	addi	x14,x0,511
 8001744:	03671713          	slli	x14,x14,0x36
 8001748:	0017d693          	srli	x13,x15,0x1
 800174c:	fff70713          	addi	x14,x14,-1
 8001750:	00e6f733          	and	x14,x13,x14
 8001754:	0017f793          	andi	x15,x15,1
 8001758:	00f767b3          	or	x15,x14,x15
 800175c:	0077f693          	andi	x13,x15,7
 8001760:	d00694e3          	bne	x13,x0,8001468 <__subdf3+0xb0>
 8001764:	0037d793          	srli	x15,x15,0x3
 8001768:	d99ff06f          	jal	x0,8001500 <__subdf3+0x148>
 800176c:	fff54893          	xori	x17,x10,-1
 8001770:	0e088e63          	beq	x17,x0,800186c <__subdf3+0x4b4>
 8001774:	7ff00613          	addi	x12,x0,2047
 8001778:	00058493          	addi	x9,x11,0
 800177c:	e0c682e3          	beq	x13,x12,8001580 <__subdf3+0x1c8>
 8001780:	03800593          	addi	x11,x0,56
 8001784:	00100613          	addi	x12,x0,1
 8001788:	0115ce63          	blt	x11,x17,80017a4 <__subdf3+0x3ec>
 800178c:	04000613          	addi	x12,x0,64
 8001790:	4116063b          	subw	x12,x12,x17
 8001794:	00c79633          	sll	x12,x15,x12
 8001798:	0117d8b3          	srl	x17,x15,x17
 800179c:	00c03633          	sltu	x12,x0,x12
 80017a0:	00c8e633          	or	x12,x17,x12
 80017a4:	40c707b3          	sub	x15,x14,x12
 80017a8:	00068413          	addi	x8,x13,0
 80017ac:	ca9ff06f          	jal	x0,8001454 <__subdf3+0x9c>
 80017b0:	7ff00693          	addi	x13,x0,2047
 80017b4:	e4d58ee3          	beq	x11,x13,8001610 <__subdf3+0x258>
 80017b8:	00e78733          	add	x14,x15,x14
 80017bc:	00175793          	srli	x15,x14,0x1
 80017c0:	0077f693          	andi	x13,x15,7
 80017c4:	00058413          	addi	x8,x11,0
 80017c8:	ca0690e3          	bne	x13,x0,8001468 <__subdf3+0xb0>
 80017cc:	f99ff06f          	jal	x0,8001764 <__subdf3+0x3ac>
 80017d0:	04079e63          	bne	x15,x0,800182c <__subdf3+0x474>
 80017d4:	ce070ee3          	beq	x14,x0,80014d0 <__subdf3+0x118>
 80017d8:	d79ff06f          	jal	x0,8001550 <__subdf3+0x198>
 80017dc:	40f70933          	sub	x18,x14,x15
 80017e0:	00058493          	addi	x9,x11,0
 80017e4:	e55ff06f          	jal	x0,8001638 <__subdf3+0x280>
 80017e8:	00e787b3          	add	x15,x15,x14
 80017ec:	f3dff06f          	jal	x0,8001728 <__subdf3+0x370>
 80017f0:	e80506e3          	beq	x10,x0,800167c <__subdf3+0x2c4>
 80017f4:	ce0408e3          	beq	x8,x0,80014e4 <__subdf3+0x12c>
 80017f8:	00100613          	addi	x12,x0,1
 80017fc:	03761613          	slli	x12,x12,0x37
 8001800:	40a008bb          	subw	x17,x0,x10
 8001804:	00c7e7b3          	or	x15,x15,x12
 8001808:	00058493          	addi	x9,x11,0
 800180c:	f75ff06f          	jal	x0,8001780 <__subdf3+0x3c8>
 8001810:	40e787b3          	sub	x15,x15,x14
 8001814:	c41ff06f          	jal	x0,8001454 <__subdf3+0x9c>
 8001818:	00070793          	addi	x15,x14,0
 800181c:	0037d793          	srli	x15,x15,0x3
 8001820:	00000413          	addi	x8,x0,0
 8001824:	cddff06f          	jal	x0,8001500 <__subdf3+0x148>
 8001828:	d4078ce3          	beq	x15,x0,8001580 <__subdf3+0x1c8>
 800182c:	ca0712e3          	bne	x14,x0,80014d0 <__subdf3+0x118>
 8001830:	0037d793          	srli	x15,x15,0x3
 8001834:	c8dff06f          	jal	x0,80014c0 <__subdf3+0x108>
 8001838:	04000593          	addi	x11,x0,64
 800183c:	411585bb          	subw	x11,x11,x17
 8001840:	00b795b3          	sll	x11,x15,x11
 8001844:	0117d8b3          	srl	x17,x15,x17
 8001848:	00b037b3          	sltu	x15,x0,x11
 800184c:	00f8e8b3          	or	x17,x17,x15
 8001850:	00e887b3          	add	x15,x17,x14
 8001854:	00068413          	addi	x8,x13,0
 8001858:	ed1ff06f          	jal	x0,8001728 <__subdf3+0x370>
 800185c:	ea0700e3          	beq	x14,x0,80016fc <__subdf3+0x344>
 8001860:	00058493          	addi	x9,x11,0
 8001864:	00070793          	addi	x15,x14,0
 8001868:	fb5ff06f          	jal	x0,800181c <__subdf3+0x464>
 800186c:	40f707b3          	sub	x15,x14,x15
 8001870:	00068413          	addi	x8,x13,0
 8001874:	00058493          	addi	x9,x11,0
 8001878:	bddff06f          	jal	x0,8001454 <__subdf3+0x9c>
 800187c:	00068413          	addi	x8,x13,0
 8001880:	00070793          	addi	x15,x14,0
 8001884:	c71ff06f          	jal	x0,80014f4 <__subdf3+0x13c>
 8001888:	00e787b3          	add	x15,x15,x14
 800188c:	00068413          	addi	x8,x13,0
 8001890:	e99ff06f          	jal	x0,8001728 <__subdf3+0x370>
 8001894:	00060793          	addi	x15,x12,0
 8001898:	e60602e3          	beq	x12,x0,80016fc <__subdf3+0x344>
 800189c:	0037d793          	srli	x15,x15,0x3
 80018a0:	c61ff06f          	jal	x0,8001500 <__subdf3+0x148>

00000000080018a4 <pow>:
 80018a4:	f4010113          	addi	x2,x2,-192
 80018a8:	03455693          	srli	x13,x10,0x34
 80018ac:	0a813823          	sd	x8,176(x2)
 80018b0:	0a913423          	sd	x9,168(x2)
 80018b4:	0b213023          	sd	x18,160(x2)
 80018b8:	07713c23          	sd	x23,120(x2)
 80018bc:	0345d413          	srli	x8,x11,0x34
 80018c0:	0a113c23          	sd	x1,184(x2)
 80018c4:	09313c23          	sd	x19,152(x2)
 80018c8:	09413823          	sd	x20,144(x2)
 80018cc:	09513423          	sd	x21,136(x2)
 80018d0:	09613023          	sd	x22,128(x2)
 80018d4:	07813823          	sd	x24,112(x2)
 80018d8:	07913423          	sd	x25,104(x2)
 80018dc:	07a13023          	sd	x26,96(x2)
 80018e0:	05b13c23          	sd	x27,88(x2)
 80018e4:	fff6861b          	addiw	x12,x13,-1
 80018e8:	7fd00713          	addi	x14,x0,2045
 80018ec:	00058913          	addi	x18,x11,0
 80018f0:	00058493          	addi	x9,x11,0
 80018f4:	00050793          	addi	x15,x10,0
 80018f8:	00050b93          	addi	x23,x10,0
 80018fc:	00040593          	addi	x11,x8,0
 8001900:	48c76a63          	bltu	x14,x12,8001d94 <pow+0x4f0>
 8001904:	7ff47713          	andi	x14,x8,2047
 8001908:	c427051b          	addiw	x10,x14,-958
 800190c:	07f00613          	addi	x12,x0,127
 8001910:	00000a13          	addi	x20,x0,0
 8001914:	4ea66a63          	bltu	x12,x10,8001e08 <pow+0x564>
 8001918:	c0197537          	lui	x10,0xc0197
 800191c:	aab50513          	addi	x10,x10,-1365 # ffffffffc0196aab <_estack+0xffffffff9c196aab>
 8001920:	fff00b13          	addi	x22,x0,-1
 8001924:	02051513          	slli	x10,x10,0x20
 8001928:	00ab8533          	add	x10,x23,x10
 800192c:	034b1793          	slli	x15,x22,0x34
 8001930:	00f577b3          	and	x15,x10,x15
 8001934:	02d55993          	srli	x19,x10,0x2d
 8001938:	43455513          	srai	x10,x10,0x34
 800193c:	40fb8bb3          	sub	x23,x23,x15
 8001940:	07f9f993          	andi	x19,x19,127
 8001944:	aa9fe0ef          	jal	x1,80003ec <__floatsidf>
 8001948:	00298793          	addi	x15,x19,2
 800194c:	08002437          	lui	x8,0x8002
 8001950:	52040413          	addi	x8,x8,1312 # 8002520 <__pow_log_data>
 8001954:	00579793          	slli	x15,x15,0x5
 8001958:	00f407b3          	add	x15,x8,x15
 800195c:	00100493          	addi	x9,x0,1
 8001960:	0087bc83          	ld	x25,8(x15)
 8001964:	01f49493          	slli	x9,x9,0x1f
 8001968:	020b1793          	slli	x15,x22,0x20
 800196c:	009b84b3          	add	x9,x23,x9
 8001970:	00f4f4b3          	and	x9,x9,x15
 8001974:	00050c13          	addi	x24,x10,0
 8001978:	00048593          	addi	x11,x9,0
 800197c:	000c8513          	addi	x10,x25,0
 8001980:	de0ff0ef          	jal	x1,8000f60 <__muldf3>
 8001984:	08004ab7          	lui	x21,0x8004
 8001988:	dd8ab583          	ld	x11,-552(x21) # 8003dd8 <__exp_data+0x870>
 800198c:	00599993          	slli	x19,x19,0x5
 8001990:	013409b3          	add	x19,x8,x19
 8001994:	a25ff0ef          	jal	x1,80013b8 <__subdf3>
 8001998:	00050793          	addi	x15,x10,0
 800199c:	00048593          	addi	x11,x9,0
 80019a0:	000b8513          	addi	x10,x23,0
 80019a4:	00078b93          	addi	x23,x15,0
 80019a8:	a11ff0ef          	jal	x1,80013b8 <__subdf3>
 80019ac:	000c8593          	addi	x11,x25,0
 80019b0:	db0ff0ef          	jal	x1,8000f60 <__muldf3>
 80019b4:	00050593          	addi	x11,x10,0
 80019b8:	02a13423          	sd	x10,40(x2)
 80019bc:	000b8513          	addi	x10,x23,0
 80019c0:	b49fe0ef          	jal	x1,8000508 <__adddf3>
 80019c4:	00043583          	ld	x11,0(x8)
 80019c8:	00050493          	addi	x9,x10,0
 80019cc:	000c0513          	addi	x10,x24,0
 80019d0:	d90ff0ef          	jal	x1,8000f60 <__muldf3>
 80019d4:	0589b583          	ld	x11,88(x19)
 80019d8:	b31fe0ef          	jal	x1,8000508 <__adddf3>
 80019dc:	00050593          	addi	x11,x10,0
 80019e0:	02a13023          	sd	x10,32(x2)
 80019e4:	00048513          	addi	x10,x9,0
 80019e8:	b21fe0ef          	jal	x1,8000508 <__adddf3>
 80019ec:	01043d83          	ld	x27,16(x8)
 80019f0:	00050c93          	addi	x25,x10,0
 80019f4:	00048513          	addi	x10,x9,0
 80019f8:	000d8593          	addi	x11,x27,0
 80019fc:	d64ff0ef          	jal	x1,8000f60 <__muldf3>
 8001a00:	00050593          	addi	x11,x10,0
 8001a04:	00a13c23          	sd	x10,24(x2)
 8001a08:	00048513          	addi	x10,x9,0
 8001a0c:	d54ff0ef          	jal	x1,8000f60 <__muldf3>
 8001a10:	00050d13          	addi	x26,x10,0
 8001a14:	000d8593          	addi	x11,x27,0
 8001a18:	000b8513          	addi	x10,x23,0
 8001a1c:	d44ff0ef          	jal	x1,8000f60 <__muldf3>
 8001a20:	00050593          	addi	x11,x10,0
 8001a24:	00a13823          	sd	x10,16(x2)
 8001a28:	000b8513          	addi	x10,x23,0
 8001a2c:	d34ff0ef          	jal	x1,8000f60 <__muldf3>
 8001a30:	00050593          	addi	x11,x10,0
 8001a34:	00a13423          	sd	x10,8(x2)
 8001a38:	000c8513          	addi	x10,x25,0
 8001a3c:	acdfe0ef          	jal	x1,8000508 <__adddf3>
 8001a40:	04043583          	ld	x11,64(x8)
 8001a44:	00050b93          	addi	x23,x10,0
 8001a48:	00048513          	addi	x10,x9,0
 8001a4c:	d14ff0ef          	jal	x1,8000f60 <__muldf3>
 8001a50:	03843583          	ld	x11,56(x8)
 8001a54:	ab5fe0ef          	jal	x1,8000508 <__adddf3>
 8001a58:	000d0593          	addi	x11,x26,0
 8001a5c:	d04ff0ef          	jal	x1,8000f60 <__muldf3>
 8001a60:	03043583          	ld	x11,48(x8)
 8001a64:	00050d93          	addi	x27,x10,0
 8001a68:	00048513          	addi	x10,x9,0
 8001a6c:	cf4ff0ef          	jal	x1,8000f60 <__muldf3>
 8001a70:	02843583          	ld	x11,40(x8)
 8001a74:	a95fe0ef          	jal	x1,8000508 <__adddf3>
 8001a78:	00050593          	addi	x11,x10,0
 8001a7c:	000d8513          	addi	x10,x27,0
 8001a80:	a89fe0ef          	jal	x1,8000508 <__adddf3>
 8001a84:	000d0593          	addi	x11,x26,0
 8001a88:	cd8ff0ef          	jal	x1,8000f60 <__muldf3>
 8001a8c:	02043583          	ld	x11,32(x8)
 8001a90:	00050d93          	addi	x27,x10,0
 8001a94:	00048513          	addi	x10,x9,0
 8001a98:	cc8ff0ef          	jal	x1,8000f60 <__muldf3>
 8001a9c:	01843583          	ld	x11,24(x8)
 8001aa0:	a69fe0ef          	jal	x1,8000508 <__adddf3>
 8001aa4:	00050593          	addi	x11,x10,0
 8001aa8:	000d8513          	addi	x10,x27,0
 8001aac:	a5dfe0ef          	jal	x1,8000508 <__adddf3>
 8001ab0:	00050d93          	addi	x27,x10,0
 8001ab4:	000d0593          	addi	x11,x26,0
 8001ab8:	00048513          	addi	x10,x9,0
 8001abc:	ca4ff0ef          	jal	x1,8000f60 <__muldf3>
 8001ac0:	00050593          	addi	x11,x10,0
 8001ac4:	000d8513          	addi	x10,x27,0
 8001ac8:	c98ff0ef          	jal	x1,8000f60 <__muldf3>
 8001acc:	00843583          	ld	x11,8(x8)
 8001ad0:	00050893          	addi	x17,x10,0
 8001ad4:	000c0513          	addi	x10,x24,0
 8001ad8:	00088413          	addi	x8,x17,0
 8001adc:	c84ff0ef          	jal	x1,8000f60 <__muldf3>
 8001ae0:	0609b583          	ld	x11,96(x19)
 8001ae4:	a25fe0ef          	jal	x1,8000508 <__adddf3>
 8001ae8:	02013803          	ld	x16,32(x2)
 8001aec:	00050993          	addi	x19,x10,0
 8001af0:	000c8593          	addi	x11,x25,0
 8001af4:	00080513          	addi	x10,x16,0
 8001af8:	8c1ff0ef          	jal	x1,80013b8 <__subdf3>
 8001afc:	00048593          	addi	x11,x9,0
 8001b00:	a09fe0ef          	jal	x1,8000508 <__adddf3>
 8001b04:	00050593          	addi	x11,x10,0
 8001b08:	00098513          	addi	x10,x19,0
 8001b0c:	9fdfe0ef          	jal	x1,8000508 <__adddf3>
 8001b10:	01013603          	ld	x12,16(x2)
 8001b14:	01813683          	ld	x13,24(x2)
 8001b18:	00050493          	addi	x9,x10,0
 8001b1c:	00060593          	addi	x11,x12,0
 8001b20:	00068513          	addi	x10,x13,0
 8001b24:	9e5fe0ef          	jal	x1,8000508 <__adddf3>
 8001b28:	02813703          	ld	x14,40(x2)
 8001b2c:	00070593          	addi	x11,x14,0
 8001b30:	c30ff0ef          	jal	x1,8000f60 <__muldf3>
 8001b34:	00050593          	addi	x11,x10,0
 8001b38:	00048513          	addi	x10,x9,0
 8001b3c:	9cdfe0ef          	jal	x1,8000508 <__adddf3>
 8001b40:	00050493          	addi	x9,x10,0
 8001b44:	000b8593          	addi	x11,x23,0
 8001b48:	000c8513          	addi	x10,x25,0
 8001b4c:	86dff0ef          	jal	x1,80013b8 <__subdf3>
 8001b50:	00813783          	ld	x15,8(x2)
 8001b54:	00078593          	addi	x11,x15,0
 8001b58:	9b1fe0ef          	jal	x1,8000508 <__adddf3>
 8001b5c:	00050593          	addi	x11,x10,0
 8001b60:	00048513          	addi	x10,x9,0
 8001b64:	9a5fe0ef          	jal	x1,8000508 <__adddf3>
 8001b68:	00050593          	addi	x11,x10,0
 8001b6c:	00040513          	addi	x10,x8,0
 8001b70:	999fe0ef          	jal	x1,8000508 <__adddf3>
 8001b74:	00050493          	addi	x9,x10,0
 8001b78:	00050593          	addi	x11,x10,0
 8001b7c:	000b8513          	addi	x10,x23,0
 8001b80:	989fe0ef          	jal	x1,8000508 <__adddf3>
 8001b84:	f8000437          	lui	x8,0xf8000
 8001b88:	00a47cb3          	and	x25,x8,x10
 8001b8c:	01247433          	and	x8,x8,x18
 8001b90:	00050c13          	addi	x24,x10,0
 8001b94:	000c8593          	addi	x11,x25,0
 8001b98:	00040513          	addi	x10,x8,0 # fffffffff8000000 <_estack+0xffffffffd4000000>
 8001b9c:	bc4ff0ef          	jal	x1,8000f60 <__muldf3>
 8001ba0:	00050993          	addi	x19,x10,0
 8001ba4:	000c0593          	addi	x11,x24,0
 8001ba8:	000b8513          	addi	x10,x23,0
 8001bac:	80dff0ef          	jal	x1,80013b8 <__subdf3>
 8001bb0:	00048593          	addi	x11,x9,0
 8001bb4:	955fe0ef          	jal	x1,8000508 <__adddf3>
 8001bb8:	00050493          	addi	x9,x10,0
 8001bbc:	000c8593          	addi	x11,x25,0
 8001bc0:	000c0513          	addi	x10,x24,0
 8001bc4:	ff4ff0ef          	jal	x1,80013b8 <__subdf3>
 8001bc8:	00050593          	addi	x11,x10,0
 8001bcc:	00048513          	addi	x10,x9,0
 8001bd0:	939fe0ef          	jal	x1,8000508 <__adddf3>
 8001bd4:	00090593          	addi	x11,x18,0
 8001bd8:	b88ff0ef          	jal	x1,8000f60 <__muldf3>
 8001bdc:	00050793          	addi	x15,x10,0
 8001be0:	00040593          	addi	x11,x8,0
 8001be4:	00090513          	addi	x10,x18,0
 8001be8:	00078413          	addi	x8,x15,0
 8001bec:	fccff0ef          	jal	x1,80013b8 <__subdf3>
 8001bf0:	000c8593          	addi	x11,x25,0
 8001bf4:	b6cff0ef          	jal	x1,8000f60 <__muldf3>
 8001bf8:	00050593          	addi	x11,x10,0
 8001bfc:	0349db93          	srli	x23,x19,0x34
 8001c00:	00040513          	addi	x10,x8,0
 8001c04:	905fe0ef          	jal	x1,8000508 <__adddf3>
 8001c08:	7ffbfb93          	andi	x23,x23,2047
 8001c0c:	c37b879b          	addiw	x15,x23,-969
 8001c10:	03e00713          	addi	x14,x0,62
 8001c14:	00050493          	addi	x9,x10,0
 8001c18:	24f76463          	bltu	x14,x15,8001e60 <pow+0x5bc>
 8001c1c:	08003437          	lui	x8,0x8003
 8001c20:	56840413          	addi	x8,x8,1384 # 8003568 <__exp_data>
 8001c24:	00043583          	ld	x11,0(x8)
 8001c28:	00843b03          	ld	x22,8(x8)
 8001c2c:	00098513          	addi	x10,x19,0
 8001c30:	b30ff0ef          	jal	x1,8000f60 <__muldf3>
 8001c34:	000b0593          	addi	x11,x22,0
 8001c38:	8d1fe0ef          	jal	x1,8000508 <__adddf3>
 8001c3c:	000b0593          	addi	x11,x22,0
 8001c40:	00050913          	addi	x18,x10,0
 8001c44:	f74ff0ef          	jal	x1,80013b8 <__subdf3>
 8001c48:	01043583          	ld	x11,16(x8)
 8001c4c:	00050b13          	addi	x22,x10,0
 8001c50:	012a0a33          	add	x20,x20,x18
 8001c54:	b0cff0ef          	jal	x1,8000f60 <__muldf3>
 8001c58:	00098593          	addi	x11,x19,0
 8001c5c:	8adfe0ef          	jal	x1,8000508 <__adddf3>
 8001c60:	01843583          	ld	x11,24(x8)
 8001c64:	00050993          	addi	x19,x10,0
 8001c68:	000b0513          	addi	x10,x22,0
 8001c6c:	af4ff0ef          	jal	x1,8000f60 <__muldf3>
 8001c70:	00050593          	addi	x11,x10,0
 8001c74:	00098513          	addi	x10,x19,0
 8001c78:	891fe0ef          	jal	x1,8000508 <__adddf3>
 8001c7c:	00050593          	addi	x11,x10,0
 8001c80:	00048513          	addi	x10,x9,0
 8001c84:	07f97493          	andi	x9,x18,127
 8001c88:	881fe0ef          	jal	x1,8000508 <__adddf3>
 8001c8c:	00149493          	slli	x9,x9,0x1
 8001c90:	00f48793          	addi	x15,x9,15
 8001c94:	00379793          	slli	x15,x15,0x3
 8001c98:	00f407b3          	add	x15,x8,x15
 8001c9c:	0007b783          	ld	x15,0(x15)
 8001ca0:	00050593          	addi	x11,x10,0
 8001ca4:	02da1a13          	slli	x20,x20,0x2d
 8001ca8:	00fa0a33          	add	x20,x20,x15
 8001cac:	00050993          	addi	x19,x10,0
 8001cb0:	ab0ff0ef          	jal	x1,8000f60 <__muldf3>
 8001cb4:	02843583          	ld	x11,40(x8)
 8001cb8:	00050b13          	addi	x22,x10,0
 8001cbc:	00098513          	addi	x10,x19,0
 8001cc0:	aa0ff0ef          	jal	x1,8000f60 <__muldf3>
 8001cc4:	02043583          	ld	x11,32(x8)
 8001cc8:	00e48493          	addi	x9,x9,14
 8001ccc:	00349493          	slli	x9,x9,0x3
 8001cd0:	839fe0ef          	jal	x1,8000508 <__adddf3>
 8001cd4:	000b0593          	addi	x11,x22,0
 8001cd8:	a88ff0ef          	jal	x1,8000f60 <__muldf3>
 8001cdc:	009404b3          	add	x9,x8,x9
 8001ce0:	0004b583          	ld	x11,0(x9)
 8001ce4:	00050493          	addi	x9,x10,0
 8001ce8:	00098513          	addi	x10,x19,0
 8001cec:	81dfe0ef          	jal	x1,8000508 <__adddf3>
 8001cf0:	00050593          	addi	x11,x10,0
 8001cf4:	00048513          	addi	x10,x9,0
 8001cf8:	811fe0ef          	jal	x1,8000508 <__adddf3>
 8001cfc:	03843583          	ld	x11,56(x8)
 8001d00:	00050493          	addi	x9,x10,0
 8001d04:	00098513          	addi	x10,x19,0
 8001d08:	a58ff0ef          	jal	x1,8000f60 <__muldf3>
 8001d0c:	03043583          	ld	x11,48(x8)
 8001d10:	ff8fe0ef          	jal	x1,8000508 <__adddf3>
 8001d14:	00050413          	addi	x8,x10,0
 8001d18:	000b0593          	addi	x11,x22,0
 8001d1c:	000b0513          	addi	x10,x22,0
 8001d20:	a40ff0ef          	jal	x1,8000f60 <__muldf3>
 8001d24:	00050593          	addi	x11,x10,0
 8001d28:	00040513          	addi	x10,x8,0
 8001d2c:	a34ff0ef          	jal	x1,8000f60 <__muldf3>
 8001d30:	00050593          	addi	x11,x10,0
 8001d34:	00048513          	addi	x10,x9,0
 8001d38:	fd0fe0ef          	jal	x1,8000508 <__adddf3>
 8001d3c:	160b8a63          	beq	x23,x0,8001eb0 <pow+0x60c>
 8001d40:	000a0593          	addi	x11,x20,0
 8001d44:	a1cff0ef          	jal	x1,8000f60 <__muldf3>
 8001d48:	000a0593          	addi	x11,x20,0
 8001d4c:	fbcfe0ef          	jal	x1,8000508 <__adddf3>
 8001d50:	00050593          	addi	x11,x10,0
 8001d54:	0b813083          	ld	x1,184(x2)
 8001d58:	0b013403          	ld	x8,176(x2)
 8001d5c:	0a813483          	ld	x9,168(x2)
 8001d60:	0a013903          	ld	x18,160(x2)
 8001d64:	09813983          	ld	x19,152(x2)
 8001d68:	09013a03          	ld	x20,144(x2)
 8001d6c:	08813a83          	ld	x21,136(x2)
 8001d70:	08013b03          	ld	x22,128(x2)
 8001d74:	07813b83          	ld	x23,120(x2)
 8001d78:	07013c03          	ld	x24,112(x2)
 8001d7c:	06813c83          	ld	x25,104(x2)
 8001d80:	06013d03          	ld	x26,96(x2)
 8001d84:	05813d83          	ld	x27,88(x2)
 8001d88:	00058513          	addi	x10,x11,0
 8001d8c:	0c010113          	addi	x2,x2,192
 8001d90:	00008067          	jalr	x0,0(x1)
 8001d94:	fff00993          	addi	x19,x0,-1
 8001d98:	00191813          	slli	x16,x18,0x1
 8001d9c:	03599713          	slli	x14,x19,0x35
 8001da0:	fff80893          	addi	x17,x16,-1
 8001da4:	ffe70613          	addi	x12,x14,-2
 8001da8:	35166863          	bltu	x12,x17,80020f8 <pow+0x854>
 8001dac:	00151713          	slli	x14,x10,0x1
 8001db0:	fff70713          	addi	x14,x14,-1
 8001db4:	36e66263          	bltu	x12,x14,8002118 <pow+0x874>
 8001db8:	28055063          	bge	x10,x0,8002038 <pow+0x794>
 8001dbc:	7ff47413          	andi	x8,x8,2047
 8001dc0:	3fe00713          	addi	x14,x0,1022
 8001dc4:	20875463          	bge	x14,x8,8001fcc <pow+0x728>
 8001dc8:	43300713          	addi	x14,x0,1075
 8001dcc:	3a874a63          	blt	x14,x8,8002180 <pow+0x8dc>
 8001dd0:	43300613          	addi	x12,x0,1075
 8001dd4:	4086063b          	subw	x12,x12,x8
 8001dd8:	00c99733          	sll	x14,x19,x12
 8001ddc:	fff74713          	xori	x14,x14,-1
 8001de0:	01277733          	and	x14,x14,x18
 8001de4:	1e071463          	bne	x14,x0,8001fcc <pow+0x728>
 8001de8:	00c95a33          	srl	x20,x18,x12
 8001dec:	001a7a13          	andi	x20,x20,1
 8001df0:	012a1a1b          	slliw	x20,x20,0x12
 8001df4:	00179b93          	slli	x23,x15,0x1
 8001df8:	001bdb93          	srli	x23,x23,0x1
 8001dfc:	7ff6f693          	andi	x13,x13,2047
 8001e00:	7ff5f713          	andi	x14,x11,2047
 8001e04:	01c0006f          	jal	x0,8001e20 <pow+0x57c>
 8001e08:	fff00613          	addi	x12,x0,-1
 8001e0c:	00191813          	slli	x16,x18,0x1
 8001e10:	03561613          	slli	x12,x12,0x35
 8001e14:	fff80513          	addi	x10,x16,-1
 8001e18:	ffe60613          	addi	x12,x12,-2
 8001e1c:	36a66663          	bltu	x12,x10,8002188 <pow+0x8e4>
 8001e20:	c427051b          	addiw	x10,x14,-958
 8001e24:	07f00613          	addi	x12,x0,127
 8001e28:	0007071b          	addiw	x14,x14,0
 8001e2c:	0aa67e63          	bgeu	x12,x10,8001ee8 <pow+0x644>
 8001e30:	3ff00693          	addi	x13,x0,1023
 8001e34:	03469693          	slli	x13,x13,0x34
 8001e38:	1cdb8a63          	beq	x23,x13,800200c <pow+0x768>
 8001e3c:	3bd00793          	addi	x15,x0,957
 8001e40:	12e7e863          	bltu	x15,x14,8001f70 <pow+0x6cc>
 8001e44:	080047b7          	lui	x15,0x8004
 8001e48:	2976fe63          	bgeu	x13,x23,80020e4 <pow+0x840>
 8001e4c:	dd87b583          	ld	x11,-552(x15) # 8003dd8 <__exp_data+0x870>
 8001e50:	00090513          	addi	x10,x18,0
 8001e54:	eb4fe0ef          	jal	x1,8000508 <__adddf3>
 8001e58:	00050593          	addi	x11,x10,0
 8001e5c:	ef9ff06f          	jal	x0,8001d54 <pow+0x4b0>
 8001e60:	1a07cc63          	blt	x15,x0,8002018 <pow+0x774>
 8001e64:	40800793          	addi	x15,x0,1032
 8001e68:	1177f063          	bgeu	x15,x23,8001f68 <pow+0x6c4>
 8001e6c:	000a0513          	addi	x10,x20,0
 8001e70:	1209c063          	blt	x19,x0,8001f90 <pow+0x6ec>
 8001e74:	0b013403          	ld	x8,176(x2)
 8001e78:	0b813083          	ld	x1,184(x2)
 8001e7c:	0a813483          	ld	x9,168(x2)
 8001e80:	0a013903          	ld	x18,160(x2)
 8001e84:	09813983          	ld	x19,152(x2)
 8001e88:	09013a03          	ld	x20,144(x2)
 8001e8c:	08813a83          	ld	x21,136(x2)
 8001e90:	08013b03          	ld	x22,128(x2)
 8001e94:	07813b83          	ld	x23,120(x2)
 8001e98:	07013c03          	ld	x24,112(x2)
 8001e9c:	06813c83          	ld	x25,104(x2)
 8001ea0:	06013d03          	ld	x26,96(x2)
 8001ea4:	05813d83          	ld	x27,88(x2)
 8001ea8:	0c010113          	addi	x2,x2,192
 8001eac:	4700006f          	jal	x0,800231c <__math_oflow>
 8001eb0:	02091793          	slli	x15,x18,0x20
 8001eb4:	0607c063          	blt	x15,x0,8001f14 <pow+0x670>
 8001eb8:	c0f00413          	addi	x8,x0,-1009
 8001ebc:	03441413          	slli	x8,x8,0x34
 8001ec0:	008a0433          	add	x8,x20,x8
 8001ec4:	00040593          	addi	x11,x8,0
 8001ec8:	898ff0ef          	jal	x1,8000f60 <__muldf3>
 8001ecc:	00040593          	addi	x11,x8,0
 8001ed0:	e38fe0ef          	jal	x1,8000508 <__adddf3>
 8001ed4:	080047b7          	lui	x15,0x8004
 8001ed8:	df07b583          	ld	x11,-528(x15) # 8003df0 <__exp_data+0x888>
 8001edc:	884ff0ef          	jal	x1,8000f60 <__muldf3>
 8001ee0:	00050593          	addi	x11,x10,0
 8001ee4:	e71ff06f          	jal	x0,8001d54 <pow+0x4b0>
 8001ee8:	a20698e3          	bne	x13,x0,8001918 <pow+0x74>
 8001eec:	08004737          	lui	x14,0x8004
 8001ef0:	de873583          	ld	x11,-536(x14) # 8003de8 <__exp_data+0x880>
 8001ef4:	00078513          	addi	x10,x15,0
 8001ef8:	868ff0ef          	jal	x1,8000f60 <__muldf3>
 8001efc:	00151b93          	slli	x23,x10,0x1
 8001f00:	ff300793          	addi	x15,x0,-13
 8001f04:	001bdb93          	srli	x23,x23,0x1
 8001f08:	03679793          	slli	x15,x15,0x36
 8001f0c:	00fb8bb3          	add	x23,x23,x15
 8001f10:	a09ff06f          	jal	x0,8001918 <pow+0x74>
 8001f14:	1ff00413          	addi	x8,x0,511
 8001f18:	03541413          	slli	x8,x8,0x35
 8001f1c:	008a0433          	add	x8,x20,x8
 8001f20:	00040593          	addi	x11,x8,0
 8001f24:	83cff0ef          	jal	x1,8000f60 <__muldf3>
 8001f28:	00050593          	addi	x11,x10,0
 8001f2c:	00050493          	addi	x9,x10,0
 8001f30:	00040513          	addi	x10,x8,0
 8001f34:	dd4fe0ef          	jal	x1,8000508 <__adddf3>
 8001f38:	00050913          	addi	x18,x10,0
 8001f3c:	2a8000ef          	jal	x1,80021e4 <fabs>
 8001f40:	dd8ab983          	ld	x19,-552(x21)
 8001f44:	00098593          	addi	x11,x19,0
 8001f48:	f45fe0ef          	jal	x1,8000e8c <__ledf2>
 8001f4c:	0e054c63          	blt	x10,x0,8002044 <pow+0x7a0>
 8001f50:	08004437          	lui	x8,0x8004
 8001f54:	df843583          	ld	x11,-520(x8) # 8003df8 <__exp_data+0x890>
 8001f58:	00090513          	addi	x10,x18,0
 8001f5c:	804ff0ef          	jal	x1,8000f60 <__muldf3>
 8001f60:	00050593          	addi	x11,x10,0
 8001f64:	df1ff06f          	jal	x0,8001d54 <pow+0x4b0>
 8001f68:	00000b93          	addi	x23,x0,0
 8001f6c:	cb1ff06f          	jal	x0,8001c1c <pow+0x378>
 8001f70:	7ff00793          	addi	x15,x0,2047
 8001f74:	00b7b7b3          	sltu	x15,x15,x11
 8001f78:	00168693          	addi	x13,x13,1
 8001f7c:	0017c793          	xori	x15,x15,1
 8001f80:	00dbb6b3          	sltu	x13,x23,x13
 8001f84:	0ff7f793          	andi	x15,x15,255
 8001f88:	00000513          	addi	x10,x0,0
 8001f8c:	eef694e3          	bne	x13,x15,8001e74 <pow+0x5d0>
 8001f90:	0b013403          	ld	x8,176(x2)
 8001f94:	0b813083          	ld	x1,184(x2)
 8001f98:	0a813483          	ld	x9,168(x2)
 8001f9c:	0a013903          	ld	x18,160(x2)
 8001fa0:	09813983          	ld	x19,152(x2)
 8001fa4:	09013a03          	ld	x20,144(x2)
 8001fa8:	08813a83          	ld	x21,136(x2)
 8001fac:	08013b03          	ld	x22,128(x2)
 8001fb0:	07813b83          	ld	x23,120(x2)
 8001fb4:	07013c03          	ld	x24,112(x2)
 8001fb8:	06813c83          	ld	x25,104(x2)
 8001fbc:	06013d03          	ld	x26,96(x2)
 8001fc0:	05813d83          	ld	x27,88(x2)
 8001fc4:	0c010113          	addi	x2,x2,192
 8001fc8:	3600006f          	jal	x0,8002328 <__math_uflow>
 8001fcc:	0b013403          	ld	x8,176(x2)
 8001fd0:	0b813083          	ld	x1,184(x2)
 8001fd4:	0a813483          	ld	x9,168(x2)
 8001fd8:	0a013903          	ld	x18,160(x2)
 8001fdc:	09813983          	ld	x19,152(x2)
 8001fe0:	09013a03          	ld	x20,144(x2)
 8001fe4:	08813a83          	ld	x21,136(x2)
 8001fe8:	08013b03          	ld	x22,128(x2)
 8001fec:	07813b83          	ld	x23,120(x2)
 8001ff0:	07013c03          	ld	x24,112(x2)
 8001ff4:	06813c83          	ld	x25,104(x2)
 8001ff8:	06013d03          	ld	x26,96(x2)
 8001ffc:	05813d83          	ld	x27,88(x2)
 8002000:	00078513          	addi	x10,x15,0
 8002004:	0c010113          	addi	x2,x2,192
 8002008:	2f00006f          	jal	x0,80022f8 <__math_invalid>
 800200c:	080047b7          	lui	x15,0x8004
 8002010:	dd87b583          	ld	x11,-552(x15) # 8003dd8 <__exp_data+0x870>
 8002014:	d41ff06f          	jal	x0,8001d54 <pow+0x4b0>
 8002018:	dd8ab583          	ld	x11,-552(x21)
 800201c:	00098513          	addi	x10,x19,0
 8002020:	ce8fe0ef          	jal	x1,8000508 <__adddf3>
 8002024:	00050593          	addi	x11,x10,0
 8002028:	d20a06e3          	beq	x20,x0,8001d54 <pow+0x4b0>
 800202c:	03fb1b13          	slli	x22,x22,0x3f
 8002030:	00ab45b3          	xor	x11,x22,x10
 8002034:	d21ff06f          	jal	x0,8001d54 <pow+0x4b0>
 8002038:	00000a13          	addi	x20,x0,0
 800203c:	7ff47713          	andi	x14,x8,2047
 8002040:	de1ff06f          	jal	x0,8001e20 <pow+0x57c>
 8002044:	00000593          	addi	x11,x0,0
 8002048:	00090513          	addi	x10,x18,0
 800204c:	e41fe0ef          	jal	x1,8000e8c <__ledf2>
 8002050:	00055663          	bge	x10,x0,800205c <pow+0x7b8>
 8002054:	080047b7          	lui	x15,0x8004
 8002058:	de07b983          	ld	x19,-544(x15) # 8003de0 <__exp_data+0x878>
 800205c:	00090593          	addi	x11,x18,0
 8002060:	00040513          	addi	x10,x8,0
 8002064:	b54ff0ef          	jal	x1,80013b8 <__subdf3>
 8002068:	00048593          	addi	x11,x9,0
 800206c:	c9cfe0ef          	jal	x1,8000508 <__adddf3>
 8002070:	00050a13          	addi	x20,x10,0
 8002074:	00098593          	addi	x11,x19,0
 8002078:	00090513          	addi	x10,x18,0
 800207c:	c8cfe0ef          	jal	x1,8000508 <__adddf3>
 8002080:	00050593          	addi	x11,x10,0
 8002084:	00050493          	addi	x9,x10,0
 8002088:	00098513          	addi	x10,x19,0
 800208c:	b2cff0ef          	jal	x1,80013b8 <__subdf3>
 8002090:	00090593          	addi	x11,x18,0
 8002094:	c74fe0ef          	jal	x1,8000508 <__adddf3>
 8002098:	000a0593          	addi	x11,x20,0
 800209c:	c6cfe0ef          	jal	x1,8000508 <__adddf3>
 80020a0:	00048593          	addi	x11,x9,0
 80020a4:	c64fe0ef          	jal	x1,8000508 <__adddf3>
 80020a8:	00098593          	addi	x11,x19,0
 80020ac:	b0cff0ef          	jal	x1,80013b8 <__subdf3>
 80020b0:	00000593          	addi	x11,x0,0
 80020b4:	00050913          	addi	x18,x10,0
 80020b8:	d61fe0ef          	jal	x1,8000e18 <__eqdf2>
 80020bc:	00051663          	bne	x10,x0,80020c8 <pow+0x824>
 80020c0:	03f45413          	srli	x8,x8,0x3f
 80020c4:	03f41913          	slli	x18,x8,0x3f
 80020c8:	08004437          	lui	x8,0x8004
 80020cc:	df843583          	ld	x11,-520(x8) # 8003df8 <__exp_data+0x890>
 80020d0:	04b13023          	sd	x11,64(x2)
 80020d4:	04013503          	ld	x10,64(x2)
 80020d8:	e89fe0ef          	jal	x1,8000f60 <__muldf3>
 80020dc:	04a13423          	sd	x10,72(x2)
 80020e0:	e75ff06f          	jal	x0,8001f54 <pow+0x6b0>
 80020e4:	dd87b503          	ld	x10,-552(x15)
 80020e8:	00090593          	addi	x11,x18,0
 80020ec:	accff0ef          	jal	x1,80013b8 <__subdf3>
 80020f0:	00050593          	addi	x11,x10,0
 80020f4:	c61ff06f          	jal	x0,8001d54 <pow+0x4b0>
 80020f8:	f0080ae3          	beq	x16,x0,800200c <pow+0x768>
 80020fc:	00151693          	slli	x13,x10,0x1
 8002100:	08d77e63          	bgeu	x14,x13,800219c <pow+0x8f8>
 8002104:	00090593          	addi	x11,x18,0
 8002108:	00078513          	addi	x10,x15,0
 800210c:	bfcfe0ef          	jal	x1,8000508 <__adddf3>
 8002110:	00050593          	addi	x11,x10,0
 8002114:	c41ff06f          	jal	x0,8001d54 <pow+0x4b0>
 8002118:	00050593          	addi	x11,x10,0
 800211c:	e45fe0ef          	jal	x1,8000f60 <__muldf3>
 8002120:	00050593          	addi	x11,x10,0
 8002124:	040bd063          	bge	x23,x0,8002164 <pow+0x8c0>
 8002128:	7ff47413          	andi	x8,x8,2047
 800212c:	c014071b          	addiw	x14,x8,-1023
 8002130:	03400793          	addi	x15,x0,52
 8002134:	02e7e863          	bltu	x15,x14,8002164 <pow+0x8c0>
 8002138:	43300793          	addi	x15,x0,1075
 800213c:	408787bb          	subw	x15,x15,x8
 8002140:	00f99733          	sll	x14,x19,x15
 8002144:	fff74713          	xori	x14,x14,-1
 8002148:	01277733          	and	x14,x14,x18
 800214c:	00071c63          	bne	x14,x0,8002164 <pow+0x8c0>
 8002150:	00f957b3          	srl	x15,x18,x15
 8002154:	0017f793          	andi	x15,x15,1
 8002158:	00078663          	beq	x15,x0,8002164 <pow+0x8c0>
 800215c:	03f99993          	slli	x19,x19,0x3f
 8002160:	00a9c5b3          	xor	x11,x19,x10
 8002164:	be04d8e3          	bge	x9,x0,8001d54 <pow+0x4b0>
 8002168:	080047b7          	lui	x15,0x8004
 800216c:	dd87b503          	ld	x10,-552(x15) # 8003dd8 <__exp_data+0x870>
 8002170:	875fe0ef          	jal	x1,80009e4 <__divdf3>
 8002174:	02a13c23          	sd	x10,56(x2)
 8002178:	03813583          	ld	x11,56(x2)
 800217c:	bd9ff06f          	jal	x0,8001d54 <pow+0x4b0>
 8002180:	00000a13          	addi	x20,x0,0
 8002184:	c71ff06f          	jal	x0,8001df4 <pow+0x550>
 8002188:	e80802e3          	beq	x16,x0,800200c <pow+0x768>
 800218c:	3ff00713          	addi	x14,x0,1023
 8002190:	03471713          	slli	x14,x14,0x34
 8002194:	00179693          	slli	x13,x15,0x1
 8002198:	e6e78ae3          	beq	x15,x14,800200c <pow+0x768>
 800219c:	fff00713          	addi	x14,x0,-1
 80021a0:	03571713          	slli	x14,x14,0x35
 80021a4:	f6e810e3          	bne	x16,x14,8002104 <pow+0x860>
 80021a8:	3ff00793          	addi	x15,x0,1023
 80021ac:	03579793          	slli	x15,x15,0x35
 80021b0:	e4f68ee3          	beq	x13,x15,800200c <pow+0x768>
 80021b4:	00f6b7b3          	sltu	x15,x13,x15
 80021b8:	0017c793          	xori	x15,x15,1
 80021bc:	fff94713          	xori	x14,x18,-1
 80021c0:	0ff7f793          	andi	x15,x15,255
 80021c4:	03f75713          	srli	x14,x14,0x3f
 80021c8:	00000593          	addi	x11,x0,0
 80021cc:	b8e794e3          	bne	x15,x14,8001d54 <pow+0x4b0>
 80021d0:	00090593          	addi	x11,x18,0
 80021d4:	00090513          	addi	x10,x18,0
 80021d8:	d89fe0ef          	jal	x1,8000f60 <__muldf3>
 80021dc:	00050593          	addi	x11,x10,0
 80021e0:	b75ff06f          	jal	x0,8001d54 <pow+0x4b0>

00000000080021e4 <fabs>:
 80021e4:	00151513          	slli	x10,x10,0x1
 80021e8:	00155513          	srli	x10,x10,0x1
 80021ec:	00008067          	jalr	x0,0(x1)

00000000080021f0 <memset>:
 80021f0:	10060263          	beq	x12,x0,80022f4 <memset+0x104>
 80021f4:	0ff5f793          	andi	x15,x11,255
 80021f8:	00f50023          	sb	x15,0(x10)
 80021fc:	00c50733          	add	x14,x10,x12
 8002200:	fef70fa3          	sb	x15,-1(x14)
 8002204:	00200693          	addi	x13,x0,2
 8002208:	0ec6f663          	bgeu	x13,x12,80022f4 <memset+0x104>
 800220c:	00f500a3          	sb	x15,1(x10)
 8002210:	00f50123          	sb	x15,2(x10)
 8002214:	fef70f23          	sb	x15,-2(x14)
 8002218:	fef70ea3          	sb	x15,-3(x14)
 800221c:	00600693          	addi	x13,x0,6
 8002220:	0cc6fa63          	bgeu	x13,x12,80022f4 <memset+0x104>
 8002224:	00f501a3          	sb	x15,3(x10)
 8002228:	fef70e23          	sb	x15,-4(x14)
 800222c:	00800693          	addi	x13,x0,8
 8002230:	0cc6f263          	bgeu	x13,x12,80022f4 <memset+0x104>
 8002234:	0ff5f593          	andi	x11,x11,255
 8002238:	0085979b          	slliw	x15,x11,0x8
 800223c:	40a00733          	sub	x14,x0,x10
 8002240:	00377713          	andi	x14,x14,3
 8002244:	00b787bb          	addw	x15,x15,x11
 8002248:	40e60633          	sub	x12,x12,x14
 800224c:	0107959b          	slliw	x11,x15,0x10
 8002250:	00b787bb          	addw	x15,x15,x11
 8002254:	00e50733          	add	x14,x10,x14
 8002258:	ffc67613          	andi	x12,x12,-4
 800225c:	00f72023          	sw	x15,0(x14)
 8002260:	00c705b3          	add	x11,x14,x12
 8002264:	fef5ae23          	sw	x15,-4(x11)
 8002268:	08c6f663          	bgeu	x13,x12,80022f4 <memset+0x104>
 800226c:	00f72223          	sw	x15,4(x14)
 8002270:	00f72423          	sw	x15,8(x14)
 8002274:	fef5aa23          	sw	x15,-12(x11)
 8002278:	fef5ac23          	sw	x15,-8(x11)
 800227c:	01800693          	addi	x13,x0,24
 8002280:	06c6fa63          	bgeu	x13,x12,80022f4 <memset+0x104>
 8002284:	00477813          	andi	x16,x14,4
 8002288:	00f72623          	sw	x15,12(x14)
 800228c:	00f72823          	sw	x15,16(x14)
 8002290:	00f72a23          	sw	x15,20(x14)
 8002294:	00f72c23          	sw	x15,24(x14)
 8002298:	01880813          	addi	x16,x16,24
 800229c:	02079893          	slli	x17,x15,0x20
 80022a0:	02079693          	slli	x13,x15,0x20
 80022a4:	0208d893          	srli	x17,x17,0x20
 80022a8:	fef5a223          	sw	x15,-28(x11)
 80022ac:	fef5a423          	sw	x15,-24(x11)
 80022b0:	fef5a623          	sw	x15,-20(x11)
 80022b4:	fef5a823          	sw	x15,-16(x11)
 80022b8:	41060633          	sub	x12,x12,x16
 80022bc:	01f00793          	addi	x15,x0,31
 80022c0:	01070733          	add	x14,x14,x16
 80022c4:	011686b3          	add	x13,x13,x17
 80022c8:	02c7f663          	bgeu	x15,x12,80022f4 <memset+0x104>
 80022cc:	fe060613          	addi	x12,x12,-32
 80022d0:	fe067793          	andi	x15,x12,-32
 80022d4:	02078793          	addi	x15,x15,32
 80022d8:	00f707b3          	add	x15,x14,x15
 80022dc:	00d73023          	sd	x13,0(x14)
 80022e0:	00d73423          	sd	x13,8(x14)
 80022e4:	00d73823          	sd	x13,16(x14)
 80022e8:	00d73c23          	sd	x13,24(x14)
 80022ec:	02070713          	addi	x14,x14,32
 80022f0:	fef716e3          	bne	x14,x15,80022dc <memset+0xec>
 80022f4:	00008067          	jalr	x0,0(x1)

00000000080022f8 <__math_invalid>:
 80022f8:	ff010113          	addi	x2,x2,-16
 80022fc:	00050593          	addi	x11,x10,0
 8002300:	00113423          	sd	x1,8(x2)
 8002304:	8b4ff0ef          	jal	x1,80013b8 <__subdf3>
 8002308:	00050593          	addi	x11,x10,0
 800230c:	ed8fe0ef          	jal	x1,80009e4 <__divdf3>
 8002310:	00813083          	ld	x1,8(x2)
 8002314:	01010113          	addi	x2,x2,16
 8002318:	00008067          	jalr	x0,0(x1)

000000000800231c <__math_oflow>:
 800231c:	080047b7          	lui	x15,0x8004
 8002320:	e007b583          	ld	x11,-512(x15) # 8003e00 <__exp_data+0x898>
 8002324:	0100006f          	jal	x0,8002334 <__math_xflow>

0000000008002328 <__math_uflow>:
 8002328:	080047b7          	lui	x15,0x8004
 800232c:	e087b583          	ld	x11,-504(x15) # 8003e08 <__exp_data+0x8a0>
 8002330:	0040006f          	jal	x0,8002334 <__math_xflow>

0000000008002334 <__math_xflow>:
 8002334:	fe010113          	addi	x2,x2,-32
 8002338:	00113c23          	sd	x1,24(x2)
 800233c:	00058793          	addi	x15,x11,0
 8002340:	00058713          	addi	x14,x11,0
 8002344:	00050863          	beq	x10,x0,8002354 <__math_xflow+0x20>
 8002348:	fff00713          	addi	x14,x0,-1
 800234c:	03f71713          	slli	x14,x14,0x3f
 8002350:	00e5c733          	xor	x14,x11,x14
 8002354:	00e13423          	sd	x14,8(x2)
 8002358:	00813583          	ld	x11,8(x2)
 800235c:	00078513          	addi	x10,x15,0
 8002360:	c01fe0ef          	jal	x1,8000f60 <__muldf3>
 8002364:	01813083          	ld	x1,24(x2)
 8002368:	02010113          	addi	x2,x2,32
 800236c:	00008067          	jalr	x0,0(x1)

Disassembly of section .rodata:

0000000008002370 <__clz_tab-0x8>:
 8002370:	0000                	.insn	2, 0x
 8002372:	0000                	.insn	2, 0x
 8002374:	0000                	.insn	2, 0x
 8002376:	bff0                	.insn	2, 0xbff0

0000000008002378 <__clz_tab>:
 8002378:	0100                	.insn	2, 0x0100
 800237a:	0202                	.insn	2, 0x0202
 800237c:	03030303          	lb	x6,48(x6)
 8002380:	0404                	.insn	2, 0x0404
 8002382:	0404                	.insn	2, 0x0404
 8002384:	0404                	.insn	2, 0x0404
 8002386:	0404                	.insn	2, 0x0404
 8002388:	0505                	.insn	2, 0x0505
 800238a:	0505                	.insn	2, 0x0505
 800238c:	0505                	.insn	2, 0x0505
 800238e:	0505                	.insn	2, 0x0505
 8002390:	0505                	.insn	2, 0x0505
 8002392:	0505                	.insn	2, 0x0505
 8002394:	0505                	.insn	2, 0x0505
 8002396:	0505                	.insn	2, 0x0505
 8002398:	0606                	.insn	2, 0x0606
 800239a:	0606                	.insn	2, 0x0606
 800239c:	0606                	.insn	2, 0x0606
 800239e:	0606                	.insn	2, 0x0606
 80023a0:	0606                	.insn	2, 0x0606
 80023a2:	0606                	.insn	2, 0x0606
 80023a4:	0606                	.insn	2, 0x0606
 80023a6:	0606                	.insn	2, 0x0606
 80023a8:	0606                	.insn	2, 0x0606
 80023aa:	0606                	.insn	2, 0x0606
 80023ac:	0606                	.insn	2, 0x0606
 80023ae:	0606                	.insn	2, 0x0606
 80023b0:	0606                	.insn	2, 0x0606
 80023b2:	0606                	.insn	2, 0x0606
 80023b4:	0606                	.insn	2, 0x0606
 80023b6:	0606                	.insn	2, 0x0606
 80023b8:	07070707          	.insn	4, 0x07070707
 80023bc:	07070707          	.insn	4, 0x07070707
 80023c0:	07070707          	.insn	4, 0x07070707
 80023c4:	07070707          	.insn	4, 0x07070707
 80023c8:	07070707          	.insn	4, 0x07070707
 80023cc:	07070707          	.insn	4, 0x07070707
 80023d0:	07070707          	.insn	4, 0x07070707
 80023d4:	07070707          	.insn	4, 0x07070707
 80023d8:	07070707          	.insn	4, 0x07070707
 80023dc:	07070707          	.insn	4, 0x07070707
 80023e0:	07070707          	.insn	4, 0x07070707
 80023e4:	07070707          	.insn	4, 0x07070707
 80023e8:	07070707          	.insn	4, 0x07070707
 80023ec:	07070707          	.insn	4, 0x07070707
 80023f0:	07070707          	.insn	4, 0x07070707
 80023f4:	07070707          	.insn	4, 0x07070707
 80023f8:	0808                	.insn	2, 0x0808
 80023fa:	0808                	.insn	2, 0x0808
 80023fc:	0808                	.insn	2, 0x0808
 80023fe:	0808                	.insn	2, 0x0808
 8002400:	0808                	.insn	2, 0x0808
 8002402:	0808                	.insn	2, 0x0808
 8002404:	0808                	.insn	2, 0x0808
 8002406:	0808                	.insn	2, 0x0808
 8002408:	0808                	.insn	2, 0x0808
 800240a:	0808                	.insn	2, 0x0808
 800240c:	0808                	.insn	2, 0x0808
 800240e:	0808                	.insn	2, 0x0808
 8002410:	0808                	.insn	2, 0x0808
 8002412:	0808                	.insn	2, 0x0808
 8002414:	0808                	.insn	2, 0x0808
 8002416:	0808                	.insn	2, 0x0808
 8002418:	0808                	.insn	2, 0x0808
 800241a:	0808                	.insn	2, 0x0808
 800241c:	0808                	.insn	2, 0x0808
 800241e:	0808                	.insn	2, 0x0808
 8002420:	0808                	.insn	2, 0x0808
 8002422:	0808                	.insn	2, 0x0808
 8002424:	0808                	.insn	2, 0x0808
 8002426:	0808                	.insn	2, 0x0808
 8002428:	0808                	.insn	2, 0x0808
 800242a:	0808                	.insn	2, 0x0808
 800242c:	0808                	.insn	2, 0x0808
 800242e:	0808                	.insn	2, 0x0808
 8002430:	0808                	.insn	2, 0x0808
 8002432:	0808                	.insn	2, 0x0808
 8002434:	0808                	.insn	2, 0x0808
 8002436:	0808                	.insn	2, 0x0808
 8002438:	0808                	.insn	2, 0x0808
 800243a:	0808                	.insn	2, 0x0808
 800243c:	0808                	.insn	2, 0x0808
 800243e:	0808                	.insn	2, 0x0808
 8002440:	0808                	.insn	2, 0x0808
 8002442:	0808                	.insn	2, 0x0808
 8002444:	0808                	.insn	2, 0x0808
 8002446:	0808                	.insn	2, 0x0808
 8002448:	0808                	.insn	2, 0x0808
 800244a:	0808                	.insn	2, 0x0808
 800244c:	0808                	.insn	2, 0x0808
 800244e:	0808                	.insn	2, 0x0808
 8002450:	0808                	.insn	2, 0x0808
 8002452:	0808                	.insn	2, 0x0808
 8002454:	0808                	.insn	2, 0x0808
 8002456:	0808                	.insn	2, 0x0808
 8002458:	0808                	.insn	2, 0x0808
 800245a:	0808                	.insn	2, 0x0808
 800245c:	0808                	.insn	2, 0x0808
 800245e:	0808                	.insn	2, 0x0808
 8002460:	0808                	.insn	2, 0x0808
 8002462:	0808                	.insn	2, 0x0808
 8002464:	0808                	.insn	2, 0x0808
 8002466:	0808                	.insn	2, 0x0808
 8002468:	0808                	.insn	2, 0x0808
 800246a:	0808                	.insn	2, 0x0808
 800246c:	0808                	.insn	2, 0x0808
 800246e:	0808                	.insn	2, 0x0808
 8002470:	0808                	.insn	2, 0x0808
 8002472:	0808                	.insn	2, 0x0808
 8002474:	0808                	.insn	2, 0x0808
 8002476:	0808                	.insn	2, 0x0808
 8002478:	e85c                	.insn	2, 0xe85c
 800247a:	ffff                	.insn	2, 0xffff
 800247c:	e630                	.insn	2, 0xe630
 800247e:	ffff                	.insn	2, 0xffff
 8002480:	e684                	.insn	2, 0xe684
 8002482:	ffff                	.insn	2, 0xffff
 8002484:	e690                	.insn	2, 0xe690
 8002486:	ffff                	.insn	2, 0xffff
 8002488:	e684                	.insn	2, 0xe684
 800248a:	ffff                	.insn	2, 0xffff
 800248c:	e6a0                	.insn	2, 0xe6a0
 800248e:	ffff                	.insn	2, 0xffff
 8002490:	e684                	.insn	2, 0xe684
 8002492:	ffff                	.insn	2, 0xffff
 8002494:	e690                	.insn	2, 0xe690
 8002496:	ffff                	.insn	2, 0xffff
 8002498:	e630                	.insn	2, 0xe630
 800249a:	ffff                	.insn	2, 0xffff
 800249c:	e630                	.insn	2, 0xe630
 800249e:	ffff                	.insn	2, 0xffff
 80024a0:	e6a0                	.insn	2, 0xe6a0
 80024a2:	ffff                	.insn	2, 0xffff
 80024a4:	e690                	.insn	2, 0xe690
 80024a6:	ffff                	.insn	2, 0xffff
 80024a8:	e7b8                	.insn	2, 0xe7b8
 80024aa:	ffff                	.insn	2, 0xffff
 80024ac:	e7b8                	.insn	2, 0xe7b8
 80024ae:	ffff                	.insn	2, 0xffff
 80024b0:	e7b8                	.insn	2, 0xe7b8
 80024b2:	ffff                	.insn	2, 0xffff
 80024b4:	e6a0                	.insn	2, 0xe6a0
 80024b6:	ffff                	.insn	2, 0xffff
 80024b8:	e5f0                	.insn	2, 0xe5f0
 80024ba:	ffff                	.insn	2, 0xffff
 80024bc:	e5f0                	.insn	2, 0xe5f0
 80024be:	ffff                	.insn	2, 0xffff
 80024c0:	e644                	.insn	2, 0xe644
 80024c2:	ffff                	.insn	2, 0xffff
 80024c4:	e920                	.insn	2, 0xe920
 80024c6:	ffff                	.insn	2, 0xffff
 80024c8:	e644                	.insn	2, 0xe644
 80024ca:	ffff                	.insn	2, 0xffff
 80024cc:	e660                	.insn	2, 0xe660
 80024ce:	ffff                	.insn	2, 0xffff
 80024d0:	e644                	.insn	2, 0xe644
 80024d2:	ffff                	.insn	2, 0xffff
 80024d4:	e920                	.insn	2, 0xe920
 80024d6:	ffff                	.insn	2, 0xffff
 80024d8:	e5f0                	.insn	2, 0xe5f0
 80024da:	ffff                	.insn	2, 0xffff
 80024dc:	e5f0                	.insn	2, 0xe5f0
 80024de:	ffff                	.insn	2, 0xffff
 80024e0:	e660                	.insn	2, 0xe660
 80024e2:	ffff                	.insn	2, 0xffff
 80024e4:	e920                	.insn	2, 0xe920
 80024e6:	ffff                	.insn	2, 0xffff
 80024e8:	e778                	.insn	2, 0xe778
 80024ea:	ffff                	.insn	2, 0xffff
 80024ec:	e778                	.insn	2, 0xe778
 80024ee:	ffff                	.insn	2, 0xffff
 80024f0:	e920                	.insn	2, 0xe920
 80024f2:	ffff                	.insn	2, 0xffff
 80024f4:	e60c                	.insn	2, 0xe60c
 80024f6:	ffff                	.insn	2, 0xffff
 80024f8:	e8f4                	.insn	2, 0xe8f4
 80024fa:	ffff                	.insn	2, 0xffff
 80024fc:	e60c                	.insn	2, 0xe60c
 80024fe:	ffff                	.insn	2, 0xffff
 8002500:	e920                	.insn	2, 0xe920
 8002502:	ffff                	.insn	2, 0xffff
 8002504:	e5b8                	.insn	2, 0xe5b8
 8002506:	ffff                	.insn	2, 0xffff
 8002508:	e5b8                	.insn	2, 0xe5b8
 800250a:	ffff                	.insn	2, 0xffff
 800250c:	e8f4                	.insn	2, 0xe8f4
 800250e:	ffff                	.insn	2, 0xffff
 8002510:	e920                	.insn	2, 0xe920
 8002512:	ffff                	.insn	2, 0xffff
 8002514:	e73c                	.insn	2, 0xe73c
 8002516:	ffff                	.insn	2, 0xffff
 8002518:	e73c                	.insn	2, 0xe73c
 800251a:	ffff                	.insn	2, 0xffff
 800251c:	e73c                	.insn	2, 0xe73c
 800251e:	ffff                	.insn	2, 0xffff

0000000008002520 <__pow_log_data>:
 8002520:	3800                	.insn	2, 0x3800
 8002522:	fefa                	.insn	2, 0xfefa
 8002524:	2e42                	.insn	2, 0x2e42
 8002526:	3fe6                	.insn	2, 0x3fe6
 8002528:	6730                	.insn	2, 0x6730
 800252a:	f35793c7          	.insn	4, 0xf35793c7
 800252e:	3d2e                	.insn	2, 0x3d2e
 8002530:	0000                	.insn	2, 0x
 8002532:	0000                	.insn	2, 0x
 8002534:	0000                	.insn	2, 0x
 8002536:	bfe0                	.insn	2, 0xbfe0
 8002538:	5560                	.insn	2, 0x5560
 800253a:	5555                	.insn	2, 0x5555
 800253c:	5555                	.insn	2, 0x5555
 800253e:	bfe5                	.insn	2, 0xbfe5
 8002540:	0006                	.insn	2, 0x0006
 8002542:	0000                	.insn	2, 0x
 8002544:	0000                	.insn	2, 0x
 8002546:	3fe0                	.insn	2, 0x3fe0
 8002548:	554e                	.insn	2, 0x554e
 800254a:	9959                	.insn	2, 0x9959
 800254c:	9999                	.insn	2, 0x9999
 800254e:	3fe9                	.insn	2, 0x3fe9
 8002550:	a47a                	.insn	2, 0xa47a
 8002552:	5529                	.insn	2, 0x5529
 8002554:	5555                	.insn	2, 0x5555
 8002556:	bfe5                	.insn	2, 0xbfe5
 8002558:	45e9                	.insn	2, 0x45e9
 800255a:	9b48                	.insn	2, 0x9b48
 800255c:	bff2495b          	.insn	4, 0xbff2495b
 8002560:	8b263fc3          	.insn	4, 0x8b263fc3
 8002564:	3ff0002b          	.insn	4, 0x3ff0002b
 8002568:	0000                	.insn	2, 0x
 800256a:	0000                	.insn	2, 0x
 800256c:	a000                	.insn	2, 0xa000
 800256e:	3ff6                	.insn	2, 0x3ff6
	...
 8002578:	c800                	.insn	2, 0xc800
 800257a:	f2b9                	.insn	2, 0xf2b9
 800257c:	2c82                	.insn	2, 0x2c82
 800257e:	bfd6                	.insn	2, 0xbfd6
 8002580:	5680                	.insn	2, 0x5680
 8002582:	b4242837          	lui	x16,0xb4242
 8002586:	3cfa                	.insn	2, 0x3cfa
 8002588:	0000                	.insn	2, 0x
 800258a:	0000                	.insn	2, 0x
 800258c:	8000                	.insn	2, 0x8000
 800258e:	3ff6                	.insn	2, 0x3ff6
	...
 8002598:	0800                	.insn	2, 0x0800
 800259a:	bf58                	.insn	2, 0xbf58
 800259c:	d1bd                	.insn	2, 0xd1bd
 800259e:	bfd5                	.insn	2, 0xbfd5
 80025a0:	f720                	.insn	2, 0xf720
 80025a2:	d8e0                	.insn	2, 0xd8e0
 80025a4:	a508                	.insn	2, 0xa508
 80025a6:	bd1c                	.insn	2, 0xbd1c
 80025a8:	0000                	.insn	2, 0x
 80025aa:	0000                	.insn	2, 0x
 80025ac:	6000                	.insn	2, 0x6000
 80025ae:	3ff6                	.insn	2, 0x3ff6
	...
 80025b8:	5800                	.insn	2, 0x5800
 80025ba:	1745                	.insn	2, 0x1745
 80025bc:	bfd57677          	.insn	4, 0xbfd57677
 80025c0:	506d                	.insn	2, 0x506d
 80025c2:	d5b6                	.insn	2, 0xd5b6
 80025c4:	62a4                	.insn	2, 0x62a4
 80025c6:	0000bd23          	sd	x0,26(x1)
 80025ca:	0000                	.insn	2, 0x
 80025cc:	4000                	.insn	2, 0x4000
 80025ce:	3ff6                	.insn	2, 0x3ff6
	...
 80025d8:	f800                	.insn	2, 0xf800
 80025da:	872d                	.insn	2, 0x872d
 80025dc:	1aad                	.insn	2, 0x1aad
 80025de:	bfd5                	.insn	2, 0xbfd5
 80025e0:	67d5                	.insn	2, 0x67d5
 80025e2:	9eb0                	.insn	2, 0x9eb0
 80025e4:	84e4                	.insn	2, 0x84e4
 80025e6:	bce6                	.insn	2, 0xbce6
 80025e8:	0000                	.insn	2, 0x
 80025ea:	0000                	.insn	2, 0x
 80025ec:	2000                	.insn	2, 0x2000
 80025ee:	3ff6                	.insn	2, 0x3ff6
	...
 80025f8:	7800                	.insn	2, 0x7800
 80025fa:	be5f9577          	.insn	4, 0xbe5f9577
 80025fe:	bfd4                	.insn	2, 0xbfd4
 8002600:	3ee0                	.insn	2, 0x3ee0
 8002602:	9329                	.insn	2, 0x9329
 8002604:	1b69                	.insn	2, 0x1b69
 8002606:	bd04                	.insn	2, 0xbd04
 8002608:	0000                	.insn	2, 0x
 800260a:	0000                	.insn	2, 0x
 800260c:	0000                	.insn	2, 0x
 800260e:	3ff6                	.insn	2, 0x3ff6
	...
 8002618:	6000                	.insn	2, 0x6000
 800261a:	c21c                	.insn	2, 0xc21c
 800261c:	bfd4618b          	.insn	4, 0xbfd4618b
 8002620:	84cc                	.insn	2, 0x84cc
 8002622:	484c                	.insn	2, 0x484c
 8002624:	3d13d82f          	.insn	4, 0x3d13d82f
 8002628:	0000                	.insn	2, 0x
 800262a:	0000                	.insn	2, 0x
 800262c:	e000                	.insn	2, 0xe000
 800262e:	3ff5                	.insn	2, 0x3ff5
	...
 8002638:	a800                	.insn	2, 0xa800
 800263a:	8686                	.insn	2, 0x8686
 800263c:	0430                	.insn	2, 0x0430
 800263e:	bfd4                	.insn	2, 0xbfd4
 8002640:	0b3a                	.insn	2, 0x0b3a
 8002642:	ed82                	.insn	2, 0xed82
 8002644:	3cdc42f3          	.insn	4, 0x3cdc42f3
 8002648:	0000                	.insn	2, 0x
 800264a:	0000                	.insn	2, 0x
 800264c:	c000                	.insn	2, 0xc000
 800264e:	3ff5                	.insn	2, 0x3ff5
	...
 8002658:	4800                	.insn	2, 0x4800
 800265a:	5569                	.insn	2, 0x5569
 800265c:	a64c                	.insn	2, 0xa64c
 800265e:	9460bfd3          	.insn	4, 0x9460bfd3
 8002662:	8651                	.insn	2, 0x8651
 8002664:	b1c6                	.insn	2, 0xb1c6
 8002666:	3d20                	.insn	2, 0x3d20
 8002668:	0000                	.insn	2, 0x
 800266a:	0000                	.insn	2, 0x
 800266c:	a000                	.insn	2, 0xa000
 800266e:	3ff5                	.insn	2, 0x3ff5
	...
 8002678:	8000                	.insn	2, 0x8000
 800267a:	9a98                	.insn	2, 0x9a98
 800267c:	47dd                	.insn	2, 0x47dd
 800267e:	8092bfd3          	.insn	4, 0x8092bfd3
 8002682:	d4c5                	.insn	2, 0xd4c5
 8002684:	594d                	.insn	2, 0x594d
 8002686:	3d25                	.insn	2, 0x3d25
 8002688:	0000                	.insn	2, 0x
 800268a:	0000                	.insn	2, 0x
 800268c:	8000                	.insn	2, 0x8000
 800268e:	3ff5                	.insn	2, 0x3ff5
	...
 8002698:	2000                	.insn	2, 0x2000
 800269a:	bae1                	.insn	2, 0xbae1
 800269c:	e8e2                	.insn	2, 0xe8e2
 800269e:	bfd2                	.insn	2, 0xbfd2
 80026a0:	2bd8                	.insn	2, 0x2bd8
 80026a2:	7b1e99b7          	lui	x19,0x7b1e9
 80026a6:	3d26                	.insn	2, 0x3d26
 80026a8:	0000                	.insn	2, 0x
 80026aa:	0000                	.insn	2, 0x
 80026ac:	6000                	.insn	2, 0x6000
 80026ae:	3ff5                	.insn	2, 0x3ff5
	...
 80026b8:	8800                	.insn	2, 0x8800
 80026ba:	13de                	.insn	2, 0x13de
 80026bc:	895a                	.insn	2, 0x895a
 80026be:	bfd2                	.insn	2, 0xbfd2
 80026c0:	b6cfb03f 3d15ca14 	.insn	8, 0x3d15ca14b6cfb03f
 80026c8:	0000                	.insn	2, 0x
 80026ca:	0000                	.insn	2, 0x
 80026cc:	6000                	.insn	2, 0x6000
 80026ce:	3ff5                	.insn	2, 0x3ff5
	...
 80026d8:	8800                	.insn	2, 0x8800
 80026da:	13de                	.insn	2, 0x13de
 80026dc:	895a                	.insn	2, 0x895a
 80026de:	bfd2                	.insn	2, 0xbfd2
 80026e0:	b6cfb03f 3d15ca14 	.insn	8, 0x3d15ca14b6cfb03f
 80026e8:	0000                	.insn	2, 0x
 80026ea:	0000                	.insn	2, 0x
 80026ec:	4000                	.insn	2, 0x4000
 80026ee:	3ff5                	.insn	2, 0x3ff5
	...
 80026f8:	7800                	.insn	2, 0x7800
 80026fa:	2941fbcf          	.insn	4, 0x2941fbcf
 80026fe:	bfd2                	.insn	2, 0xbfd2
 8002700:	da76                	.insn	2, 0xda76
 8002702:	5a242853          	.insn	4, 0x5a242853
 8002706:	bd16                	.insn	2, 0xbd16
 8002708:	0000                	.insn	2, 0x
 800270a:	0000                	.insn	2, 0x
 800270c:	2000                	.insn	2, 0x2000
 800270e:	3ff5                	.insn	2, 0x3ff5
	...
 8002718:	9800                	.insn	2, 0x9800
 800271a:	c169                	.insn	2, 0xc169
 800271c:	c898                	.insn	2, 0xc898
 800271e:	bfd1                	.insn	2, 0xbfd1
 8002720:	5404                	.insn	2, 0x5404
 8002722:	afbc68e7          	.insn	4, 0xafbc68e7
 8002726:	bd1f 0000 0000      	.insn	6, 0xbd1f
 800272c:	0000                	.insn	2, 0x
 800272e:	3ff5                	.insn	2, 0x3ff5
	...
 8002738:	a800                	.insn	2, 0xa800
 800273a:	675cabab          	.insn	4, 0x675cabab
 800273e:	bfd1                	.insn	2, 0xbfd1
 8002740:	a8f0                	.insn	2, 0xa8f0
 8002742:	3382                	.insn	2, 0x3382
 8002744:	1fc6                	.insn	2, 0x1fc6
 8002746:	3d1f 0000 0000      	.insn	6, 0x3d1f
 800274c:	e000                	.insn	2, 0xe000
 800274e:	3ff4                	.insn	2, 0x3ff4
	...
 8002758:	4800                	.insn	2, 0x4800
 800275a:	f9ae                	.insn	2, 0xf9ae
 800275c:	bfd1058b          	.insn	4, 0xbfd1058b
 8002760:	5a66                	.insn	2, 0x5a66
 8002762:	fd05                	.insn	2, 0xfd05
 8002764:	a8c4                	.insn	2, 0xa8c4
 8002766:	bd26                	.insn	2, 0xbd26
 8002768:	0000                	.insn	2, 0x
 800276a:	0000                	.insn	2, 0x
 800276c:	c000                	.insn	2, 0xc000
 800276e:	3ff4                	.insn	2, 0x3ff4
	...
 8002778:	9000                	.insn	2, 0x9000
 800277a:	a324e273          	.insn	4, 0xa324e273
 800277e:	bfd0                	.insn	2, 0xbfd0
 8002780:	030e                	.insn	2, 0x030e
 8002782:	7ef4                	.insn	2, 0x7ef4
 8002784:	6bee                	.insn	2, 0x6bee
 8002786:	bd0c                	.insn	2, 0xbd0c
 8002788:	0000                	.insn	2, 0x
 800278a:	0000                	.insn	2, 0x
 800278c:	a000                	.insn	2, 0xa000
 800278e:	3ff4                	.insn	2, 0x3ff4
	...
 8002798:	d000                	.insn	2, 0xd000
 800279a:	94b4                	.insn	2, 0x94b4
 800279c:	4025                	.insn	2, 0x4025
 800279e:	bfd0                	.insn	2, 0xbfd0
 80027a0:	2d7f 9ef4 36b8 bcf0 	.insn	14, 0xa00000000000bcf036b89ef42d7f
 80027a8:	0000 0000 a000 
 80027ae:	3ff4                	.insn	2, 0x3ff4
	...
 80027b8:	d000                	.insn	2, 0xd000
 80027ba:	94b4                	.insn	2, 0x94b4
 80027bc:	4025                	.insn	2, 0x4025
 80027be:	bfd0                	.insn	2, 0xbfd0
 80027c0:	2d7f 9ef4 36b8 bcf0 	.insn	14, 0x800000000000bcf036b89ef42d7f
 80027c8:	0000 0000 8000 
 80027ce:	3ff4                	.insn	2, 0x3ff4
	...
 80027d8:	4000                	.insn	2, 0x4000
 80027da:	6d5e                	.insn	2, 0x6d5e
 80027dc:	b918                	.insn	2, 0xb918
 80027de:	3c87bfcf          	.insn	4, 0x3c87bfcf
 80027e2:	ab99                	.insn	2, 0xab99
 80027e4:	572a                	.insn	2, 0x572a
 80027e6:	3d0d                	.insn	2, 0x3d0d
 80027e8:	0000                	.insn	2, 0x
 80027ea:	0000                	.insn	2, 0x
 80027ec:	6000                	.insn	2, 0x6000
 80027ee:	3ff4                	.insn	2, 0x3ff4
	...
 80027f8:	6000                	.insn	2, 0x6000
 80027fa:	cbdc                	.insn	2, 0xcbdc
 80027fc:	f0ad                	.insn	2, 0xf0ad
 80027fe:	bfce                	.insn	2, 0xbfce
 8002800:	af24                	.insn	2, 0xaf24
 8002802:	9c86                	.insn	2, 0x9c86
 8002804:	3d2b26b7          	lui	x13,0x3d2b2
 8002808:	0000                	.insn	2, 0x
 800280a:	0000                	.insn	2, 0x
 800280c:	4000                	.insn	2, 0x4000
 800280e:	3ff4                	.insn	2, 0x3ff4
	...
 8002818:	f000                	.insn	2, 0xf000
 800281a:	6e2a                	.insn	2, 0x6e2a
 800281c:	bfce2707          	.insn	4, 0xbfce2707
 8002820:	ff10                	.insn	2, 0xff10
 8002822:	2f4f543f 0000bd17 	.insn	8, 0xbd172f4f543f
 800282a:	0000                	.insn	2, 0x
 800282c:	2000                	.insn	2, 0x2000
 800282e:	3ff4                	.insn	2, 0x3ff4
	...
 8002838:	c000                	.insn	2, 0xc000
 800283a:	5c216b4f          	.insn	4, 0x5c216b4f
 800283e:	bfcd                	.insn	2, 0xbfcd
 8002840:	bbca681b          	.insn	4, 0xbbca681b
 8002844:	ba91                	.insn	2, 0xba91
 8002846:	3d21                	.insn	2, 0x3d21
 8002848:	0000                	.insn	2, 0x
 800284a:	0000                	.insn	2, 0x
 800284c:	0000                	.insn	2, 0x
 800284e:	3ff4                	.insn	2, 0x3ff4
	...
 8002858:	a000                	.insn	2, 0xa000
 800285a:	c79a                	.insn	2, 0xc79a
 800285c:	bfcc8ff7          	.insn	4, 0xbfcc8ff7
 8002860:	8434                	.insn	2, 0x8434
 8002862:	689f 794f 3d27      	.insn	6, 0x3d27794f689f
 8002868:	0000                	.insn	2, 0x
 800286a:	0000                	.insn	2, 0x
 800286c:	0000                	.insn	2, 0x
 800286e:	3ff4                	.insn	2, 0x3ff4
	...
 8002878:	a000                	.insn	2, 0xa000
 800287a:	c79a                	.insn	2, 0xc79a
 800287c:	bfcc8ff7          	.insn	4, 0xbfcc8ff7
 8002880:	8434                	.insn	2, 0x8434
 8002882:	689f 794f 3d27      	.insn	6, 0x3d27794f689f
 8002888:	0000                	.insn	2, 0x
 800288a:	0000                	.insn	2, 0x
 800288c:	e000                	.insn	2, 0xe000
 800288e:	00003ff3          	.insn	4, 0x3ff3
 8002892:	0000                	.insn	2, 0x
 8002894:	0000                	.insn	2, 0x
 8002896:	0000                	.insn	2, 0x
 8002898:	9000                	.insn	2, 0x9000
 800289a:	742d                	.insn	2, 0x742d
 800289c:	c286                	.insn	2, 0xc286
 800289e:	b78fbfcb          	.insn	4, 0xb78fbfcb
 80028a2:	4eb0318b          	.insn	4, 0x4eb0318b
 80028a6:	3d19                	.insn	2, 0x3d19
 80028a8:	0000                	.insn	2, 0x
 80028aa:	0000                	.insn	2, 0x
 80028ac:	c000                	.insn	2, 0xc000
 80028ae:	00003ff3          	.insn	4, 0x3ff3
 80028b2:	0000                	.insn	2, 0x
 80028b4:	0000                	.insn	2, 0x
 80028b6:	0000                	.insn	2, 0x
 80028b8:	c000                	.insn	2, 0xc000
 80028ba:	4e80                	.insn	2, 0x4e80
 80028bc:	f3c9                	.insn	2, 0xf3c9
 80028be:	bfca                	.insn	2, 0xbfca
 80028c0:	9066                	.insn	2, 0x9066
 80028c2:	3fcd                	.insn	2, 0x3fcd
 80028c4:	3cba4e63          	blt	x20,x11,8002ca0 <__pow_log_data+0x780>
 80028c8:	0000                	.insn	2, 0x
 80028ca:	0000                	.insn	2, 0x
 80028cc:	a000                	.insn	2, 0xa000
 80028ce:	00003ff3          	.insn	4, 0x3ff3
 80028d2:	0000                	.insn	2, 0x
 80028d4:	0000                	.insn	2, 0x
 80028d6:	0000                	.insn	2, 0x
 80028d8:	b000                	.insn	2, 0xb000
 80028da:	1fe2                	.insn	2, 0x1fe2
 80028dc:	23bc                	.insn	2, 0x23bc
 80028de:	bfca                	.insn	2, 0xbfca
 80028e0:	c1ea                	.insn	2, 0xc1ea
 80028e2:	dc46                	.insn	2, 0xdc46
 80028e4:	8c64                	.insn	2, 0x8c64
 80028e6:	bd25                	.insn	2, 0xbd25
 80028e8:	0000                	.insn	2, 0x
 80028ea:	0000                	.insn	2, 0x
 80028ec:	a000                	.insn	2, 0xa000
 80028ee:	00003ff3          	.insn	4, 0x3ff3
 80028f2:	0000                	.insn	2, 0x
 80028f4:	0000                	.insn	2, 0x
 80028f6:	0000                	.insn	2, 0x
 80028f8:	b000                	.insn	2, 0xb000
 80028fa:	1fe2                	.insn	2, 0x1fe2
 80028fc:	23bc                	.insn	2, 0x23bc
 80028fe:	bfca                	.insn	2, 0xbfca
 8002900:	c1ea                	.insn	2, 0xc1ea
 8002902:	dc46                	.insn	2, 0xdc46
 8002904:	8c64                	.insn	2, 0x8c64
 8002906:	bd25                	.insn	2, 0xbd25
 8002908:	0000                	.insn	2, 0x
 800290a:	0000                	.insn	2, 0x
 800290c:	8000                	.insn	2, 0x8000
 800290e:	00003ff3          	.insn	4, 0x3ff3
 8002912:	0000                	.insn	2, 0x
 8002914:	0000                	.insn	2, 0x
 8002916:	0000                	.insn	2, 0x
 8002918:	5000                	.insn	2, 0x5000
 800291a:	9cf4                	.insn	2, 0x9cf4
 800291c:	525a                	.insn	2, 0x525a
 800291e:	bfc9                	.insn	2, 0xbfc9
 8002920:	04c1d4e3          	bge	x3,x12,8003168 <__pow_log_data+0xc48>
 8002924:	d1d9                	.insn	2, 0xd1d9
 8002926:	bd2a                	.insn	2, 0xbd2a
 8002928:	0000                	.insn	2, 0x
 800292a:	0000                	.insn	2, 0x
 800292c:	6000                	.insn	2, 0x6000
 800292e:	00003ff3          	.insn	4, 0x3ff3
 8002932:	0000                	.insn	2, 0x
 8002934:	0000                	.insn	2, 0x
 8002936:	0000                	.insn	2, 0x
 8002938:	d000                	.insn	2, 0xd000
 800293a:	6520                	.insn	2, 0x6520
 800293c:	7fa0                	.insn	2, 0x7fa0
 800293e:	bfc8                	.insn	2, 0xbfc8
 8002940:	fa09                	.insn	2, 0xfa09
 8002942:	bdbf7fdb          	.insn	4, 0xbdbf7fdb
 8002946:	00003d2b          	.insn	4, 0x3d2b
 800294a:	0000                	.insn	2, 0x
 800294c:	4000                	.insn	2, 0x4000
 800294e:	00003ff3          	.insn	4, 0x3ff3
 8002952:	0000                	.insn	2, 0x
 8002954:	0000                	.insn	2, 0x
 8002956:	0000                	.insn	2, 0x
 8002958:	e000                	.insn	2, 0xe000
 800295a:	0210                	.insn	2, 0x0210
 800295c:	ab89                	.insn	2, 0xab89
 800295e:	4a58bfc7          	.insn	4, 0x4a58bfc7
 8002962:	db907253          	.insn	4, 0xdb907253
 8002966:	00003d2b          	.insn	4, 0x3d2b
 800296a:	0000                	.insn	2, 0x
 800296c:	4000                	.insn	2, 0x4000
 800296e:	00003ff3          	.insn	4, 0x3ff3
 8002972:	0000                	.insn	2, 0x
 8002974:	0000                	.insn	2, 0x
 8002976:	0000                	.insn	2, 0x
 8002978:	e000                	.insn	2, 0xe000
 800297a:	0210                	.insn	2, 0x0210
 800297c:	ab89                	.insn	2, 0xab89
 800297e:	4a58bfc7          	.insn	4, 0x4a58bfc7
 8002982:	db907253          	.insn	4, 0xdb907253
 8002986:	00003d2b          	.insn	4, 0x3d2b
 800298a:	0000                	.insn	2, 0x
 800298c:	2000                	.insn	2, 0x2000
 800298e:	00003ff3          	.insn	4, 0x3ff3
 8002992:	0000                	.insn	2, 0x
 8002994:	0000                	.insn	2, 0x
 8002996:	0000                	.insn	2, 0x
 8002998:	d000                	.insn	2, 0xd000
 800299a:	e719                	.insn	2, 0xe719
 800299c:	bfc6d60f          	.insn	4, 0xbfc6d60f
 80029a0:	e266                	.insn	2, 0xe266
 80029a2:	a3b2                	.insn	2, 0xa3b2
 80029a4:	e46a                	.insn	2, 0xe46a
 80029a6:	bd10                	.insn	2, 0xbd10
 80029a8:	0000                	.insn	2, 0x
 80029aa:	0000                	.insn	2, 0x
 80029ac:	0000                	.insn	2, 0x
 80029ae:	00003ff3          	.insn	4, 0x3ff3
 80029b2:	0000                	.insn	2, 0x
 80029b4:	0000                	.insn	2, 0x
 80029b6:	0000                	.insn	2, 0x
 80029b8:	9000                	.insn	2, 0x9000
 80029ba:	ff3070a7          	.insn	4, 0xff3070a7
 80029be:	bfc5                	.insn	2, 0xbfc5
 80029c0:	5039                	.insn	2, 0x5039
 80029c2:	9f10                	.insn	2, 0x9f10
 80029c4:	bd1e9e43          	.insn	4, 0xbd1e9e43
 80029c8:	0000                	.insn	2, 0x
 80029ca:	0000                	.insn	2, 0x
 80029cc:	0000                	.insn	2, 0x
 80029ce:	00003ff3          	.insn	4, 0x3ff3
 80029d2:	0000                	.insn	2, 0x
 80029d4:	0000                	.insn	2, 0x
 80029d6:	0000                	.insn	2, 0x
 80029d8:	9000                	.insn	2, 0x9000
 80029da:	ff3070a7          	.insn	4, 0xff3070a7
 80029de:	bfc5                	.insn	2, 0xbfc5
 80029e0:	5039                	.insn	2, 0x5039
 80029e2:	9f10                	.insn	2, 0x9f10
 80029e4:	bd1e9e43          	.insn	4, 0xbd1e9e43
 80029e8:	0000                	.insn	2, 0x
 80029ea:	0000                	.insn	2, 0x
 80029ec:	e000                	.insn	2, 0xe000
 80029ee:	3ff2                	.insn	2, 0x3ff2
	...
 80029f8:	b000                	.insn	2, 0xb000
 80029fa:	e3a1                	.insn	2, 0xe3a1
 80029fc:	26e5                	.insn	2, 0x26e5
 80029fe:	bfc5                	.insn	2, 0xbfc5
 8002a00:	90075b8f          	.insn	4, 0x90075b8f
 8002a04:	bd20de8b          	.insn	4, 0xbd20de8b
 8002a08:	0000                	.insn	2, 0x
 8002a0a:	0000                	.insn	2, 0x
 8002a0c:	c000                	.insn	2, 0xc000
 8002a0e:	3ff2                	.insn	2, 0x3ff2
	...
 8002a18:	8000                	.insn	2, 0x8000
 8002a1a:	4d2b6ccb          	.insn	4, 0x4d2b6ccb
 8002a1e:	bfc4                	.insn	2, 0xbfc4
 8002a20:	783c                	.insn	2, 0x783c
 8002a22:	6135                	.insn	2, 0x6135
 8002a24:	0cc1                	.insn	2, 0x0cc1
 8002a26:	00003d17          	auipc	x26,0x3
 8002a2a:	0000                	.insn	2, 0x
 8002a2c:	c000                	.insn	2, 0xc000
 8002a2e:	3ff2                	.insn	2, 0x3ff2
	...
 8002a38:	8000                	.insn	2, 0x8000
 8002a3a:	4d2b6ccb          	.insn	4, 0x4d2b6ccb
 8002a3e:	bfc4                	.insn	2, 0xbfc4
 8002a40:	783c                	.insn	2, 0x783c
 8002a42:	6135                	.insn	2, 0x6135
 8002a44:	0cc1                	.insn	2, 0x0cc1
 8002a46:	00003d17          	auipc	x26,0x3
 8002a4a:	0000                	.insn	2, 0x
 8002a4c:	a000                	.insn	2, 0xa000
 8002a4e:	3ff2                	.insn	2, 0x3ff2
	...
 8002a58:	9000                	.insn	2, 0x9000
 8002a5a:	201e                	.insn	2, 0x201e
 8002a5c:	71fc                	.insn	2, 0x71fc
 8002a5e:	543abfc3          	.insn	4, 0x543abfc3
 8002a62:	78864d27          	.insn	4, 0x78864d27
 8002a66:	3cf1                	.insn	2, 0x3cf1
 8002a68:	0000                	.insn	2, 0x
 8002a6a:	0000                	.insn	2, 0x
 8002a6c:	8000                	.insn	2, 0x8000
 8002a6e:	3ff2                	.insn	2, 0x3ff2
	...
 8002a78:	f000                	.insn	2, 0xf000
 8002a7a:	f81f 9552 bfc2      	.insn	6, 0xbfc29552f81f
 8002a80:	c408                	.insn	2, 0xc408
 8002a82:	1771                	.insn	2, 0x1771
 8002a84:	8d30                	.insn	2, 0x8d30
 8002a86:	bd24                	.insn	2, 0xbd24
 8002a88:	0000                	.insn	2, 0x
 8002a8a:	0000                	.insn	2, 0x
 8002a8c:	6000                	.insn	2, 0x6000
 8002a8e:	3ff2                	.insn	2, 0x3ff2
	...
 8002a98:	6000                	.insn	2, 0x6000
 8002a9a:	b72ad52f          	.insn	4, 0xb72ad52f
 8002a9e:	bfc1                	.insn	2, 0xbfc1
 8002aa0:	a396                	.insn	2, 0xa396
 8002aa2:	1811                	.insn	2, 0x1811
 8002aa4:	80a4                	.insn	2, 0x80a4
 8002aa6:	bd2e                	.insn	2, 0xbd2e
 8002aa8:	0000                	.insn	2, 0x
 8002aaa:	0000                	.insn	2, 0x
 8002aac:	6000                	.insn	2, 0x6000
 8002aae:	3ff2                	.insn	2, 0x3ff2
	...
 8002ab8:	6000                	.insn	2, 0x6000
 8002aba:	b72ad52f          	.insn	4, 0xb72ad52f
 8002abe:	bfc1                	.insn	2, 0xbfc1
 8002ac0:	a396                	.insn	2, 0xa396
 8002ac2:	1811                	.insn	2, 0x1811
 8002ac4:	80a4                	.insn	2, 0x80a4
 8002ac6:	bd2e                	.insn	2, 0xbd2e
 8002ac8:	0000                	.insn	2, 0x
 8002aca:	0000                	.insn	2, 0x
 8002acc:	4000                	.insn	2, 0x4000
 8002ace:	3ff2                	.insn	2, 0x3ff2
	...
 8002ad8:	9000                	.insn	2, 0x9000
 8002ada:	7cd0                	.insn	2, 0x7cd0
 8002adc:	d77e                	.insn	2, 0xd77e
 8002ade:	bfc0                	.insn	2, 0xbfc0
 8002ae0:	5bf4                	.insn	2, 0x5bf4
 8002ae2:	88e8                	.insn	2, 0x88e8
 8002ae4:	6996                	.insn	2, 0x6996
 8002ae6:	3d0a                	.insn	2, 0x3d0a
 8002ae8:	0000                	.insn	2, 0x
 8002aea:	0000                	.insn	2, 0x
 8002aec:	4000                	.insn	2, 0x4000
 8002aee:	3ff2                	.insn	2, 0x3ff2
	...
 8002af8:	9000                	.insn	2, 0x9000
 8002afa:	7cd0                	.insn	2, 0x7cd0
 8002afc:	d77e                	.insn	2, 0xd77e
 8002afe:	bfc0                	.insn	2, 0xbfc0
 8002b00:	5bf4                	.insn	2, 0x5bf4
 8002b02:	88e8                	.insn	2, 0x88e8
 8002b04:	6996                	.insn	2, 0x6996
 8002b06:	3d0a                	.insn	2, 0x3d0a
 8002b08:	0000                	.insn	2, 0x
 8002b0a:	0000                	.insn	2, 0x
 8002b0c:	2000                	.insn	2, 0x2000
 8002b0e:	3ff2                	.insn	2, 0x3ff2
	...
 8002b18:	e000                	.insn	2, 0xe000
 8002b1a:	ec9131db          	.insn	4, 0xec9131db
 8002b1e:	33f2bfbf 75545ca3 	.insn	8, 0x75545ca333f2bfbf
 8002b26:	bd25                	.insn	2, 0xbd25
 8002b28:	0000                	.insn	2, 0x
 8002b2a:	0000                	.insn	2, 0x
 8002b2c:	0000                	.insn	2, 0x
 8002b2e:	3ff2                	.insn	2, 0x3ff2
	...
 8002b38:	0000                	.insn	2, 0x
 8002b3a:	27076e2b          	.insn	4, 0x27076e2b
 8002b3e:	bfbe                	.insn	2, 0xbfbe
 8002b40:	003c                	.insn	2, 0x003c
 8002b42:	2af0                	.insn	2, 0x2af0
 8002b44:	342c                	.insn	2, 0x342c
 8002b46:	3d2a                	.insn	2, 0x3d2a
 8002b48:	0000                	.insn	2, 0x
 8002b4a:	0000                	.insn	2, 0x
 8002b4c:	0000                	.insn	2, 0x
 8002b4e:	3ff2                	.insn	2, 0x3ff2
	...
 8002b58:	0000                	.insn	2, 0x
 8002b5a:	27076e2b          	.insn	4, 0x27076e2b
 8002b5e:	bfbe                	.insn	2, 0xbfbe
 8002b60:	003c                	.insn	2, 0x003c
 8002b62:	2af0                	.insn	2, 0x2af0
 8002b64:	342c                	.insn	2, 0x342c
 8002b66:	3d2a                	.insn	2, 0x3d2a
 8002b68:	0000                	.insn	2, 0x
 8002b6a:	0000                	.insn	2, 0x
 8002b6c:	e000                	.insn	2, 0xe000
 8002b6e:	3ff1                	.insn	2, 0x3ff1
	...
 8002b78:	c000                	.insn	2, 0xc000
 8002b7a:	5e548f5b          	.insn	4, 0x5e548f5b
 8002b7e:	bfbc                	.insn	2, 0xbfbc
 8002b80:	be06                	.insn	2, 0xbe06
 8002b82:	585f 0c57 bd1d      	.insn	6, 0xbd1d0c57585f
 8002b88:	0000                	.insn	2, 0x
 8002b8a:	0000                	.insn	2, 0x
 8002b8c:	c000                	.insn	2, 0xc000
 8002b8e:	3ff1                	.insn	2, 0x3ff1
	...
 8002b98:	e000                	.insn	2, 0xe000
 8002b9a:	3a4a                	.insn	2, 0x3a4a
 8002b9c:	926d                	.insn	2, 0x926d
 8002b9e:	bfba                	.insn	2, 0xbfba
 8002ba0:	aac8                	.insn	2, 0xaac8
 8002ba2:	3935e85b          	.insn	4, 0x3935e85b
 8002ba6:	3d25                	.insn	2, 0x3d25
 8002ba8:	0000                	.insn	2, 0x
 8002baa:	0000                	.insn	2, 0x
 8002bac:	c000                	.insn	2, 0xc000
 8002bae:	3ff1                	.insn	2, 0x3ff1
	...
 8002bb8:	e000                	.insn	2, 0xe000
 8002bba:	3a4a                	.insn	2, 0x3a4a
 8002bbc:	926d                	.insn	2, 0x926d
 8002bbe:	bfba                	.insn	2, 0xbfba
 8002bc0:	aac8                	.insn	2, 0xaac8
 8002bc2:	3935e85b          	.insn	4, 0x3935e85b
 8002bc6:	3d25                	.insn	2, 0x3d25
 8002bc8:	0000                	.insn	2, 0x
 8002bca:	0000                	.insn	2, 0x
 8002bcc:	a000                	.insn	2, 0xa000
 8002bce:	3ff1                	.insn	2, 0x3ff1
	...
 8002bd8:	a000                	.insn	2, 0xa000
 8002bda:	d631                	.insn	2, 0xd631
 8002bdc:	c345                	.insn	2, 0xc345
 8002bde:	bfb8                	.insn	2, 0xbfb8
 8002be0:	5668                	.insn	2, 0x5668
 8002be2:	7c294d2f          	.insn	4, 0x7c294d2f
 8002be6:	00003d13          	sltiu	x26,x0,0
 8002bea:	0000                	.insn	2, 0x
 8002bec:	a000                	.insn	2, 0xa000
 8002bee:	3ff1                	.insn	2, 0x3ff1
	...
 8002bf8:	a000                	.insn	2, 0xa000
 8002bfa:	d631                	.insn	2, 0xd631
 8002bfc:	c345                	.insn	2, 0xc345
 8002bfe:	bfb8                	.insn	2, 0xbfb8
 8002c00:	5668                	.insn	2, 0x5668
 8002c02:	7c294d2f          	.insn	4, 0x7c294d2f
 8002c06:	00003d13          	sltiu	x26,x0,0
 8002c0a:	0000                	.insn	2, 0x
 8002c0c:	8000                	.insn	2, 0x8000
 8002c0e:	3ff1                	.insn	2, 0x3ff1
	...
 8002c18:	6000                	.insn	2, 0x6000
 8002c1a:	8ae5                	.insn	2, 0x8ae5
 8002c1c:	f0d2                	.insn	2, 0xf0d2
 8002c1e:	bfb6                	.insn	2, 0xbfb6
 8002c20:	73da                	.insn	2, 0x73da
 8002c22:	9737c933          	.insn	4, 0x9737c933
 8002c26:	bd26                	.insn	2, 0xbd26
 8002c28:	0000                	.insn	2, 0x
 8002c2a:	0000                	.insn	2, 0x
 8002c2c:	6000                	.insn	2, 0x6000
 8002c2e:	3ff1                	.insn	2, 0x3ff1
	...
 8002c38:	2000                	.insn	2, 0x2000
 8002c3a:	3f06                	.insn	2, 0x3f06
 8002c3c:	bfb51b07          	.insn	4, 0xbfb51b07
 8002c40:	61c65e57          	.insn	4, 0x61c65e57
 8002c44:	3d1f025b          	.insn	4, 0x3d1f025b
 8002c48:	0000                	.insn	2, 0x
 8002c4a:	0000                	.insn	2, 0x
 8002c4c:	6000                	.insn	2, 0x6000
 8002c4e:	3ff1                	.insn	2, 0x3ff1
	...
 8002c58:	2000                	.insn	2, 0x2000
 8002c5a:	3f06                	.insn	2, 0x3f06
 8002c5c:	bfb51b07          	.insn	4, 0xbfb51b07
 8002c60:	61c65e57          	.insn	4, 0x61c65e57
 8002c64:	3d1f025b          	.insn	4, 0x3d1f025b
 8002c68:	0000                	.insn	2, 0x
 8002c6a:	0000                	.insn	2, 0x
 8002c6c:	4000                	.insn	2, 0x4000
 8002c6e:	3ff1                	.insn	2, 0x3ff1
	...
 8002c78:	e000                	.insn	2, 0xe000
 8002c7a:	41d7961b          	.insn	4, 0x41d7961b
 8002c7e:	13dfbfb3          	.insn	4, 0x13dfbfb3
 8002c82:	ccf9                	.insn	2, 0xccf9
 8002c84:	5eda                	.insn	2, 0x5eda
 8002c86:	3d2c                	.insn	2, 0x3d2c
 8002c88:	0000                	.insn	2, 0x
 8002c8a:	0000                	.insn	2, 0x
 8002c8c:	4000                	.insn	2, 0x4000
 8002c8e:	3ff1                	.insn	2, 0x3ff1
	...
 8002c98:	e000                	.insn	2, 0xe000
 8002c9a:	41d7961b          	.insn	4, 0x41d7961b
 8002c9e:	13dfbfb3          	.insn	4, 0x13dfbfb3
 8002ca2:	ccf9                	.insn	2, 0xccf9
 8002ca4:	5eda                	.insn	2, 0x5eda
 8002ca6:	3d2c                	.insn	2, 0x3d2c
 8002ca8:	0000                	.insn	2, 0x
 8002caa:	0000                	.insn	2, 0x
 8002cac:	2000                	.insn	2, 0x2000
 8002cae:	3ff1                	.insn	2, 0x3ff1
	...
 8002cb8:	8000                	.insn	2, 0x8000
 8002cba:	6536eea3          	.insn	4, 0x6536eea3
 8002cbe:	bfb1                	.insn	2, 0xbfb1
 8002cc0:	a309                	.insn	2, 0xa309
 8002cc2:	7c5e768f          	.insn	4, 0x7c5e768f
 8002cc6:	3d14                	.insn	2, 0x3d14
 8002cc8:	0000                	.insn	2, 0x
 8002cca:	0000                	.insn	2, 0x
 8002ccc:	0000                	.insn	2, 0x
 8002cce:	3ff1                	.insn	2, 0x3ff1
	...
 8002cd8:	8000                	.insn	2, 0x8000
 8002cda:	c011                	.insn	2, 0xc011
 8002cdc:	0a30                	.insn	2, 0x0a30
 8002cde:	8e91bfaf          	.insn	4, 0x8e91bfaf
 8002ce2:	8336                	.insn	2, 0x8336
 8002ce4:	599e                	.insn	2, 0x599e
 8002ce6:	3d2d                	.insn	2, 0x3d2d
 8002ce8:	0000                	.insn	2, 0x
 8002cea:	0000                	.insn	2, 0x
 8002cec:	0000                	.insn	2, 0x
 8002cee:	3ff1                	.insn	2, 0x3ff1
	...
 8002cf8:	8000                	.insn	2, 0x8000
 8002cfa:	c011                	.insn	2, 0xc011
 8002cfc:	0a30                	.insn	2, 0x0a30
 8002cfe:	8e91bfaf          	.insn	4, 0x8e91bfaf
 8002d02:	8336                	.insn	2, 0x8336
 8002d04:	599e                	.insn	2, 0x599e
 8002d06:	3d2d                	.insn	2, 0x3d2d
 8002d08:	0000                	.insn	2, 0x
 8002d0a:	0000                	.insn	2, 0x
 8002d0c:	e000                	.insn	2, 0xe000
 8002d0e:	3ff0                	.insn	2, 0x3ff0
	...
 8002d18:	8000                	.insn	2, 0x8000
 8002d1a:	7119                	.insn	2, 0x7119
 8002d1c:	42dd                	.insn	2, 0x42dd
 8002d1e:	704cbfab          	.insn	4, 0x704cbfab
 8002d22:	e5d6                	.insn	2, 0xe5d6
 8002d24:	827a                	.insn	2, 0x827a
 8002d26:	3d1c                	.insn	2, 0x3d1c
 8002d28:	0000                	.insn	2, 0x
 8002d2a:	0000                	.insn	2, 0x
 8002d2c:	e000                	.insn	2, 0xe000
 8002d2e:	3ff0                	.insn	2, 0x3ff0
	...
 8002d38:	8000                	.insn	2, 0x8000
 8002d3a:	7119                	.insn	2, 0x7119
 8002d3c:	42dd                	.insn	2, 0x42dd
 8002d3e:	704cbfab          	.insn	4, 0x704cbfab
 8002d42:	e5d6                	.insn	2, 0xe5d6
 8002d44:	827a                	.insn	2, 0x827a
 8002d46:	3d1c                	.insn	2, 0x3d1c
 8002d48:	0000                	.insn	2, 0x
 8002d4a:	0000                	.insn	2, 0x
 8002d4c:	c000                	.insn	2, 0xc000
 8002d4e:	3ff0                	.insn	2, 0x3ff0
	...
 8002d58:	c000                	.insn	2, 0xc000
 8002d5a:	f632                	.insn	2, 0xf632
 8002d5c:	7458                	.insn	2, 0x7458
 8002d5e:	a1eebfa7          	.insn	4, 0xa1eebfa7
 8002d62:	34f2                	.insn	2, 0x34f2
 8002d64:	fc46                	.insn	2, 0xfc46
 8002d66:	bd2c                	.insn	2, 0xbd2c
 8002d68:	0000                	.insn	2, 0x
 8002d6a:	0000                	.insn	2, 0x
 8002d6c:	c000                	.insn	2, 0xc000
 8002d6e:	3ff0                	.insn	2, 0x3ff0
	...
 8002d78:	c000                	.insn	2, 0xc000
 8002d7a:	f632                	.insn	2, 0xf632
 8002d7c:	7458                	.insn	2, 0x7458
 8002d7e:	a1eebfa7          	.insn	4, 0xa1eebfa7
 8002d82:	34f2                	.insn	2, 0x34f2
 8002d84:	fc46                	.insn	2, 0xfc46
 8002d86:	bd2c                	.insn	2, 0xbd2c
 8002d88:	0000                	.insn	2, 0x
 8002d8a:	0000                	.insn	2, 0x
 8002d8c:	a000                	.insn	2, 0xa000
 8002d8e:	3ff0                	.insn	2, 0x3ff0
	...
 8002d98:	c000                	.insn	2, 0xc000
 8002d9a:	b9fe                	.insn	2, 0xb9fe
 8002d9c:	bfa39e87          	.insn	4, 0xbfa39e87
 8002da0:	feaa                	.insn	2, 0xfeaa
 8002da2:	f526                	.insn	2, 0xf526
 8002da4:	3cf502b7          	lui	x5,0x3cf50
 8002da8:	0000                	.insn	2, 0x
 8002daa:	0000                	.insn	2, 0x
 8002dac:	a000                	.insn	2, 0xa000
 8002dae:	3ff0                	.insn	2, 0x3ff0
	...
 8002db8:	c000                	.insn	2, 0xc000
 8002dba:	b9fe                	.insn	2, 0xb9fe
 8002dbc:	bfa39e87          	.insn	4, 0xbfa39e87
 8002dc0:	feaa                	.insn	2, 0xfeaa
 8002dc2:	f526                	.insn	2, 0xf526
 8002dc4:	3cf502b7          	lui	x5,0x3cf50
 8002dc8:	0000                	.insn	2, 0x
 8002dca:	0000                	.insn	2, 0x
 8002dcc:	8000                	.insn	2, 0x8000
 8002dce:	3ff0                	.insn	2, 0x3ff0
	...
 8002dd8:	0000                	.insn	2, 0x
 8002dda:	0e78                	.insn	2, 0x0e78
 8002ddc:	bf9f829b          	addiw	x5,x31,-1031
 8002de0:	09e4                	.insn	2, 0x09e4
 8002de2:	7c7e                	.insn	2, 0x7c7e
 8002de4:	8026                	.insn	2, 0x8026
 8002de6:	bd29                	.insn	2, 0xbd29
 8002de8:	0000                	.insn	2, 0x
 8002dea:	0000                	.insn	2, 0x
 8002dec:	8000                	.insn	2, 0x8000
 8002dee:	3ff0                	.insn	2, 0x3ff0
	...
 8002df8:	0000                	.insn	2, 0x
 8002dfa:	0e78                	.insn	2, 0x0e78
 8002dfc:	bf9f829b          	addiw	x5,x31,-1031
 8002e00:	09e4                	.insn	2, 0x09e4
 8002e02:	7c7e                	.insn	2, 0x7c7e
 8002e04:	8026                	.insn	2, 0x8026
 8002e06:	bd29                	.insn	2, 0xbd29
 8002e08:	0000                	.insn	2, 0x
 8002e0a:	0000                	.insn	2, 0x
 8002e0c:	6000                	.insn	2, 0x6000
 8002e0e:	3ff0                	.insn	2, 0x3ff0
	...
 8002e18:	8000                	.insn	2, 0x8000
 8002e1a:	07d5                	.insn	2, 0x07d5
 8002e1c:	bf97b91b          	.insn	4, 0xbf97b91b
 8002e20:	a639                	.insn	2, 0xa639
 8002e22:	93fa                	.insn	2, 0x93fa
 8002e24:	8d54                	.insn	2, 0x8d54
 8002e26:	bd28                	.insn	2, 0xbd28
 8002e28:	0000                	.insn	2, 0x
 8002e2a:	0000                	.insn	2, 0x
 8002e2c:	4000                	.insn	2, 0x4000
 8002e2e:	3ff0                	.insn	2, 0x3ff0
	...
 8002e38:	0000                	.insn	2, 0x
 8002e3a:	b0fc                	.insn	2, 0xb0fc
 8002e3c:	c0a8                	.insn	2, 0xc0a8
 8002e3e:	a69cbf8f          	.insn	4, 0xa69cbf8f
 8002e42:	1e7cf6d3          	.insn	4, 0x1e7cf6d3
 8002e46:	bcdf 0000 0000      	.insn	6, 0xbcdf
 8002e4c:	4000                	.insn	2, 0x4000
 8002e4e:	3ff0                	.insn	2, 0x3ff0
	...
 8002e58:	0000                	.insn	2, 0x
 8002e5a:	b0fc                	.insn	2, 0xb0fc
 8002e5c:	c0a8                	.insn	2, 0xc0a8
 8002e5e:	a69cbf8f          	.insn	4, 0xa69cbf8f
 8002e62:	1e7cf6d3          	.insn	4, 0x1e7cf6d3
 8002e66:	bcdf 0000 0000      	.insn	6, 0xbcdf
 8002e6c:	2000                	.insn	2, 0x2000
 8002e6e:	3ff0                	.insn	2, 0x3ff0
	...
 8002e78:	0000                	.insn	2, 0x
 8002e7a:	6b10                	.insn	2, 0x6b10
 8002e7c:	e02a                	.insn	2, 0xe02a
 8002e7e:	40e4bf7f e23f0dda 	.insn	16, 0x200000000000bd19e23f0dda40e4bf7f
 8002e86:	0000bd19 20000000 
 8002e8e:	3ff0                	.insn	2, 0x3ff0
	...
 8002e98:	0000                	.insn	2, 0x
 8002e9a:	6b10                	.insn	2, 0x6b10
 8002e9c:	e02a                	.insn	2, 0xe02a
 8002e9e:	40e4bf7f e23f0dda 	.insn	16, 0xbd19e23f0dda40e4bf7f
 8002ea6:	0000bd19 00000000 
 8002eae:	3ff0                	.insn	2, 0x3ff0
	...
 8002ecc:	0000                	.insn	2, 0x
 8002ece:	3ff0                	.insn	2, 0x3ff0
	...
 8002eec:	c000                	.insn	2, 0xc000
 8002eee:	00003fef          	jal	x31,8005eee <__exp_data+0x2986>
	...
 8002efa:	7589                	.insn	2, 0x7589
 8002efc:	1015                	.insn	2, 0x1015
 8002efe:	3f80                	.insn	2, 0x3f80
 8002f00:	2be8                	.insn	2, 0x2be8
 8002f02:	999d                	.insn	2, 0x999d
 8002f04:	bd10c76b          	.insn	4, 0xbd10c76b
 8002f08:	0000                	.insn	2, 0x
 8002f0a:	0000                	.insn	2, 0x
 8002f0c:	8000                	.insn	2, 0x8000
 8002f0e:	00003fef          	jal	x31,8005f0e <__exp_data+0x29a6>
 8002f12:	0000                	.insn	2, 0x
 8002f14:	0000                	.insn	2, 0x
 8002f16:	0000                	.insn	2, 0x
 8002f18:	8000                	.insn	2, 0x8000
 8002f1a:	20565893          	.insn	4, 0x20565893
 8002f1e:	3f90                	.insn	2, 0x3f90
 8002f20:	f7d2                	.insn	2, 0xf7d2
 8002f22:	06e2                	.insn	2, 0x06e2
 8002f24:	bd23dc5b          	.insn	4, 0xbd23dc5b
 8002f28:	0000                	.insn	2, 0x
 8002f2a:	0000                	.insn	2, 0x
 8002f2c:	4000                	.insn	2, 0x4000
 8002f2e:	00003fef          	jal	x31,8005f2e <__exp_data+0x29c6>
	...
 8002f3a:	28c9                	.insn	2, 0x28c9
 8002f3c:	4925                	.insn	2, 0x4925
 8002f3e:	3f98                	.insn	2, 0x3f98
 8002f40:	0c34                	.insn	2, 0x0c34
 8002f42:	325a                	.insn	2, 0x325a
 8002f44:	a0ba                	.insn	2, 0xa0ba
 8002f46:	bd2a                	.insn	2, 0xbd2a
 8002f48:	0000                	.insn	2, 0x
 8002f4a:	0000                	.insn	2, 0x
 8002f4c:	0000                	.insn	2, 0x
 8002f4e:	00003fef          	jal	x31,8005f4e <__exp_data+0x29e6>
 8002f52:	0000                	.insn	2, 0x
 8002f54:	0000                	.insn	2, 0x
 8002f56:	0000                	.insn	2, 0x
 8002f58:	4000                	.insn	2, 0x4000
 8002f5a:	415d89e7          	jalr	x19,1045(x27)
 8002f5e:	3fa0                	.insn	2, 0x3fa0
 8002f60:	5cf1d753          	.insn	4, 0x5cf1d753
 8002f64:	11c0                	.insn	2, 0x11c0
 8002f66:	3d01                	.insn	2, 0x3d01
 8002f68:	0000                	.insn	2, 0x
 8002f6a:	0000                	.insn	2, 0x
 8002f6c:	c000                	.insn	2, 0xc000
 8002f6e:	3fee                	.insn	2, 0x3fee
	...
 8002f78:	0000                	.insn	2, 0x
 8002f7a:	d42e                	.insn	2, 0xd42e
 8002f7c:	66ae                	.insn	2, 0x66ae
 8002f7e:	3fa4                	.insn	2, 0x3fa4
 8002f80:	fd28                	.insn	2, 0xfd28
 8002f82:	75bd                	.insn	2, 0x75bd
 8002f84:	bd2c1673          	.insn	4, 0xbd2c1673
 8002f88:	0000                	.insn	2, 0x
 8002f8a:	0000                	.insn	2, 0x
 8002f8c:	8000                	.insn	2, 0x8000
 8002f8e:	3fee                	.insn	2, 0x3fee
	...
 8002f98:	c000                	.insn	2, 0xc000
 8002f9a:	149f 94aa 3fa8      	.insn	6, 0x3fa894aa149f
 8002fa0:	267d                	.insn	2, 0x267d
 8002fa2:	d05a                	.insn	2, 0xd05a
 8002fa4:	7995                	.insn	2, 0x7995
 8002fa6:	bd19                	.insn	2, 0xbd19
 8002fa8:	0000                	.insn	2, 0x
 8002faa:	0000                	.insn	2, 0x
 8002fac:	4000                	.insn	2, 0x4000
 8002fae:	3fee                	.insn	2, 0x3fee
	...
 8002fb8:	c000                	.insn	2, 0xc000
 8002fba:	cddd                	.insn	2, 0xcddd
 8002fbc:	3faccb73          	.insn	4, 0x3faccb73
 8002fc0:	47d82807          	.insn	4, 0x47d82807
 8002fc4:	68f2                	.insn	2, 0x68f2
 8002fc6:	bd1a                	.insn	2, 0xbd1a
 8002fc8:	0000                	.insn	2, 0x
 8002fca:	0000                	.insn	2, 0x
 8002fcc:	2000                	.insn	2, 0x2000
 8002fce:	3fee                	.insn	2, 0x3fee
	...
 8002fd8:	c000                	.insn	2, 0xc000
 8002fda:	c006                	.insn	2, 0xc006
 8002fdc:	ea31                	.insn	2, 0xea31
 8002fde:	3fae                	.insn	2, 0x3fae
 8002fe0:	4fc93b7b          	.insn	4, 0x4fc93b7b
 8002fe4:	113e                	.insn	2, 0x113e
 8002fe6:	bd0e                	.insn	2, 0xbd0e
 8002fe8:	0000                	.insn	2, 0x
 8002fea:	0000                	.insn	2, 0x
 8002fec:	e000                	.insn	2, 0xe000
 8002fee:	3fed                	.insn	2, 0x3fed
	...
 8002ff8:	6000                	.insn	2, 0x6000
 8002ffa:	d146                	.insn	2, 0xd146
 8002ffc:	3fb1973b          	.insn	4, 0x3fb1973b
 8003000:	560d9e9b          	.insn	4, 0x560d9e9b
 8003004:	325d                	.insn	2, 0x325d
 8003006:	bd25                	.insn	2, 0xbd25
 8003008:	0000                	.insn	2, 0x
 800300a:	0000                	.insn	2, 0x
 800300c:	a000                	.insn	2, 0xa000
 800300e:	3fed                	.insn	2, 0x3fed
	...
 8003018:	e000                	.insn	2, 0xe000
 800301a:	a7d1                	.insn	2, 0xa7d1
 800301c:	bdf5                	.insn	2, 0xbdf5
 800301e:	4ed73fb3          	.insn	4, 0x4ed73fb3
 8003022:	c85ea5db          	.insn	4, 0xc85ea5db
 8003026:	3d2c                	.insn	2, 0x3d2c
 8003028:	0000                	.insn	2, 0x
 800302a:	0000                	.insn	2, 0x
 800302c:	6000                	.insn	2, 0x6000
 800302e:	3fed                	.insn	2, 0x3fed
	...
 8003038:	a000                	.insn	2, 0xa000
 800303a:	e95a4d97          	auipc	x27,0xe95a4
 800303e:	3fb5                	.insn	2, 0x3fb5
 8003040:	1d1e                	.insn	2, 0x1d1e
 8003042:	3c5d                	.insn	2, 0x3c5d
 8003044:	6906                	.insn	2, 0x6906
 8003046:	bd2c                	.insn	2, 0xbd2c
 8003048:	0000                	.insn	2, 0x
 800304a:	0000                	.insn	2, 0x
 800304c:	4000                	.insn	2, 0x4000
 800304e:	3fed                	.insn	2, 0x3fed
	...
 8003058:	c000                	.insn	2, 0xc000
 800305a:	0aea                	.insn	2, 0x0aea
 800305c:	3fb700d3          	.insn	4, 0x3fb700d3
 8003060:	ed32                	.insn	2, 0xed32
 8003062:	a99d                	.insn	2, 0xa99d
 8003064:	1e8d                	.insn	2, 0x1e8d
 8003066:	3cec                	.insn	2, 0x3cec
 8003068:	0000                	.insn	2, 0x
 800306a:	0000                	.insn	2, 0x
 800306c:	0000                	.insn	2, 0x
 800306e:	3fed                	.insn	2, 0x3fed
	...
 8003078:	4000                	.insn	2, 0x4000
 800307a:	5d59                	.insn	2, 0x5d59
 800307c:	335e                	.insn	2, 0x335e
 800307e:	3fb9                	.insn	2, 0x3fb9
 8003080:	47da                	.insn	2, 0x47da
 8003082:	3abd                	.insn	2, 0x3abd
 8003084:	115c                	.insn	2, 0x115c
 8003086:	00003d23          	sd	x0,26(x0) # 1a <_Min_Stack_Size-0x7fffe6>
 800308a:	0000                	.insn	2, 0x
 800308c:	c000                	.insn	2, 0xc000
 800308e:	3fec                	.insn	2, 0x3fec
	...
 8003098:	6000                	.insn	2, 0x6000
 800309a:	8dad                	.insn	2, 0x8dad
 800309c:	6ac8                	.insn	2, 0x6ac8
 800309e:	68e53fbb          	.insn	4, 0x68e53fbb
 80030a2:	90802bf7          	.insn	4, 0x90802bf7
 80030a6:	0000bd13          	sltiu	x26,x1,0
 80030aa:	0000                	.insn	2, 0x
 80030ac:	a000                	.insn	2, 0xa000
 80030ae:	3fec                	.insn	2, 0x3fec
	...
 80030b8:	4000                	.insn	2, 0x4000
 80030ba:	01bc                	.insn	2, 0x01bc
 80030bc:	8858                	.insn	2, 0x8858
 80030be:	3fbc                	.insn	2, 0x3fbc
 80030c0:	c65aacd3          	.insn	4, 0xc65aacd3
 80030c4:	46d1                	.insn	2, 0x46d1
 80030c6:	3d26                	.insn	2, 0x3d26
 80030c8:	0000                	.insn	2, 0x
 80030ca:	0000                	.insn	2, 0x
 80030cc:	6000                	.insn	2, 0x6000
 80030ce:	3fec                	.insn	2, 0x3fec
	...
 80030d8:	2000                	.insn	2, 0x2000
 80030da:	830a                	.insn	2, 0x830a
 80030dc:	c739                	.insn	2, 0xc739
 80030de:	3fbe                	.insn	2, 0x3fbe
 80030e0:	45e0                	.insn	2, 0x45e0
 80030e2:	afe6                	.insn	2, 0xafe6
 80030e4:	c068                	.insn	2, 0xc068
 80030e6:	bd2d                	.insn	2, 0xbd2d
 80030e8:	0000                	.insn	2, 0x
 80030ea:	0000                	.insn	2, 0x
 80030ec:	4000                	.insn	2, 0x4000
 80030ee:	3fec                	.insn	2, 0x3fec
	...
 80030f8:	e000                	.insn	2, 0xe000
 80030fa:	e89139db          	.insn	4, 0xe89139db
 80030fe:	0afd3fbf 34d64fa1 	.insn	8, 0x34d64fa10afd3fbf
 8003106:	bd25                	.insn	2, 0xbd25
 8003108:	0000                	.insn	2, 0x
 800310a:	0000                	.insn	2, 0x
 800310c:	0000                	.insn	2, 0x
 800310e:	3fec                	.insn	2, 0x3fec
	...
 8003118:	e000                	.insn	2, 0xe000
 800311a:	178e8227          	.insn	4, 0x178e8227
 800311e:	3fc1                	.insn	2, 0x3fc1
 8003120:	07f2                	.insn	2, 0x07f2
 8003122:	ce2d                	.insn	2, 0xce2d
 8003124:	ef78                	.insn	2, 0xef78
 8003126:	3d21                	.insn	2, 0x3d21
 8003128:	0000                	.insn	2, 0x
 800312a:	0000                	.insn	2, 0x
 800312c:	e000                	.insn	2, 0xe000
 800312e:	00003feb          	.insn	4, 0x3feb
 8003132:	0000                	.insn	2, 0x
 8003134:	0000                	.insn	2, 0x
 8003136:	0000                	.insn	2, 0x
 8003138:	f000                	.insn	2, 0xf000
 800313a:	aa2b7e23          	.insn	4, 0xaa2b7e23
 800313e:	3fc1                	.insn	2, 0x3fc1
 8003140:	9934                	.insn	2, 0x9934
 8003142:	4438                	.insn	2, 0x4438
 8003144:	a78e                	.insn	2, 0xa78e
 8003146:	3d2c                	.insn	2, 0x3d2c
 8003148:	0000                	.insn	2, 0x
 800314a:	0000                	.insn	2, 0x
 800314c:	a000                	.insn	2, 0xa000
 800314e:	00003feb          	.insn	4, 0x3feb
 8003152:	0000                	.insn	2, 0x
 8003154:	0000                	.insn	2, 0x
 8003156:	0000                	.insn	2, 0x
 8003158:	8000                	.insn	2, 0x8000
 800315a:	0c86                	.insn	2, 0x0c86
 800315c:	d161                	.insn	2, 0xd161
 800315e:	3fc2                	.insn	2, 0x3fc2
 8003160:	b4a1                	.insn	2, 0xb4a1
 8003162:	cb81                	.insn	2, 0xcb81
 8003164:	9d6c                	.insn	2, 0x9d6c
 8003166:	00003d03          	ld	x26,0(x0) # 0 <_Min_Stack_Size-0x800000>
 800316a:	0000                	.insn	2, 0x
 800316c:	8000                	.insn	2, 0x8000
 800316e:	00003feb          	.insn	4, 0x3feb
 8003172:	0000                	.insn	2, 0x
 8003174:	0000                	.insn	2, 0x
 8003176:	0000                	.insn	2, 0x
 8003178:	9000                	.insn	2, 0x9000
 800317a:	b015                	.insn	2, 0xb015
 800317c:	65fc                	.insn	2, 0x65fc
 800317e:	72893fc3          	.insn	4, 0x72893fc3
 8003182:	2fa8234b          	.insn	4, 0x2fa8234b
 8003186:	3cc6                	.insn	2, 0x3cc6
 8003188:	0000                	.insn	2, 0x
 800318a:	0000                	.insn	2, 0x
 800318c:	4000                	.insn	2, 0x4000
 800318e:	00003feb          	.insn	4, 0x3feb
 8003192:	0000                	.insn	2, 0x
 8003194:	0000                	.insn	2, 0x
 8003196:	0000                	.insn	2, 0x
 8003198:	b000                	.insn	2, 0xb000
 800319a:	913d8333          	.insn	4, 0x913d8333
 800319e:	3fc4                	.insn	2, 0x3fc4
 80031a0:	b678                	.insn	2, 0xb678
 80031a2:	54fd                	.insn	2, 0x54fd
 80031a4:	8379                	.insn	2, 0x8379
 80031a6:	3d25                	.insn	2, 0x3d25
 80031a8:	0000                	.insn	2, 0x
 80031aa:	0000                	.insn	2, 0x
 80031ac:	2000                	.insn	2, 0x2000
 80031ae:	00003feb          	.insn	4, 0x3feb
 80031b2:	0000                	.insn	2, 0x
 80031b4:	0000                	.insn	2, 0x
 80031b6:	0000                	.insn	2, 0x
 80031b8:	b000                	.insn	2, 0xb000
 80031ba:	e4a1                	.insn	2, 0xe4a1
 80031bc:	27e5                	.insn	2, 0x27e5
 80031be:	3fc5                	.insn	2, 0x3fc5
 80031c0:	e5697dc7          	.insn	4, 0xe5697dc7
 80031c4:	33e8                	.insn	2, 0x33e8
 80031c6:	3d26                	.insn	2, 0x3d26
 80031c8:	0000                	.insn	2, 0x
 80031ca:	0000                	.insn	2, 0x
 80031cc:	e000                	.insn	2, 0xe000
 80031ce:	3fea                	.insn	2, 0x3fea
	...
 80031d8:	1000                	.insn	2, 0x1000
 80031da:	be8c                	.insn	2, 0xbe8c
 80031dc:	574e                	.insn	2, 0x574e
 80031de:	3fc6                	.insn	2, 0x3fc6
 80031e0:	2e78                	.insn	2, 0x2e78
 80031e2:	2c3c                	.insn	2, 0x2c3c
 80031e4:	3d19cf8b          	.insn	4, 0x3d19cf8b
 80031e8:	0000                	.insn	2, 0x
 80031ea:	0000                	.insn	2, 0x
 80031ec:	c000                	.insn	2, 0xc000
 80031ee:	3fea                	.insn	2, 0x3fea
	...
 80031f8:	7000                	.insn	2, 0x7000
 80031fa:	8b75                	.insn	2, 0x8b75
 80031fc:	f012                	.insn	2, 0xf012
 80031fe:	3fc6                	.insn	2, 0x3fc6
 8003200:	21e1                	.insn	2, 0x21e1
 8003202:	e59c                	.insn	2, 0xe59c
 8003204:	118d                	.insn	2, 0x118d
 8003206:	bd25                	.insn	2, 0xbd25
 8003208:	0000                	.insn	2, 0x
 800320a:	0000                	.insn	2, 0x
 800320c:	a000                	.insn	2, 0xa000
 800320e:	3fea                	.insn	2, 0x3fea
	...
 8003218:	5000                	.insn	2, 0x5000
 800321a:	8544                	.insn	2, 0x8544
 800321c:	898d                	.insn	2, 0x898d
 800321e:	43053fc7          	.insn	4, 0x43053fc7
 8003222:	7091                	.insn	2, 0x7091
 8003224:	6610                	.insn	2, 0x6610
 8003226:	bd1c                	.insn	2, 0xbd1c
 8003228:	0000                	.insn	2, 0x
 800322a:	0000                	.insn	2, 0x
 800322c:	6000                	.insn	2, 0x6000
 800322e:	3fea                	.insn	2, 0x3fea
	...
 8003238:	0000                	.insn	2, 0x
 800323a:	eb39                	.insn	2, 0xeb39
 800323c:	3fc8beaf          	.insn	4, 0x3fc8beaf
 8003240:	2cd1                	.insn	2, 0x2cd1
 8003242:	aae9                	.insn	2, 0xaae9
 8003244:	3d54                	.insn	2, 0x3d54
 8003246:	0000bd07          	.insn	4, 0xbd07
 800324a:	0000                	.insn	2, 0x
 800324c:	4000                	.insn	2, 0x4000
 800324e:	3fea                	.insn	2, 0x3fea
	...
 8003258:	0000                	.insn	2, 0x
 800325a:	5a5adcf7          	.insn	4, 0x5a5adcf7
 800325e:	3fc9                	.insn	2, 0x3fc9
 8003260:	58a0ff6f          	jal	x30,80127ea <__exp_data+0xf282>
 8003264:	f228                	.insn	2, 0xf228
 8003266:	00003d07          	.insn	4, 0x3d07
 800326a:	0000                	.insn	2, 0x
 800326c:	0000                	.insn	2, 0x
 800326e:	3fea                	.insn	2, 0x3fea
	...
 8003278:	e000                	.insn	2, 0xe000
 800327a:	3c8a                	.insn	2, 0x3c8a
 800327c:	93ed                	.insn	2, 0x93ed
 800327e:	3fca                	.insn	2, 0x3fca
 8003280:	2169                	.insn	2, 0x2169
 8003282:	5056                	.insn	2, 0x5056
 8003284:	bd287243          	.insn	4, 0xbd287243
 8003288:	0000                	.insn	2, 0x
 800328a:	0000                	.insn	2, 0x
 800328c:	e000                	.insn	2, 0xe000
 800328e:	3fe9                	.insn	2, 0x3fe9
	...
 8003298:	d000                	.insn	2, 0xd000
 800329a:	31d8575b          	.insn	4, 0x31d8575b
 800329e:	e1aa3fcb          	.insn	4, 0xe1aa3fcb
 80032a2:	4eac                	.insn	2, 0x4eac
 80032a4:	358d                	.insn	2, 0x358d
 80032a6:	bd0c                	.insn	2, 0xbd0c
 80032a8:	0000                	.insn	2, 0x
 80032aa:	0000                	.insn	2, 0x
 80032ac:	c000                	.insn	2, 0xc000
 80032ae:	3fe9                	.insn	2, 0x3fe9
	...
 80032b8:	e000                	.insn	2, 0xe000
 80032ba:	d087383b          	.insn	4, 0xd087383b
 80032be:	12b63fcb          	.insn	4, 0x12b63fcb
 80032c2:	5954                	.insn	2, 0x5954
 80032c4:	4bc4                	.insn	2, 0x4bc4
 80032c6:	bd2d                	.insn	2, 0xbd2d
 80032c8:	0000                	.insn	2, 0x
 80032ca:	0000                	.insn	2, 0x
 80032cc:	a000                	.insn	2, 0xa000
 80032ce:	3fe9                	.insn	2, 0x3fe9
	...
 80032d8:	1000                	.insn	2, 0x1000
 80032da:	c6f0                	.insn	2, 0xc6f0
 80032dc:	3fcc6ffb          	.insn	4, 0x3fcc6ffb
 80032e0:	2bd2                	.insn	2, 0x2bd2
 80032e2:	c596                	.insn	2, 0xc596
 80032e4:	ec72                	.insn	2, 0xec72
 80032e6:	bcf1                	.insn	2, 0xbcf1
 80032e8:	0000                	.insn	2, 0x
 80032ea:	0000                	.insn	2, 0x
 80032ec:	6000                	.insn	2, 0x6000
 80032ee:	3fe9                	.insn	2, 0x3fe9
	...
 80032f8:	9000                	.insn	2, 0x9000
 80032fa:	b0d4                	.insn	2, 0xb0d4
 80032fc:	b13d                	.insn	2, 0xb13d
 80032fe:	3fcd                	.insn	2, 0x3fcd
 8003300:	b035                	.insn	2, 0xb035
 8003302:	f715                	.insn	2, 0xf715
 8003304:	ff2a                	.insn	2, 0xff2a
 8003306:	bd2a                	.insn	2, 0xbd2a
 8003308:	0000                	.insn	2, 0x
 800330a:	0000                	.insn	2, 0x
 800330c:	4000                	.insn	2, 0x4000
 800330e:	3fe9                	.insn	2, 0x3fe9
	...
 8003318:	1000                	.insn	2, 0x1000
 800331a:	530effe7          	.insn	4, 0x530effe7
 800331e:	3fce                	.insn	2, 0x3fce
 8003320:	f430                	.insn	2, 0xf430
 8003322:	6041                	.insn	2, 0x6041
 8003324:	3cc21227          	.insn	4, 0x3cc21227
 8003328:	0000                	.insn	2, 0x
 800332a:	0000                	.insn	2, 0x
 800332c:	2000                	.insn	2, 0x2000
 800332e:	3fe9                	.insn	2, 0x3fe9
	...
 8003338:	0000                	.insn	2, 0x
 800333a:	e4dd                	.insn	2, 0xe4dd
 800333c:	f5ad                	.insn	2, 0xf5ad
 800333e:	3fce                	.insn	2, 0x3fce
 8003340:	8e11                	.insn	2, 0x8e11
 8003342:	211565bb          	.insn	4, 0x211565bb
 8003346:	bcca                	.insn	2, 0xbcca
 8003348:	0000                	.insn	2, 0x
 800334a:	0000                	.insn	2, 0x
 800334c:	0000                	.insn	2, 0x
 800334e:	3fe9                	.insn	2, 0x3fe9
	...
 8003358:	b000                	.insn	2, 0xb000
 800335a:	991c6cb3          	.insn	4, 0x991c6cb3
 800335e:	df303fcf          	.insn	4, 0xdf303fcf
 8003362:	ca0c                	.insn	2, 0xca0c
 8003364:	cbec                	.insn	2, 0xcbec
 8003366:	00003d1b          	.insn	4, 0x3d1b
 800336a:	0000                	.insn	2, 0x
 800336c:	c000                	.insn	2, 0xc000
 800336e:	3fe8                	.insn	2, 0x3fe8
	...
 8003378:	5800                	.insn	2, 0x5800
 800337a:	604d                	.insn	2, 0x604d
 800337c:	7138                	.insn	2, 0x7138
 800337e:	3fd0                	.insn	2, 0x3fd0
 8003380:	4e91                	.insn	2, 0x4e91
 8003382:	16ed                	.insn	2, 0x16ed
 8003384:	3cf89cdb          	.insn	4, 0x3cf89cdb
 8003388:	0000                	.insn	2, 0x
 800338a:	0000                	.insn	2, 0x
 800338c:	a000                	.insn	2, 0xa000
 800338e:	3fe8                	.insn	2, 0x3fe8
	...
 8003398:	6000                	.insn	2, 0x6000
 800339a:	6761                	.insn	2, 0x6761
 800339c:	c42d                	.insn	2, 0xc42d
 800339e:	3fd0                	.insn	2, 0x3fd0
 80033a0:	eae9                	.insn	2, 0xeae9
 80033a2:	163c                	.insn	2, 0x163c
 80033a4:	3d27188b          	.insn	4, 0x3d27188b
 80033a8:	0000                	.insn	2, 0x
 80033aa:	0000                	.insn	2, 0x
 80033ac:	8000                	.insn	2, 0x8000
 80033ae:	3fe8                	.insn	2, 0x3fe8
	...
 80033b8:	e800                	.insn	2, 0xe800
 80033ba:	178e8227          	.insn	4, 0x178e8227
 80033be:	3fd1                	.insn	2, 0x3fd1
 80033c0:	f01c                	.insn	2, 0xf01c
 80033c2:	63a5                	.insn	2, 0x63a5
 80033c4:	210e                	.insn	2, 0x210e
 80033c6:	bd2c                	.insn	2, 0xbd2c
 80033c8:	0000                	.insn	2, 0x
 80033ca:	0000                	.insn	2, 0x
 80033cc:	6000                	.insn	2, 0x6000
 80033ce:	3fe8                	.insn	2, 0x3fe8
	...
 80033d8:	f800                	.insn	2, 0xf800
 80033da:	cbac                	.insn	2, 0xcbac
 80033dc:	6b5c                	.insn	2, 0x6b5c
 80033de:	3fd1                	.insn	2, 0x3fd1
 80033e0:	1681                	.insn	2, 0x1681
 80033e2:	f7a5                	.insn	2, 0xf7a5
 80033e4:	9acd                	.insn	2, 0x9acd
 80033e6:	00003d2b          	.insn	4, 0x3d2b
 80033ea:	0000                	.insn	2, 0x
 80033ec:	4000                	.insn	2, 0x4000
 80033ee:	3fe8                	.insn	2, 0x3fe8
	...
 80033f8:	6800                	.insn	2, 0x6800
 80033fa:	635a                	.insn	2, 0x635a
 80033fc:	bf99                	.insn	2, 0xbf99
 80033fe:	3fd1                	.insn	2, 0x3fd1
 8003400:	5147bdb7          	lui	x27,0x5147b
 8003404:	a6ed                	.insn	2, 0xa6ed
 8003406:	3d2c                	.insn	2, 0x3d2c
 8003408:	0000                	.insn	2, 0x
 800340a:	0000                	.insn	2, 0x
 800340c:	2000                	.insn	2, 0x2000
 800340e:	3fe8                	.insn	2, 0x3fe8
	...
 8003418:	b800                	.insn	2, 0xb800
 800341a:	6d0e                	.insn	2, 0x6d0e
 800341c:	1445                	.insn	2, 0x1445
 800341e:	3fd2                	.insn	2, 0x3fd2
 8003420:	baea                	.insn	2, 0xbaea
 8003422:	ba46                	.insn	2, 0xba46
 8003424:	87de                	.insn	2, 0x87de
 8003426:	3d0a                	.insn	2, 0x3d0a
 8003428:	0000                	.insn	2, 0x
 800342a:	0000                	.insn	2, 0x
 800342c:	e000                	.insn	2, 0xe000
 800342e:	00003fe7          	.insn	4, 0x3fe7
 8003432:	0000                	.insn	2, 0x
 8003434:	0000                	.insn	2, 0x
 8003436:	0000                	.insn	2, 0x
 8003438:	9000                	.insn	2, 0x9000
 800343a:	7cdc                	.insn	2, 0x7cdc
 800343c:	bef0                	.insn	2, 0xbef0
 800343e:	3fd2                	.insn	2, 0x3fd2
 8003440:	04f4                	.insn	2, 0x04f4
 8003442:	4a50                	.insn	2, 0x4a50
 8003444:	9cfa                	.insn	2, 0x9cfa
 8003446:	3d2a                	.insn	2, 0x3d2a
 8003448:	0000                	.insn	2, 0x
 800344a:	0000                	.insn	2, 0x
 800344c:	c000                	.insn	2, 0xc000
 800344e:	00003fe7          	.insn	4, 0x3fe7
 8003452:	0000                	.insn	2, 0x
 8003454:	0000                	.insn	2, 0x
 8003456:	0000                	.insn	2, 0x
 8003458:	6000                	.insn	2, 0x6000
 800345a:	14f1e1d3          	.insn	4, 0x14f1e1d3
 800345e:	3cb83fd3          	.insn	4, 0x3cb83fd3
 8003462:	d321                	.insn	2, 0xd321
 8003464:	e27a                	.insn	2, 0xe27a
 8003466:	bd28                	.insn	2, 0xbd28
 8003468:	0000                	.insn	2, 0x
 800346a:	0000                	.insn	2, 0x
 800346c:	a000                	.insn	2, 0xa000
 800346e:	00003fe7          	.insn	4, 0x3fe7
 8003472:	0000                	.insn	2, 0x
 8003474:	0000                	.insn	2, 0x
 8003476:	0000                	.insn	2, 0x
 8003478:	1000                	.insn	2, 0x1000
 800347a:	76be                	.insn	2, 0x76be
 800347c:	3fd36b67          	.insn	4, 0x3fd36b67
 8003480:	77c8                	.insn	2, 0x77c8
 8003482:	b0f1                	.insn	2, 0xb0f1
 8003484:	6ecd                	.insn	2, 0x6ecd
 8003486:	3d11                	.insn	2, 0x3d11
 8003488:	0000                	.insn	2, 0x
 800348a:	0000                	.insn	2, 0x
 800348c:	8000                	.insn	2, 0x8000
 800348e:	00003fe7          	.insn	4, 0x3fe7
 8003492:	0000                	.insn	2, 0x
 8003494:	0000                	.insn	2, 0x
 8003496:	0000                	.insn	2, 0x
 8003498:	3000                	.insn	2, 0x3000
 800349a:	c2527733          	.insn	4, 0xc2527733
 800349e:	bd5c3fd3          	.insn	4, 0xbd5c3fd3
 80034a2:	b606                	.insn	2, 0xb606
 80034a4:	3b54                	.insn	2, 0x3b54
 80034a6:	3d18                	.insn	2, 0x3d18
 80034a8:	0000                	.insn	2, 0x
 80034aa:	0000                	.insn	2, 0x
 80034ac:	6000                	.insn	2, 0x6000
 80034ae:	00003fe7          	.insn	4, 0x3fe7
 80034b2:	0000                	.insn	2, 0x
 80034b4:	0000                	.insn	2, 0x
 80034b6:	0000                	.insn	2, 0x
 80034b8:	e800                	.insn	2, 0xe800
 80034ba:	23d5                	.insn	2, 0x23d5
 80034bc:	19b4                	.insn	2, 0x19b4
 80034be:	3fd4                	.insn	2, 0x3fd4
 80034c0:	e09d                	.insn	2, 0xe09d
 80034c2:	ec90                	.insn	2, 0xec90
 80034c4:	e436                	.insn	2, 0xe436
 80034c6:	3d08                	.insn	2, 0x3d08
 80034c8:	0000                	.insn	2, 0x
 80034ca:	0000                	.insn	2, 0x
 80034cc:	4000                	.insn	2, 0x4000
 80034ce:	00003fe7          	.insn	4, 0x3fe7
 80034d2:	0000                	.insn	2, 0x
 80034d4:	0000                	.insn	2, 0x
 80034d6:	0000                	.insn	2, 0x
 80034d8:	c800                	.insn	2, 0xc800
 80034da:	c271                	.insn	2, 0xc271
 80034dc:	718d                	.insn	2, 0x718d
 80034de:	3fd4                	.insn	2, 0x3fd4
 80034e0:	d675                	.insn	2, 0xd675
 80034e2:	27ce0967          	jalr	x18,636(x28)
 80034e6:	0000bd2f          	amoadd.d	x26,x0,(x1)
 80034ea:	0000                	.insn	2, 0x
 80034ec:	2000                	.insn	2, 0x2000
 80034ee:	00003fe7          	.insn	4, 0x3fe7
 80034f2:	0000                	.insn	2, 0x
 80034f4:	0000                	.insn	2, 0x
 80034f6:	0000                	.insn	2, 0x
 80034f8:	3000                	.insn	2, 0x3000
 80034fa:	c9e09e17          	auipc	x28,0xc9e09
 80034fe:	3fd4                	.insn	2, 0x3fd4
 8003500:	d8a4                	.insn	2, 0xd8a4
 8003502:	1b0a                	.insn	2, 0x1b0a
 8003504:	2089                	.insn	2, 0x2089
 8003506:	bd2e                	.insn	2, 0xbd2e
 8003508:	0000                	.insn	2, 0x
 800350a:	0000                	.insn	2, 0x
 800350c:	0000                	.insn	2, 0x
 800350e:	00003fe7          	.insn	4, 0x3fe7
 8003512:	0000                	.insn	2, 0x
 8003514:	0000                	.insn	2, 0x
 8003516:	0000                	.insn	2, 0x
 8003518:	a000                	.insn	2, 0xa000
 800351a:	0738                	.insn	2, 0x0738
 800351c:	22ae                	.insn	2, 0x22ae
 800351e:	3fd5                	.insn	2, 0x3fd5
 8003520:	c759                	.insn	2, 0xc759
 8003522:	8164                	.insn	2, 0x8164
 8003524:	be70                	.insn	2, 0xbe70
 8003526:	3d2e                	.insn	2, 0x3d2e
 8003528:	0000                	.insn	2, 0x
 800352a:	0000                	.insn	2, 0x
 800352c:	e000                	.insn	2, 0xe000
 800352e:	3fe6                	.insn	2, 0x3fe6
	...
 8003538:	d000                	.insn	2, 0xd000
 800353a:	53c8                	.insn	2, 0x53c8
 800353c:	3fd57bf7          	.insn	4, 0x3fd57bf7
 8003540:	ee5d40ef          	jal	x1,7fd8424 <_Min_Heap_Size+0x75d8424>
 8003544:	aded                	.insn	2, 0xaded
 8003546:	3d1f 0000 0000      	.insn	6, 0x3d1f
 800354c:	c000                	.insn	2, 0xc000
 800354e:	3fe6                	.insn	2, 0x3fe6
	...
 8003558:	6000                	.insn	2, 0x6000
 800355a:	df59                	.insn	2, 0xdf59
 800355c:	d5bd                	.insn	2, 0xd5bd
 800355e:	3fd5                	.insn	2, 0x3fd5
 8003560:	65dc                	.insn	2, 0x65dc
 8003562:	08a4                	.insn	2, 0x08a4
 8003564:	0b2a                	.insn	2, 0x0b2a
 8003566:	bd0a                	.insn	2, 0xbd0a

0000000008003568 <__exp_data>:
 8003568:	82fe                	.insn	2, 0x82fe
 800356a:	1547652b          	.insn	4, 0x1547652b
 800356e:	00004067          	.insn	4, 0x4067
 8003572:	0000                	.insn	2, 0x
 8003574:	0000                	.insn	2, 0x
 8003576:	4338                	.insn	2, 0x4338
 8003578:	0000                	.insn	2, 0x
 800357a:	fefa                	.insn	2, 0xfefa
 800357c:	2e42                	.insn	2, 0x2e42
 800357e:	bf76                	.insn	2, 0xbf76
 8003580:	3b3a                	.insn	2, 0x3b3a
 8003582:	bc9e                	.insn	2, 0xbc9e
 8003584:	f79a                	.insn	2, 0xf79a
 8003586:	bd0c                	.insn	2, 0xbd0c
 8003588:	fdbd                	.insn	2, 0xfdbd
 800358a:	ffff                	.insn	2, 0xffff
 800358c:	ffff                	.insn	2, 0xffff
 800358e:	3fdf 543c 5555      	.insn	6, 0x5555543c3fdf
 8003594:	5555                	.insn	2, 0x5555
 8003596:	3fc5                	.insn	2, 0x3fc5
 8003598:	2b91                	.insn	2, 0x2b91
 800359a:	5555cf17          	auipc	x30,0x5555c
 800359e:	3fa5                	.insn	2, 0x3fa5
 80035a0:	67a4d017          	auipc	x0,0x67a4d
 80035a4:	1111                	.insn	2, 0x1111
 80035a6:	3f81                	.insn	2, 0x3f81
 80035a8:	0000                	.insn	2, 0x
 80035aa:	0000                	.insn	2, 0x
 80035ac:	0000                	.insn	2, 0x
 80035ae:	42c8                	.insn	2, 0x42c8
 80035b0:	fefa39ef          	jal	x19,7fa759e <_Min_Heap_Size+0x75a759e>
 80035b4:	2e42                	.insn	2, 0x2e42
 80035b6:	3fe6                	.insn	2, 0x3fe6
 80035b8:	c424                	.insn	2, 0xc424
 80035ba:	ff82                	.insn	2, 0xff82
 80035bc:	bfbd                	.insn	2, 0xbfbd
 80035be:	3fce                	.insn	2, 0x3fce
 80035c0:	f4b5                	.insn	2, 0xf4b5
 80035c2:	d70c                	.insn	2, 0xd70c
 80035c4:	6b08                	.insn	2, 0x6b08
 80035c6:	3fac                	.insn	2, 0x3fac
 80035c8:	50cc                	.insn	2, 0x50cc
 80035ca:	d246                	.insn	2, 0xd246
 80035cc:	3f83b2ab          	.insn	4, 0x3f83b2ab
 80035d0:	3a84                	.insn	2, 0x3a84
 80035d2:	9b4e                	.insn	2, 0x9b4e
 80035d4:	d7e0                	.insn	2, 0xd7e0
 80035d6:	3f55                	.insn	2, 0x3f55
	...
 80035e4:	0000                	.insn	2, 0x
 80035e6:	3ff0                	.insn	2, 0x3ff0
 80035e8:	bf6e                	.insn	2, 0xbf6e
 80035ea:	1a88                	.insn	2, 0x1a88
 80035ec:	3c9b3b4f          	.insn	4, 0x3c9b3b4f
 80035f0:	3335                	.insn	2, 0x3335
 80035f2:	f63da9fb          	.insn	4, 0xf63da9fb
 80035f6:	dc5d3fef          	jal	x31,7fd73ba <_Min_Heap_Size+0x75d73ba>
 80035fa:	9cd8                	.insn	2, 0x9cd8
 80035fc:	bc716013          	ori	x0,x2,-1081
 8003600:	8061                	.insn	2, 0x8061
 8003602:	ec9a3e77          	.insn	4, 0xec9a3e77
 8003606:	66d13fef          	jal	x31,8017472 <__exp_data+0x13f0a>
 800360a:	5e7a1087          	.insn	4, 0x5e7a1087
 800360e:	bc90                	.insn	2, 0xbc90
 8003610:	7f85                	.insn	2, 0x7f85
 8003612:	e86e                	.insn	2, 0xe86e
 8003614:	e315                	.insn	2, 0xe315
 8003616:	f6133fef          	jal	x31,7f37576 <_Min_Heap_Size+0x7537576>
 800361a:	d2523567          	.insn	4, 0xd2523567
 800361e:	3c8c                	.insn	2, 0x3c8c
 8003620:	8574                	.insn	2, 0x8574
 8003622:	d315                	.insn	2, 0xd315
 8003624:	d9b0                	.insn	2, 0xd9b0
 8003626:	8efa3fef          	jal	x31,7fa6f14 <_Min_Heap_Size+0x75a6f14>
 800362a:	23f9                	.insn	2, 0x23f9
 800362c:	ce80                	.insn	2, 0xce80
 800362e:	f6debc8b          	.insn	4, 0xf6debc8b
 8003632:	29dd                	.insn	2, 0x29dd
 8003634:	3fefd06b          	.insn	4, 0x3fefd06b
 8003638:	c861                	.insn	2, 0xc861
 800363a:	61e6                	.insn	2, 0x61e6
 800363c:	f74e                	.insn	2, 0xf74e
 800363e:	3c60                	.insn	2, 0x3c60
 8003640:	9bc8                	.insn	2, 0x9bc8
 8003642:	1875                	.insn	2, 0x1875
 8003644:	c745                	.insn	2, 0xc745
 8003646:	d3993fef          	jal	x31,7f9737e <_Min_Heap_Size+0x759737e>
 800364a:	a3e45b33          	.insn	4, 0xa3e45b33
 800364e:	3c90                	.insn	2, 0x3c90
 8003650:	cac6f383          	.insn	4, 0xcac6f383
 8003654:	be3e                	.insn	2, 0xbe3e
 8003656:	7b6d3fef          	jal	x31,80d6e0c <__exp_data+0xd38a4>
 800365a:	9aa65d83          	lhu	x27,-1622(x12)
 800365e:	890f3c97          	auipc	x25,0x890f3
 8003662:	6cf9                	.insn	2, 0x6cf9
 8003664:	b558                	.insn	2, 0xb558
 8003666:	effc3fef          	jal	x31,7fc7564 <_Min_Heap_Size+0x75c7564>
 800366a:	92fd                	.insn	2, 0x92fd
 800366c:	b51a                	.insn	2, 0xb51a
 800366e:	3c8e                	.insn	2, 0x3c8e
 8003670:	2b7247f7          	.insn	4, 0x2b7247f7
 8003674:	ac92                	.insn	2, 0xac92
 8003676:	9cd13fef          	jal	x31,7f17042 <_Min_Heap_Size+0x7517042>
 800367a:	be3d702f          	.insn	4, 0xbe3d702f
 800367e:	3c3e                	.insn	2, 0x3c3e
 8003680:	d1a2                	.insn	2, 0xd1a2
 8003682:	a3ec32d3          	.insn	4, 0xa3ec32d3
 8003686:	6e0b3fef          	jal	x31,80b6d66 <__exp_data+0xb37fe>
 800368a:	8990                	.insn	2, 0x8990
 800368c:	0334                	.insn	2, 0x0334
 800368e:	bc6a                	.insn	2, 0xbc6a
 8003690:	affed31b          	.insn	4, 0xaffed31b
 8003694:	9b66                	.insn	2, 0x9b66
 8003696:	bd0e3fef          	jal	x31,7fe6a66 <_Min_Heap_Size+0x75e6a66>
 800369a:	56522a2f          	.insn	4, 0x56522a2f
 800369e:	bc95                	.insn	2, 0xbc95
 80036a0:	5b51                	.insn	2, 0x5b51
 80036a2:	d012                	.insn	2, 0xd012
 80036a4:	9301                	.insn	2, 0x9301
 80036a6:	ea553fef          	jal	x31,7f5754a <_Min_Heap_Size+0x755754a>
 80036aa:	8c4e                	.insn	2, 0x8c4e
 80036ac:	bc5080ef          	jal	x1,7f0c270 <_Min_Heap_Size+0x750c270>
 80036b0:	31cc                	.insn	2, 0x31cc
 80036b2:	c06c                	.insn	2, 0xc06c
 80036b4:	8abd                	.insn	2, 0x8abd
 80036b6:	f4163fef          	jal	x31,7f675f6 <_Min_Heap_Size+0x75675f6>
 80036ba:	b9d5                	.insn	2, 0xb9d5
 80036bc:	bc91c923          	.insn	4, 0xbc91c923
 80036c0:	2de0                	.insn	2, 0x2de0
 80036c2:	aea9                	.insn	2, 0xaea9
 80036c4:	829a                	.insn	2, 0x829a
 80036c6:	55af3fef          	jal	x31,80f6c20 <__exp_data+0xf36b8>
 80036ca:	e95c                	.insn	2, 0xe95c
 80036cc:	3c80d3e3          	bge	x1,x8,8004292 <__exp_data+0xd2a>
 80036d0:	8e51                	.insn	2, 0x8e51
 80036d2:	c8a5                	.insn	2, 0xc8a5
 80036d4:	7a98                	.insn	2, 0x7a98
 80036d6:	93483fef          	jal	x31,7f8680a <_Min_Heap_Size+0x758680a>
 80036da:	eaa5                	.insn	2, 0xeaa5
 80036dc:	1b15                	.insn	2, 0x1b15
 80036de:	bc80                	.insn	2, 0xbc80
 80036e0:	3c7d517b          	.insn	4, 0x3c7d517b
 80036e4:	72b8                	.insn	2, 0x72b8
 80036e6:	323d3fef          	jal	x31,80d7208 <__exp_data+0xd3ca0>
 80036ea:	55de                	.insn	2, 0x55de
 80036ec:	1ff0                	.insn	2, 0x1ff0
 80036ee:	8deabc8f          	.insn	4, 0x8deabc8f
 80036f2:	388c                	.insn	2, 0x388c
 80036f4:	6af9                	.insn	2, 0x6af9
 80036f6:	53bf3fef          	jal	x31,80f7430 <__exp_data+0xf3ec8>
 80036fa:	898c3f13          	sltiu	x30,x24,-1896
 80036fe:	cb753c8b          	.insn	4, 0xcb753c8b
 8003702:	635beb6f          	jal	x22,80c2536 <__exp_data+0xbefce>
 8003706:	eb263fef          	jal	x31,7f66db8 <_Min_Heap_Size+0x7566db8>
 800370a:	7611                	.insn	2, 0x7611
 800370c:	d99c                	.insn	2, 0xd99c
 800370e:	bc96                	.insn	2, 0xbc96
 8003710:	5cd4                	.insn	2, 0x5cd4
 8003712:	8404                	.insn	2, 0x8404
 8003714:	5be0                	.insn	2, 0x5be0
 8003716:	2f603fef          	jal	x31,8006a0c <__exp_data+0x34a4>
 800371a:	3e3a                	.insn	2, 0x3e3a
 800371c:	3c9aecf7          	.insn	4, 0x3c9aecf7
 8003720:	b9aa                	.insn	2, 0xb9aa
 8003722:	3168                	.insn	2, 0x3168
 8003724:	3fef5487          	.insn	4, 0x3fef5487
 8003728:	389d                	.insn	2, 0x389d
 800372a:	cb86                	.insn	2, 0xcb86
 800372c:	e782                	.insn	2, 0xe782
 800372e:	d91dbc8f          	.insn	4, 0xd91dbc8f
 8003732:	22fc                	.insn	2, 0x22fc
 8003734:	4d50                	.insn	2, 0x4d50
 8003736:	c38d3fef          	jal	x31,7fd6b6e <_Min_Heap_Size+0x75d6b6e>
 800373a:	44a6                	.insn	2, 0x44a6
 800373c:	6f41                	.insn	2, 0x6f41
 800373e:	3c8a                	.insn	2, 0x3c8a
 8003740:	8cd6                	.insn	2, 0x8cd6
 8003742:	8862                	.insn	2, 0x8862
 8003744:	3fef463b          	.insn	4, 0x3fef463b
 8003748:	047d                	.insn	2, 0x047d
 800374a:	b0e4                	.insn	2, 0xb0e4
 800374c:	7a05                	.insn	2, 0x7a05
 800374e:	3c80                	.insn	2, 0x3c80
 8003750:	dc96                	.insn	2, 0xdc96
 8003752:	917d                	.insn	2, 0x917d
 8003754:	3f49                	.insn	2, 0x3f49
 8003756:	a8943fef          	jal	x31,7f471de <_Min_Heap_Size+0x75471de>
 800375a:	e3a8                	.insn	2, 0xe3a8
 800375c:	8efd                	.insn	2, 0x8efd
 800375e:	3c96                	.insn	2, 0x3c96
 8003760:	6238                	.insn	2, 0x6238
 8003762:	6e75                	.insn	2, 0x6e75
 8003764:	387a                	.insn	2, 0x387a
 8003766:	487d3fef          	jal	x31,80d73ec <__exp_data+0xd3e84>
 800376a:	f274                	.insn	2, 0xf274
 800376c:	5e18                	.insn	2, 0x5e18
 800376e:	a63f3c87          	.insn	4, 0xa63f3c87
 8003772:	4fb2                	.insn	2, 0x4fb2
 8003774:	31ce                	.insn	2, 0x31ce
 8003776:	e7f23fef          	jal	x31,7f275f4 <_Min_Heap_Size+0x75275f4>
 800377a:	981f 472b 3c80      	.insn	6, 0x3c80472b981f
 8003780:	7cdd                	.insn	2, 0x7cdd
 8003782:	65e2                	.insn	2, 0x65e2
 8003784:	2b45                	.insn	2, 0x2b45
 8003786:	085e3fef          	jal	x31,80e700a <__exp_data+0xe3aa2>
 800378a:	3f71                	.insn	2, 0x3f71
 800378c:	bc96b87b          	.insn	4, 0xbc96b87b
 8003790:	6381                	.insn	2, 0x6381
 8003792:	e1f5                	.insn	2, 0xe1f5
 8003794:	24df 3fef ab31      	.insn	6, 0xab313fef24df
 800379a:	6d09                	.insn	2, 0x6d09
 800379c:	f7e1                	.insn	2, 0xf7e1
 800379e:	3c82                	.insn	2, 0x3c82
 80037a0:	dee1                	.insn	2, 0xdee1
 80037a2:	f51f 1e9d 3fef      	.insn	6, 0x3fef1e9df51f
 80037a8:	bffa                	.insn	2, 0xbffa
 80037aa:	219b1a6f          	jal	x20,80b51c2 <__exp_data+0xb1c5a>
 80037ae:	bc3d                	.insn	2, 0xbc3d
 80037b0:	d990                	.insn	2, 0xd990
 80037b2:	d0da                	.insn	2, 0xd0da
 80037b4:	3fef187f 720c0ab4 	.insn	12, 0x3c8b3782720c0ab43fef187f
 80037bc:	3c8b3782 
 80037c0:	a6e4030b          	.insn	4, 0xa6e4030b
 80037c4:	1285                	.insn	2, 0x1285
 80037c6:	cb8f3fef          	jal	x31,7ff6c7e <_Min_Heap_Size+0x75f6c7e>
 80037ca:	89ce                	.insn	2, 0x89ce
 80037cc:	1492                	.insn	2, 0x1492
 80037ce:	3c6e                	.insn	2, 0x3c6e
 80037d0:	2f56                	.insn	2, 0x2f56
 80037d2:	a93e                	.insn	2, 0xa93e
 80037d4:	3fef0caf          	.insn	4, 0x3fef0caf
 80037d8:	abb6                	.insn	2, 0xabb6
 80037da:	4db0                	.insn	2, 0x4db0
 80037dc:	4d75                	.insn	2, 0x4d75
 80037de:	b7153c83          	ld	x25,-1167(x10)
 80037e2:	0a31                	.insn	2, 0x0a31
 80037e4:	06fe                	.insn	2, 0x06fe
 80037e6:	744c3fef          	jal	x31,80c6f2a <__exp_data+0xc39c2>
 80037ea:	e2ac                	.insn	2, 0xe2ac
 80037ec:	4201                	.insn	2, 0x4201
 80037ee:	3c86                	.insn	2, 0x3c86
 80037f0:	d831                	.insn	2, 0xd831
 80037f2:	fc4c                	.insn	2, 0xfc4c
 80037f4:	0170                	.insn	2, 0x0170
 80037f6:	f84a3fef          	jal	x31,7fa6f7a <_Min_Heap_Size+0x75a6f7a>
 80037fa:	dd395dd3          	.insn	4, 0xdd395dd3
 80037fe:	16ff3c8f          	.insn	4, 0x16ff3c8f
 8003802:	b264                	.insn	2, 0xb264
 8003804:	fc08                	.insn	2, 0xfc08
 8003806:	3fee                	.insn	2, 0x3fee
 8003808:	5b04                	.insn	2, 0x5b04
 800380a:	3b8e                	.insn	2, 0x3b8e
 800380c:	a380                	.insn	2, 0xa380
 800380e:	bc86                	.insn	2, 0xbc86
 8003810:	9ff1                	.insn	2, 0x9ff1
 8003812:	5f92                	.insn	2, 0x5f92
 8003814:	f6c5                	.insn	2, 0xf6c5
 8003816:	3fee                	.insn	2, 0x3fee
 8003818:	5068                	.insn	2, 0x5068
 800381a:	4aedcc4b          	.insn	4, 0x4aedcc4b
 800381e:	bc92                	.insn	2, 0xbc92
 8003820:	373aa9cb          	.insn	4, 0x373aa9cb
 8003824:	3feef1a7          	.insn	4, 0x3feef1a7
 8003828:	2d8e                	.insn	2, 0x2d8e
 800382a:	1b51                	.insn	2, 0x1b51
 800382c:	07f8                	.insn	2, 0x07f8
 800382e:	bc99                	.insn	2, 0xbc99
 8003830:	d866                	.insn	2, 0xd866
 8003832:	6d05                	.insn	2, 0x6d05
 8003834:	ecae                	.insn	2, 0xecae
 8003836:	3fee                	.insn	2, 0x3fee
 8003838:	36d2                	.insn	2, 0x36d2
 800383a:	3e94                	.insn	2, 0x3e94
 800383c:	d1e8                	.insn	2, 0xd1e8
 800383e:	bc71                	.insn	2, 0xbc71
 8003840:	34e59ff7          	.insn	4, 0x34e59ff7
 8003844:	3feee7db          	.insn	4, 0x3feee7db
 8003848:	1b15                	.insn	2, 0x1b15
 800384a:	b3ce                	.insn	2, 0xb3ce
 800384c:	1919                	.insn	2, 0x1919
 800384e:	bc99                	.insn	2, 0xbc99
 8003850:	a8e5                	.insn	2, 0xa8e5
 8003852:	e32dc313          	xori	x6,x27,-462
 8003856:	3fee                	.insn	2, 0x3fee
 8003858:	4c6d                	.insn	2, 0x4c6d
 800385a:	a72a                	.insn	2, 0xa72a
 800385c:	9f48                	.insn	2, 0x9f48
 800385e:	3c85                	.insn	2, 0x3c85
 8003860:	3422                	.insn	2, 0x3422
 8003862:	4c12                	.insn	2, 0x4c12
 8003864:	dea6                	.insn	2, 0xdea6
 8003866:	3fee                	.insn	2, 0x3fee
 8003868:	698a                	.insn	2, 0x698a
 800386a:	7a28                	.insn	2, 0x7a28
 800386c:	1260                	.insn	2, 0x1260
 800386e:	801cbc93          	sltiu	x25,x25,-2047
 8003872:	04ac                	.insn	2, 0x04ac
 8003874:	da45                	.insn	2, 0xda45
 8003876:	3fee                	.insn	2, 0x3fee
 8003878:	4817895b          	.insn	4, 0x4817895b
 800387c:	bc58a78f          	.insn	4, 0xbc58a78f
 8003880:	2e2a                	.insn	2, 0x2e2a
 8003882:	d60a21f7          	.insn	4, 0xd60a21f7
 8003886:	3fee                	.insn	2, 0x3fee
 8003888:	67499a1b          	.insn	4, 0x67499a1b
 800388c:	bc7c2c9b          	.insn	4, 0xbc7c2c9b
 8003890:	d950a897          	auipc	x17,0xd950a
 8003894:	d1f5                	.insn	2, 0xd1f5
 8003896:	3fee                	.insn	2, 0x3fee
 8003898:	ac11                	.insn	2, 0xac11
 800389a:	60c2                	.insn	2, 0x60c2
 800389c:	63ed                	.insn	2, 0x63ed
 800389e:	892d3c43          	.insn	4, 0x892d3c43
 80038a2:	6061                	.insn	2, 0x6061
 80038a4:	ce08                	.insn	2, 0xce08
 80038a6:	3fee                	.insn	2, 0x3fee
 80038a8:	3b0664ef          	jal	x9,8069c58 <__exp_data+0x666f0>
 80038ac:	6609                	.insn	2, 0x6609
 80038ae:	3c96                	.insn	2, 0x3c96
 80038b0:	ed1d0057          	.insn	4, 0xed1d0057
 80038b4:	ca41                	.insn	2, 0xca41
 80038b6:	3fee                	.insn	2, 0x3fee
 80038b8:	0379                	.insn	2, 0x0379
 80038ba:	daa1                	.insn	2, 0xdaa1
 80038bc:	cce1                	.insn	2, 0xcce1
 80038be:	3c6e                	.insn	2, 0x3c6e
 80038c0:	3cd0                	.insn	2, 0x3cd0
 80038c2:	b5c1                	.insn	2, 0xb5c1
 80038c4:	c6a2                	.insn	2, 0xc6a2
 80038c6:	3fee                	.insn	2, 0x3fee
 80038c8:	1230                	.insn	2, 0x1230
 80038ca:	ff8e3f0f          	.insn	4, 0xff8e3f0f
 80038ce:	d3de3c93          	sltiu	x25,x28,-707
 80038d2:	c32af0d7          	.insn	4, 0xc32af0d7
 80038d6:	3fee                	.insn	2, 0x3fee
 80038d8:	afb0                	.insn	2, 0xafb0
 80038da:	bb7a                	.insn	2, 0xbb7a
 80038dc:	90ce                	.insn	2, 0x90ce
 80038de:	3c76                	.insn	2, 0x3c76
 80038e0:	d5362a27          	.insn	4, 0xd5362a27
 80038e4:	bfda                	.insn	2, 0xbfda
 80038e6:	3fee                	.insn	2, 0x3fee
 80038e8:	eb54e077          	.insn	4, 0xeb54e077
 80038ec:	1dbd                	.insn	2, 0x1dbd
 80038ee:	dd0d3c93          	sltiu	x25,x26,-560
 80038f2:	99fd                	.insn	2, 0x99fd
 80038f4:	bcb2                	.insn	2, 0xbcb2
 80038f6:	3fee                	.insn	2, 0x3fee
 80038f8:	a38e                	.insn	2, 0xa38e
 80038fa:	0071                	.insn	2, 0x0071
 80038fc:	9434                	.insn	2, 0x9434
 80038fe:	2ca7bc8f          	.insn	4, 0x2ca7bc8f
 8003902:	769d                	.insn	2, 0x769d
 8003904:	b9b2                	.insn	2, 0xb9b2
 8003906:	3fee                	.insn	2, 0x3fee
 8003908:	a349                	.insn	2, 0xa349
 800390a:	deccdc93          	.insn	4, 0xdeccdc93
 800390e:	6642bc87          	.insn	4, 0x6642bc87
 8003912:	b6daa2cf          	.insn	4, 0xb6daa2cf
 8003916:	3fee                	.insn	2, 0x3fee
 8003918:	385f bd0f dec6      	.insn	6, 0xdec6bd0f385f
 800391e:	bc78                	.insn	2, 0xbc78
 8003920:	4f82                	.insn	2, 0x4f82
 8003922:	569d                	.insn	2, 0x569d
 8003924:	3feeb42b          	.insn	4, 0x3feeb42b
 8003928:	5cf6                	.insn	2, 0x5cf6
 800392a:	1246ec7b          	.insn	4, 0x1246ec7b
 800392e:	bc86                	.insn	2, 0xbc86
 8003930:	ca5d920f          	.insn	4, 0xca5d920f
 8003934:	b1a4                	.insn	2, 0xb1a4
 8003936:	3fee                	.insn	2, 0x3fee
 8003938:	d78e                	.insn	2, 0xd78e
 800393a:	18fd                	.insn	2, 0x18fd
 800393c:	3505                	.insn	2, 0x3505
 800393e:	27da3c93          	sltiu	x25,x20,637
 8003942:	36b5                	.insn	2, 0x36b5
 8003944:	3feeaf47          	.insn	4, 0x3feeaf47
 8003948:	9b05                	.insn	2, 0x9b05
 800394a:	2f8a                	.insn	2, 0x2f8a
 800394c:	3c7b98b7          	lui	x17,0x3c7b9
 8003950:	c7fd                	.insn	2, 0xc7fd
 8003952:	ad12d497          	auipc	x9,0xad12d
 8003956:	3fee                	.insn	2, 0x3fee
 8003958:	5409                	.insn	2, 0x5409
 800395a:	e21c                	.insn	2, 0xe21c
 800395c:	63e1                	.insn	2, 0x63e1
 800395e:	3c90                	.insn	2, 0x3c90
 8003960:	5429                	.insn	2, 0x5429
 8003962:	dd48                	.insn	2, 0xdd48
 8003964:	3feeab07          	.insn	4, 0x3feeab07
 8003968:	c6ea                	.insn	2, 0xc6ea
 800396a:	5019                	.insn	2, 0x5019
 800396c:	c785                	.insn	2, 0xc785
 800396e:	3c34                	.insn	2, 0x3c34
 8003970:	8a5946b7          	lui	x13,0x8a594
 8003974:	a926                	.insn	2, 0xa926
 8003976:	3fee                	.insn	2, 0x3fee
 8003978:	c035                	.insn	2, 0xc035
 800397a:	2b64                	.insn	2, 0x2b64
 800397c:	32e6                	.insn	2, 0x32e6
 800397e:	3c94                	.insn	2, 0x3c94
 8003980:	2148                	.insn	2, 0x2148
 8003982:	15ad                	.insn	2, 0x15ad
 8003984:	3feea76f          	jal	x14,80edd82 <__exp_data+0xea81a>
 8003988:	769f 6199 e44a      	.insn	6, 0xe44a6199769f
 800398e:	bc8c                	.insn	2, 0xbc8c
 8003990:	dc09                	.insn	2, 0xdc09
 8003992:	b976                	.insn	2, 0xb976
 8003994:	a5e1                	.insn	2, 0xa5e1
 8003996:	3fee                	.insn	2, 0x3fee
 8003998:	4da8                	.insn	2, 0x4da8
 800399a:	33c53bef          	jal	x23,8056cd6 <__exp_data+0x5376e>
 800399e:	bc8c                	.insn	2, 0xbc8c
 80039a0:	5585                	.insn	2, 0x5585
 80039a2:	b03a                	.insn	2, 0xb03a
 80039a4:	a47e                	.insn	2, 0xa47e
 80039a6:	3fee                	.insn	2, 0x3fee
 80039a8:	e9ae                	.insn	2, 0xe9ae
 80039aa:	5378892b          	.insn	4, 0x5378892b
 80039ae:	bc84                	.insn	2, 0xbc84
 80039b0:	c320                	.insn	2, 0xc320
 80039b2:	34cc                	.insn	2, 0x34cc
 80039b4:	a346                	.insn	2, 0xa346
 80039b6:	3fee                	.insn	2, 0x3fee
 80039b8:	5858                	.insn	2, 0x5858
 80039ba:	7856                	.insn	2, 0x7856
 80039bc:	cedd                	.insn	2, 0xcedd
 80039be:	2225bc93          	sltiu	x25,x11,546
 80039c2:	8255                	.insn	2, 0x8255
 80039c4:	a238                	.insn	2, 0xa238
 80039c6:	3fee                	.insn	2, 0x3fee
 80039c8:	1964                	.insn	2, 0x1964
 80039ca:	807e                	.insn	2, 0x807e
 80039cc:	10aa                	.insn	2, 0x10aa
 80039ce:	a9733c57          	.insn	4, 0xa9733c57
 80039d2:	d44c                	.insn	2, 0xd44c
 80039d4:	a155                	.insn	2, 0xa155
 80039d6:	3fee                	.insn	2, 0x3fee
 80039d8:	2228                	.insn	2, 0x2228
 80039da:	bf5e                	.insn	2, 0xbf5e
 80039dc:	bc93b3ef          	jal	x7,7f3f5a4 <_Min_Heap_Size+0x753f5a4>
 80039e0:	3bcd                	.insn	2, 0x3bcd
 80039e2:	667f a09e 3fee b982 	.insn	22, 0x3feea012750bdabfbc6a12ad8734b9823feea09e667f
 80039ea:	8734 12ad bc6a dabf 
 80039f2:	750b a012 3fee 
 80039f8:	a9ee                	.insn	2, 0xa9ee
 80039fa:	b86d                	.insn	2, 0xb86d
 80039fc:	bc6367ef          	jal	x15,7f39dc2 <_Min_Heap_Size+0x7539dc2>
 8003a00:	3c651a2f          	.insn	4, 0x3c651a2f
 8003a04:	9fb2                	.insn	2, 0x9fb2
 8003a06:	3fee                	.insn	2, 0x3fee
 8003a08:	8851                	.insn	2, 0x8851
 8003a0a:	54e0                	.insn	2, 0x54e0
 8003a0c:	dc3d                	.insn	2, 0xdc3d
 8003a0e:	bc80                	.insn	2, 0xbc80
 8003a10:	9484                	.insn	2, 0x9484
 8003a12:	f951                	.insn	2, 0xf951
 8003a14:	9f7d                	.insn	2, 0x9f7d
 8003a16:	3fee                	.insn	2, 0x3fee
 8003a18:	7e5a3ecf          	.insn	4, 0x7e5a3ecf
 8003a1c:	1f64                	.insn	2, 0x1f64
 8003a1e:	bc78                	.insn	2, 0xbc78
 8003a20:	5f74                	.insn	2, 0x5f74
 8003a22:	e8ec                	.insn	2, 0xe8ec
 8003a24:	9f75                	.insn	2, 0x9f75
 8003a26:	3fee                	.insn	2, 0x3fee
 8003a28:	7db0                	.insn	2, 0x7db0
 8003a2a:	ee4ac08b          	.insn	4, 0xee4ac08b
 8003a2e:	bc86                	.insn	2, 0xbc86
 8003a30:	8174                	.insn	2, 0x8174
 8003a32:	48a5                	.insn	2, 0x48a5
 8003a34:	9f9a                	.insn	2, 0x9f9a
 8003a36:	3fee                	.insn	2, 0x3fee
 8003a38:	e68a                	.insn	2, 0xe68a
 8003a3a:	1e55                	.insn	2, 0x1e55
 8003a3c:	1932                	.insn	2, 0x1932
 8003a3e:	bc86                	.insn	2, 0xbc86
 8003a40:	67c9                	.insn	2, 0x67c9
 8003a42:	5642                	.insn	2, 0x5642
 8003a44:	3fee9feb          	.insn	4, 0x3fee9feb
 8003a48:	5e09d4d3          	.insn	4, 0x5e09d4d3
 8003a4c:	3c909ccb          	.insn	4, 0x3c909ccb
 8003a50:	4fde5d3f 3feea069 	.insn	8, 0x3feea0694fde5d3f
 8003a58:	a51d                	.insn	2, 0xa51d
 8003a5a:	b94d                	.insn	2, 0xb94d
 8003a5c:	32dc                	.insn	2, 0x32dc
 8003a5e:	0187bc7b          	.insn	4, 0x0187bc7b
 8003a62:	a11473eb          	.insn	4, 0xa11473eb
 8003a66:	3fee                	.insn	2, 0x3fee
 8003a68:	5467c06b          	.insn	4, 0x5467c06b
 8003a6c:	ecfd                	.insn	2, 0xecfd
 8003a6e:	3c94                	.insn	2, 0x3c94
 8003a70:	c132                	.insn	2, 0xc132
 8003a72:	0130                	.insn	2, 0x0130
 8003a74:	a1ed                	.insn	2, 0xa1ed
 8003a76:	3fee                	.insn	2, 0x3fee
 8003a78:	6c55                	.insn	2, 0x6c55
 8003a7a:	abd6                	.insn	2, 0xabd6
 8003a7c:	ebe1                	.insn	2, 0xebe1
 8003a7e:	3c65                	.insn	2, 0x3c65
 8003a80:	4e62                	.insn	2, 0x4e62
 8003a82:	a2f336cf          	.insn	4, 0xa2f336cf
 8003a86:	3fee                	.insn	2, 0x3fee
 8003a88:	cf42                	.insn	2, 0xcf42
 8003a8a:	a1c52fb3          	.insn	4, 0xa1c52fb3
 8003a8e:	bc88                	.insn	2, 0xbc88
 8003a90:	1a12                	.insn	2, 0x1a12
 8003a92:	543e                	.insn	2, 0x543e
 8003a94:	3feea427          	.insn	4, 0x3feea427
 8003a98:	3734                	.insn	2, 0x3734
 8003a9a:	69b6f13b          	.insn	4, 0x69b6f13b
 8003a9e:	ce13bc93          	sltiu	x25,x7,-799
 8003aa2:	994c                	.insn	2, 0x994c
 8003aa4:	a589                	.insn	2, 0xa589
 8003aa6:	3fee                	.insn	2, 0x3fee
 8003aa8:	ff1e                	.insn	2, 0xff1e
 8003aaa:	3a19                	.insn	2, 0x3a19
 8003aac:	5e84                	.insn	2, 0x5e84
 8003aae:	bc80                	.insn	2, 0xbc80
 8003ab0:	c7ad                	.insn	2, 0xc7ad
 8003ab2:	a71a4623          	.insn	4, 0xa71a4623
 8003ab6:	3fee                	.insn	2, 0x3fee
 8003ab8:	576e                	.insn	2, 0x576e
 8003aba:	d872                	.insn	2, 0xd872
 8003abc:	d450                	.insn	2, 0xd450
 8003abe:	bc94                	.insn	2, 0xbc94
 8003ac0:	92ed                	.insn	2, 0x92ed
 8003ac2:	9b44                	.insn	2, 0x9b44
 8003ac4:	a8d9                	.insn	2, 0xa8d9
 8003ac6:	3fee                	.insn	2, 0x3fee
 8003ac8:	8a00                	.insn	2, 0x8a00
 8003aca:	5b0e                	.insn	2, 0x5b0e
 8003acc:	3c90ad67          	.insn	4, 0x3c90ad67
 8003ad0:	6699                	.insn	2, 0x6699
 8003ad2:	d98a                	.insn	2, 0xd98a
 8003ad4:	3feeaac7          	.insn	4, 0x3feeaac7
 8003ad8:	eab4                	.insn	2, 0xeab4
 8003ada:	c1f0                	.insn	2, 0xc1f0
 8003adc:	3c8db72f          	.insn	4, 0x3c8db72f
 8003ae0:	422aa0db          	.insn	4, 0x422aa0db
 8003ae4:	ace5                	.insn	2, 0xace5
 8003ae6:	3fee                	.insn	2, 0x3fee
 8003ae8:	e7ff 9cc5 b660 bc65 	.insn	22, 0xf68359f35f443feeaf3216b5448cbc65b6609cc5e7ff
 8003af0:	448c 16b5 af32 3fee 
 8003af8:	5f44 59f3 f683 
 8003afe:	77363c7b          	.insn	4, 0x77363c7b
 8003b02:	9915                	.insn	2, 0x9915
 8003b04:	b1ae                	.insn	2, 0xb1ae
 8003b06:	3fee                	.insn	2, 0x3fee
 8003b08:	a71e3d83          	ld	x27,-1423(x28) # ffffffffd1e0bf6b <_estack+0xffffffffade0bf6b>
 8003b0c:	091f bc93 ffc6      	.insn	6, 0xffc6bc93091f
 8003b12:	0b91                	.insn	2, 0x0b91
 8003b14:	3feeb45b          	.insn	4, 0x3feeb45b
 8003b18:	1e29                	.insn	2, 0x1e29
 8003b1a:	8b6c                	.insn	2, 0x8b6c
 8003b1c:	a9b8                	.insn	2, 0xa9b8
 8003b1e:	bc5d                	.insn	2, 0xbc5d
 8003b20:	c5e5                	.insn	2, 0xc5e5
 8003b22:	b0cd                	.insn	2, 0xb0cd
 8003b24:	3feeb737          	lui	x14,0x3feeb
 8003b28:	b959                	.insn	2, 0xb959
 8003b2a:	7c90                	.insn	2, 0x7c90
 8003b2c:	23f9                	.insn	2, 0x23f9
 8003b2e:	bc6c                	.insn	2, 0xbc6c
 8003b30:	cbc8520f          	.insn	4, 0xcbc8520f
 8003b34:	ba44                	.insn	2, 0xba44
 8003b36:	3fee                	.insn	2, 0x3fee
 8003b38:	f9aa                	.insn	2, 0xf9aa
 8003b3a:	22f4                	.insn	2, 0x22f4
 8003b3c:	bc924343          	.insn	4, 0xbc924343
 8003b40:	4e50                	.insn	2, 0x4e50
 8003b42:	9fde                	.insn	2, 0x9fde
 8003b44:	bd82                	.insn	2, 0xbd82
 8003b46:	3fee                	.insn	2, 0x3fee
 8003b48:	d7668e4b          	.insn	4, 0xd7668e4b
 8003b4c:	ca6c                	.insn	2, 0xca6c
 8003b4e:	bc85                	.insn	2, 0xbc85
 8003b50:	07ba                	.insn	2, 0x07ba
 8003b52:	70ca                	.insn	2, 0x70ca
 8003b54:	c0f1                	.insn	2, 0xc0f1
 8003b56:	3fee                	.insn	2, 0x3fee
 8003b58:	2b91ce27          	.insn	4, 0x2b91ce27
 8003b5c:	affc                	.insn	2, 0xaffc
 8003b5e:	3c71                	.insn	2, 0x3c71
 8003b60:	f090                	.insn	2, 0xf090
 8003b62:	c49182a3          	sb	x9,-955(x3)
 8003b66:	3fee                	.insn	2, 0x3fee
 8003b68:	e10a73bb          	.insn	4, 0xe10a73bb
 8003b6c:	d235                	.insn	2, 0xd235
 8003b6e:	3c6d                	.insn	2, 0x3c6d
 8003b70:	19e32323          	sw	x30,390(x6)
 8003b74:	3feec863          	blt	x29,x30,8003f64 <__exp_data+0x9fc>
 8003b78:	22622263          	.insn	4, 0x22622263
 8003b7c:	c504                	.insn	2, 0xc504
 8003b7e:	e565bc87          	.insn	4, 0xe565bc87
 8003b82:	7b5d                	.insn	2, 0x7b5d
 8003b84:	cc66                	.insn	2, 0xcc66
 8003b86:	3fee                	.insn	2, 0x3fee
 8003b88:	31d5                	.insn	2, 0x31d5
 8003b8a:	e3e2                	.insn	2, 0xe3e2
 8003b8c:	1c86                	.insn	2, 0x1c86
 8003b8e:	2d333c8b          	.insn	4, 0x2d333c8b
 8003b92:	ec4a                	.insn	2, 0xec4a
 8003b94:	3feed09b          	.insn	4, 0x3feed09b
 8003b98:	bb15                	.insn	2, 0xbb15
 8003b9a:	d3bc                	.insn	2, 0xd3bc
 8003b9c:	bbd1                	.insn	2, 0xbbd1
 8003b9e:	bc91                	.insn	2, 0xbc91
 8003ba0:	255d                	.insn	2, 0x255d
 8003ba2:	b23e                	.insn	2, 0xb23e
 8003ba4:	3feed503          	lhu	x10,1022(x29)
 8003ba8:	31d2                	.insn	2, 0x31d2
 8003baa:	9cee                	.insn	2, 0x9cee
 8003bac:	cc31                	.insn	2, 0xcc31
 8003bae:	3c90                	.insn	2, 0x3c90
 8003bb0:	b358                	.insn	2, 0xb358
 8003bb2:	1330                	.insn	2, 0x1330
 8003bb4:	d99e                	.insn	2, 0xd99e
 8003bb6:	3fee                	.insn	2, 0x3fee
 8003bb8:	6e735ab3          	.insn	4, 0x6e735ab3
 8003bbc:	6984                	.insn	2, 0x6984
 8003bbe:	3c84                	.insn	2, 0x3c84
 8003bc0:	5579fdbf 3feede6b 	.insn	8, 0x3feede6b5579fdbf
 8003bc8:	9db4                	.insn	2, 0x9db4
 8003bca:	978e                	.insn	2, 0x978e
 8003bcc:	dfcd                	.insn	2, 0xdfcd
 8003bce:	bc82                	.insn	2, 0xbc82
 8003bd0:	f37a                	.insn	2, 0xf37a
 8003bd2:	e36bbfd3          	.insn	4, 0xe36bbfd3
 8003bd6:	3fee                	.insn	2, 0x3fee
 8003bd8:	92cb3387          	.insn	4, 0x92cb3387
 8003bdc:	3c8c1a77          	.insn	4, 0x3c8c1a77
 8003be0:	d3ad                	.insn	2, 0xd3ad
 8003be2:	995a                	.insn	2, 0x995a
 8003be4:	e89f 3fee d9fa      	.insn	6, 0xd9fa3feee89f
 8003bea:	4ad1                	.insn	2, 0x4ad1
 8003bec:	bc907b8f          	.insn	4, 0xbc907b8f
 8003bf0:	b666                	.insn	2, 0xb666
 8003bf2:	298d                	.insn	2, 0x298d
 8003bf4:	3feeee07          	.insn	4, 0x3feeee07
 8003bf8:	aeba                	.insn	2, 0xaeba
 8003bfa:	56dc                	.insn	2, 0x56dc
 8003bfc:	c3d9                	.insn	2, 0xc3d9
 8003bfe:	bc55                	.insn	2, 0xbc55
 8003c00:	b84f15fb          	.insn	4, 0xb84f15fb
 8003c04:	f3a2                	.insn	2, 0xf3a2
 8003c06:	3fee                	.insn	2, 0x3fee
 8003c08:	f640                	.insn	2, 0xf640
 8003c0a:	3da6                	.insn	2, 0x3da6
 8003c0c:	a40e                	.insn	2, 0xa40e
 8003c0e:	bc90                	.insn	2, 0xbc90
 8003c10:	593a                	.insn	2, 0x593a
 8003c12:	8de5                	.insn	2, 0x8de5
 8003c14:	f972                	.insn	2, 0xf972
 8003c16:	3fee                	.insn	2, 0x3fee
 8003c18:	9334                	.insn	2, 0x9334
 8003c1a:	38ad                	.insn	2, 0x38ad
 8003c1c:	d6f4                	.insn	2, 0xd6f4
 8003c1e:	bc68                	.insn	2, 0xbc68
 8003c20:	f2fb5e47          	.insn	4, 0xf2fb5e47
 8003c24:	ff76                	.insn	2, 0xff76
 8003c26:	3fee                	.insn	2, 0x3fee
 8003c28:	8a35                	.insn	2, 0x8a35
 8003c2a:	6b58                	.insn	2, 0x6b58
 8003c2c:	eee2                	.insn	2, 0xeee2
 8003c2e:	bc91                	.insn	2, 0xbc91
 8003c30:	064a                	.insn	2, 0x064a
 8003c32:	30a1                	.insn	2, 0x30a1
 8003c34:	05b0                	.insn	2, 0x05b0
 8003c36:	ddcd3fef          	jal	x31,7fd7212 <_Min_Heap_Size+0x75d7212>
 8003c3a:	0a5f ffd7 3c74      	.insn	6, 0x3c74ffd70a5f
 8003c40:	c1d2                	.insn	2, 0xc1d2
 8003c42:	0c1e904b          	.insn	4, 0x0c1e904b
 8003c46:	98ac3fef          	jal	x31,7fc6dd0 <_Min_Heap_Size+0x75c6dd0>
 8003c4a:	fa92                	.insn	2, 0xfa92
 8003c4c:	bc91bdfb          	.insn	4, 0xbc91bdfb
 8003c50:	1e09                	.insn	2, 0x1e09
 8003c52:	12c25bd7          	.insn	4, 0x12c25bd7
 8003c56:	0cb33fef          	jal	x31,8037520 <__exp_data+0x33fb8>
 8003c5a:	6eae30af          	.insn	4, 0x6eae30af
 8003c5e:	529c3c73          	.insn	4, 0x529c3c73
 8003c62:	dd85                	.insn	2, 0xdd85
 8003c64:	3fef199b          	.insn	4, 0x3fef199b
 8003c68:	fd94                	.insn	2, 0xfd94
 8003c6a:	5c9f e332 3c8e      	.insn	6, 0x3c8ee3325c9f
 8003c70:	d07a                	.insn	2, 0xd07a
 8003c72:	20ab5fff 59ac3fef 	.insn	20, 0x27f12e57d14b3c84e08fd10959ac3fef20ab5fff
 8003c7a:	e08fd109 d14b3c84 
 8003c82:	27f12e57 
 8003c86:	1a673fef          	jal	x31,8076e2c <__exp_data+0x738c4>
 8003c8a:	384e                	.insn	2, 0x384e
 8003c8c:	3c63cdaf          	.insn	4, 0x3c63cdaf
 8003c90:	e7b5                	.insn	2, 0xe7b5
 8003c92:	9406                	.insn	2, 0x9406
 8003c94:	2f6d                	.insn	2, 0x2f6d
 8003c96:	19683fef          	jal	x31,8086e2c <__exp_data+0x838c4>
 8003c9a:	6c92                	.insn	2, 0x6c92
 8003c9c:	6b2c                	.insn	2, 0x6b2c
 8003c9e:	90693c67          	.insn	4, 0x90693c67
 8003ca2:	3720dcef          	jal	x25,8011014 <__exp_data+0xdaac>
 8003ca6:	b5d23fef          	jal	x31,7f27802 <_Min_Heap_Size+0x7527802>
 8003caa:	83cc                	.insn	2, 0x83cc
 8003cac:	8a18                	.insn	2, 0x8a18
 8003cae:	bc80                	.insn	2, 0xbc80
 8003cb0:	c3fa                	.insn	2, 0xc3fa
 8003cb2:	555d                	.insn	2, 0x555d
 8003cb4:	3fef3f0b          	.insn	4, 0x3fef3f0b
 8003cb8:	3ffffa6f          	jal	x20,81038b6 <__exp_data+0x10034e>
 8003cbc:	ad5d                	.insn	2, 0xad5d
 8003cbe:	897cbc8f          	.insn	4, 0x897cbc8f
 8003cc2:	472d4a07          	.insn	4, 0x472d4a07
 8003cc6:	a9493fef          	jal	x31,7f96f5a <_Min_Heap_Size+0x7596f5a>
 8003cca:	3875                	.insn	2, 0x3875
 8003ccc:	0dae                	.insn	2, 0x0dae
 8003cce:	bc90                	.insn	2, 0xbc90
 8003cd0:	89f2                	.insn	2, 0x89f2
 8003cd2:	080d                	.insn	2, 0x080d
 8003cd4:	3fef4f87          	.insn	4, 0x3fef4f87
 8003cd8:	a63d07a7          	.insn	4, 0xa63d07a7
 8003cdc:	a385                	.insn	2, 0xa385
 8003cde:	3c74                	.insn	2, 0x3c74
 8003ce0:	dcfba487          	.insn	4, 0xdcfba487
 8003ce4:	5818                	.insn	2, 0x5818
 8003ce6:	220f3fef          	jal	x31,80f6f06 <__exp_data+0xf399e>
 8003cea:	2040                	.insn	2, 0x2040
 8003cec:	919e                	.insn	2, 0x919e
 8003cee:	bc82                	.insn	2, 0xbc82
 8003cf0:	8398                	.insn	2, 0x8398
 8003cf2:	16c9                	.insn	2, 0x16c9
 8003cf4:	3fef60e3          	bltu	x30,x30,80048d4 <__exp_data+0x136c>
 8003cf8:	92ac                	.insn	2, 0x92ac
 8003cfa:	d5c1                	.insn	2, 0xd5c1
 8003cfc:	5a50                	.insn	2, 0x5a50
 8003cfe:	3c8e                	.insn	2, 0x3c8e
 8003d00:	3285                	.insn	2, 0x3285
 8003d02:	69e603db          	.insn	4, 0x69e603db
 8003d06:	6b4b3fef          	jal	x31,80b73ba <__exp_data+0xb3e52>
 8003d0a:	ac01                	.insn	2, 0xac01
 8003d0c:	3a59                	.insn	2, 0x3a59
 8003d0e:	3c84                	.insn	2, 0x3c84
 8003d10:	b460                	.insn	2, 0xb460
 8003d12:	f301                	.insn	2, 0xf301
 8003d14:	7321                	.insn	2, 0x7321
 8003d16:	3e1f3fef          	jal	x31,80f78f6 <__exp_data+0xf438e>
 8003d1a:	07b4                	.insn	2, 0x07b4
 8003d1c:	d521                	.insn	2, 0xd521
 8003d1e:	bc82                	.insn	2, 0xbc82
 8003d20:	9b5f 337b 7c97      	.insn	6, 0x7c97337b9b5f
 8003d26:	0dc93fef          	jal	x31,8096e02 <__exp_data+0x9389a>
 8003d2a:	2ab93b47          	.insn	4, 0x2ab93b47
 8003d2e:	bc89                	.insn	2, 0xbc89
 8003d30:	a129                	.insn	2, 0xa129
 8003d32:	14f5                	.insn	2, 0x14f5
 8003d34:	8646                	.insn	2, 0x8646
 8003d36:	88d33fef          	jal	x31,7f375c2 <_Min_Heap_Size+0x75375c2>
 8003d3a:	603a                	.insn	2, 0x603a
 8003d3c:	b604                	.insn	2, 0xb604
 8003d3e:	3c74                	.insn	2, 0x3c74
 8003d40:	3ff6                	.insn	2, 0x3ff6
 8003d42:	902ee78b          	.insn	4, 0x902ee78b
 8003d46:	72713fef          	jal	x31,8017c6c <__exp_data+0x14704>
 8003d4a:	519d                	.insn	2, 0x519d
 8003d4c:	c5ec                	.insn	2, 0xc5ec
 8003d4e:	4c833c83          	ld	x25,1224(x6)
 8003d52:	9a51fbc7          	.insn	4, 0x9a51fbc7
 8003d56:	91f03fef          	jal	x31,7f07674 <_Min_Heap_Size+0x7507674>
 8003d5a:	f7128fd3          	.insn	4, 0xf7128fd3
 8003d5e:	90dabc8f          	.insn	4, 0x90dabc8f
 8003d62:	a2a4                	.insn	2, 0xa2a4
 8003d64:	3fefa4af          	.insn	4, 0x3fefa4af
 8003d68:	747d                	.insn	2, 0x747d
 8003d6a:	ae98e223          	.insn	4, 0xae98e223
 8003d6e:	bc8d                	.insn	2, 0xbc8d
 8003d70:	67f1                	.insn	2, 0x67f1
 8003d72:	2d8e                	.insn	2, 0x2d8e
 8003d74:	af48                	.insn	2, 0xaf48
 8003d76:	20083fef          	jal	x31,8086f76 <__exp_data+0x83a0e>
 8003d7a:	41aa                	.insn	2, 0x41aa
 8003d7c:	c3bc                	.insn	2, 0xc3bc
 8003d7e:	3c8e                	.insn	2, 0x3c8e
 8003d80:	ee615a27          	.insn	4, 0xee615a27
 8003d84:	3fefba1b          	.insn	4, 0x3fefba1b
 8003d88:	eb32                	.insn	2, 0xeb32
 8003d8a:	c3a9                	.insn	2, 0xc3a9
 8003d8c:	2b94                	.insn	2, 0x2b94
 8003d8e:	3c84                	.insn	2, 0x3c84
 8003d90:	376bba97          	auipc	x21,0x376bb
 8003d94:	3fefc52b          	.insn	4, 0x3fefc52b
 8003d98:	85ee                	.insn	2, 0x85ee
 8003d9a:	31d1                	.insn	2, 0x31d1
 8003d9c:	64a9                	.insn	2, 0x64a9
 8003d9e:	3c8a                	.insn	2, 0x3c8a
 8003da0:	4540                	.insn	2, 0x4540
 8003da2:	5b6e                	.insn	2, 0x5b6e
 8003da4:	d076                	.insn	2, 0xd076
 8003da6:	e3ed3fef          	jal	x31,7fd73e4 <_Min_Heap_Size+0x75d73e4>
 8003daa:	37bae43b          	.insn	4, 0x37bae43b
 8003dae:	bc8e                	.insn	2, 0xbc8e
 8003db0:	be14                	.insn	2, 0xbe14
 8003db2:	ad9c                	.insn	2, 0xad9c
 8003db4:	dbfd                	.insn	2, 0xdbfd
 8003db6:	cd9d3fef          	jal	x31,7fd7a8e <_Min_Heap_Size+0x75d7a8e>
 8003dba:	4d91                	.insn	2, 0x4d91
 8003dbc:	3c77893b          	.insn	4, 0x3c77893b
 8003dc0:	90d8                	.insn	2, 0x90d8
 8003dc2:	819e                	.insn	2, 0x819e
 8003dc4:	e7c1                	.insn	2, 0xe7c1
 8003dc6:	cc893fef          	jal	x31,7f9728e <_Min_Heap_Size+0x759728e>
 8003dca:	4160                	.insn	2, 0x4160
 8003dcc:	05c1                	.insn	2, 0x05c1
 8003dce:	71f13c53          	.insn	4, 0x71f13c53
 8003dd2:	f3c22b8f          	.insn	4, 0xf3c22b8f
 8003dd6:	00003fef          	jal	x31,8006dd6 <__exp_data+0x386e>
 8003dda:	0000                	.insn	2, 0x
 8003ddc:	0000                	.insn	2, 0x
 8003dde:	3ff0                	.insn	2, 0x3ff0
 8003de0:	0000                	.insn	2, 0x
 8003de2:	0000                	.insn	2, 0x
 8003de4:	0000                	.insn	2, 0x
 8003de6:	bff0                	.insn	2, 0xbff0
 8003de8:	0000                	.insn	2, 0x
 8003dea:	0000                	.insn	2, 0x
 8003dec:	0000                	.insn	2, 0x
 8003dee:	4330                	.insn	2, 0x4330
 8003df0:	0000                	.insn	2, 0x
 8003df2:	0000                	.insn	2, 0x
 8003df4:	0000                	.insn	2, 0x
 8003df6:	7f00                	.insn	2, 0x7f00
 8003df8:	0000                	.insn	2, 0x
 8003dfa:	0000                	.insn	2, 0x
 8003dfc:	0000                	.insn	2, 0x
 8003dfe:	0010                	.insn	2, 0x0010
 8003e00:	0000                	.insn	2, 0x
 8003e02:	0000                	.insn	2, 0x
 8003e04:	0000                	.insn	2, 0x
 8003e06:	7000                	.insn	2, 0x7000
 8003e08:	0000                	.insn	2, 0x
 8003e0a:	0000                	.insn	2, 0x
 8003e0c:	0000                	.insn	2, 0x
 8003e0e:	1000                	.insn	2, 0x1000

Disassembly of section .got:

0000000020000000 <_GLOBAL_OFFSET_TABLE_>:
	...
    20000008:	2378                	.insn	2, 0x2378
    2000000a:	0800                	.insn	2, 0x0800
    2000000c:	0000                	.insn	2, 0x
	...

Disassembly of section .got.plt:

0000000020000010 <.got.plt>:
    20000010:	ffff                	.insn	2, 0xffff
    20000012:	ffff                	.insn	2, 0xffff
    20000014:	ffff                	.insn	2, 0xffff
    20000016:	ffff                	.insn	2, 0xffff
	...

Disassembly of section .comment:

0000000000000000 <.comment>:
   0:	3a434347          	.insn	4, 0x3a434347
   4:	2820                	.insn	2, 0x2820
   6:	29554e47          	.insn	4, 0x29554e47
   a:	3120                	.insn	2, 0x3120
   c:	2e32                	.insn	2, 0x2e32
   e:	2e32                	.insn	2, 0x2e32
  10:	0030                	.insn	2, 0x0030

Disassembly of section .riscv.attributes:

0000000000000000 <.riscv.attributes>:
   0:	2e41                	.insn	2, 0x2e41
   2:	0000                	.insn	2, 0x
   4:	7200                	.insn	2, 0x7200
   6:	7369                	.insn	2, 0x7369
   8:	01007663          	bgeu	x0,x16,14 <_Min_Stack_Size-0x7fffec>
   c:	0024                	.insn	2, 0x0024
   e:	0000                	.insn	2, 0x
  10:	1004                	.insn	2, 0x1004
  12:	7205                	.insn	2, 0x7205
  14:	3676                	.insn	2, 0x3676
  16:	6934                	.insn	2, 0x6934
  18:	7032                	.insn	2, 0x7032
  1a:	5f31                	.insn	2, 0x5f31
  1c:	326d                	.insn	2, 0x326d
  1e:	3070                	.insn	2, 0x3070
  20:	615f 7032 5f31      	.insn	6, 0x5f317032615f
  26:	6d7a                	.insn	2, 0x6d7a
  28:	756d                	.insn	2, 0x756d
  2a:	316c                	.insn	2, 0x316c
  2c:	3070                	.insn	2, 0x3070
	...

Disassembly of section .debug_info:

0000000000000000 <.debug_info>:
   0:	01ca                	.insn	2, 0x01ca
   2:	0000                	.insn	2, 0x
   4:	0005                	.insn	2, 0x0005
   6:	0801                	.insn	2, 0x0801
   8:	0000                	.insn	2, 0x
   a:	0000                	.insn	2, 0x
   c:	00007807          	.insn	4, 0x7807
  10:	1d00                	.insn	2, 0x1d00
  12:	0000005b          	.insn	4, 0x005b
  16:	0000                	.insn	2, 0x
  18:	0000                	.insn	2, 0x
  1a:	0384                	.insn	2, 0x0384
  1c:	0800                	.insn	2, 0x0800
  1e:	0000                	.insn	2, 0x
  20:	0000                	.insn	2, 0x
  22:	0068                	.insn	2, 0x0068
	...
  2c:	0000                	.insn	2, 0x
  2e:	0801                	.insn	2, 0x0801
  30:	da04                	.insn	2, 0xda04
  32:	0002                	.insn	2, 0x0002
  34:	0100                	.insn	2, 0x0100
  36:	0510                	.insn	2, 0x0510
  38:	00000007          	.insn	4, 0x0007
  3c:	1001                	.insn	2, 0x1001
  3e:	00013307          	.insn	4, 0x00013307
  42:	0100                	.insn	2, 0x0100
  44:	0508                	.insn	2, 0x0508
  46:	0034                	.insn	2, 0x0034
  48:	0000                	.insn	2, 0x
  4a:	0101                	.insn	2, 0x0101
  4c:	6c06                	.insn	2, 0x6c06
  4e:	0000                	.insn	2, 0x
  50:	0300                	.insn	2, 0x0300
  52:	0000014b          	.insn	4, 0x014b
  56:	0148                	.insn	2, 0x0148
  58:	5d0d                	.insn	2, 0x5d0d
  5a:	0000                	.insn	2, 0x
  5c:	0800                	.insn	2, 0x0800
  5e:	0504                	.insn	2, 0x0504
  60:	6e69                	.insn	2, 0x6e69
  62:	0074                	.insn	2, 0x0074
  64:	0101                	.insn	2, 0x0101
  66:	6a08                	.insn	2, 0x6a08
  68:	0000                	.insn	2, 0x
  6a:	0300                	.insn	2, 0x0300
  6c:	014a                	.insn	2, 0x014a
  6e:	0000                	.insn	2, 0x
  70:	7716014b          	.insn	4, 0x7716014b
  74:	0000                	.insn	2, 0x
  76:	0100                	.insn	2, 0x0100
  78:	0704                	.insn	2, 0x0704
  7a:	005d                	.insn	2, 0x005d
  7c:	0000                	.insn	2, 0x
  7e:	0801                	.insn	2, 0x0801
  80:	00005807          	.insn	4, 0x5807
  84:	0900                	.insn	2, 0x0900
  86:	0000                	.insn	2, 0x
  88:	0000                	.insn	2, 0x
  8a:	2e0f4803          	lbu	x16,736(x30) # 5d55f87a <_estack+0x3955f87a>
  8e:	0000                	.insn	2, 0x
  90:	0a00                	.insn	2, 0x0a00
  92:	0308                	.insn	2, 0x0308
  94:	03ca                	.insn	2, 0x03ca
  96:	000000c3          	.insn	4, 0x00c3
  9a:	5204                	.insn	2, 0x5204
  9c:	0001                	.insn	2, 0x0001
  9e:	d100                	.insn	2, 0xd100
  a0:	c310                	.insn	2, 0xc310
  a2:	0000                	.insn	2, 0x
  a4:	3400                	.insn	2, 0x3400
  a6:	0b00                	.insn	2, 0x0b00
  a8:	7865                	.insn	2, 0x7865
  aa:	0070                	.insn	2, 0x0070
  ac:	770ed203          	lhu	x4,1904(x29)
  b0:	0000                	.insn	2, 0x
  b2:	0b00                	.insn	2, 0x0b00
  b4:	0434                	.insn	2, 0x0434
  b6:	0042                	.insn	2, 0x0042
  b8:	0000                	.insn	2, 0x
  ba:	00770ed3          	.insn	4, 0x00770ed3
  be:	0000                	.insn	2, 0x
  c0:	3f01                	.insn	2, 0x3f01
  c2:	0100                	.insn	2, 0x0100
  c4:	0708                	.insn	2, 0x0708
  c6:	00000053          	.insn	4, 0x0053
  ca:	470c                	.insn	2, 0x470c
  cc:	0000                	.insn	2, 0x
  ce:	0800                	.insn	2, 0x0800
  d0:	f007c703          	lbu	x14,-256(x15)
  d4:	0000                	.insn	2, 0x
  d6:	0d00                	.insn	2, 0x0d00
  d8:	6c66                	.insn	2, 0x6c66
  da:	0074                	.insn	2, 0x0074
  dc:	850ac903          	lbu	x18,-1968(x21) # 3f6be5e0 <_estack+0x1b6be5e0>
  e0:	0000                	.insn	2, 0x
  e2:	0e00                	.insn	2, 0x0e00
  e4:	00000157          	.insn	4, 0x0157
  e8:	9105d503          	lhu	x10,-1776(x11)
  ec:	0000                	.insn	2, 0x
  ee:	0000                	.insn	2, 0x
  f0:	0000250f          	.insn	4, 0x250f
  f4:	0100                	.insn	2, 0x0100
  f6:	00510123          	sb	x5,2(x2)
  fa:	0000                	.insn	2, 0x
  fc:	0384                	.insn	2, 0x0384
  fe:	0800                	.insn	2, 0x0800
 100:	0000                	.insn	2, 0x
 102:	0000                	.insn	2, 0x
 104:	0068                	.insn	2, 0x0068
 106:	0000                	.insn	2, 0x
 108:	0000                	.insn	2, 0x
 10a:	0000                	.insn	2, 0x
 10c:	9c01                	.insn	2, 0x9c01
 10e:	01c6                	.insn	2, 0x01c6
 110:	0000                	.insn	2, 0x
 112:	6110                	.insn	2, 0x6110
 114:	0100                	.insn	2, 0x0100
 116:	00851323          	sh	x8,6(x10)
 11a:	0000                	.insn	2, 0x
 11c:	000c                	.insn	2, 0x000c
 11e:	0000                	.insn	2, 0x
 120:	4505                	.insn	2, 0x4505
 122:	0001                	.insn	2, 0x0001
 124:	2500                	.insn	2, 0x2500
 126:	005d                	.insn	2, 0x005d
 128:	0000                	.insn	2, 0x
 12a:	001c                	.insn	2, 0x001c
 12c:	0000                	.insn	2, 0x
 12e:	3d11                	.insn	2, 0x3d11
 130:	0000                	.insn	2, 0x
 132:	0100                	.insn	2, 0x0100
 134:	0325                	.insn	2, 0x0325
 136:	005d                	.insn	2, 0x005d
 138:	0000                	.insn	2, 0x
 13a:	1200                	.insn	2, 0x1200
 13c:	5f41                	.insn	2, 0x5f41
 13e:	26010063          	beq	x2,x0,39e <_Min_Stack_Size-0x7ffc62>
 142:	0001c603          	lbu	x12,0(x3)
 146:	0200                	.insn	2, 0x0200
 148:	5f41                	.insn	2, 0x5f41
 14a:	03260073          	.insn	4, 0x03260073
 14e:	01c6                	.insn	2, 0x01c6
 150:	0000                	.insn	2, 0x
 152:	0029                	.insn	2, 0x0029
 154:	0000                	.insn	2, 0x
 156:	4102                	.insn	2, 0x4102
 158:	655f 2600 c603      	.insn	6, 0xc6032600655f
 15e:	0001                	.insn	2, 0x0001
 160:	5200                	.insn	2, 0x5200
 162:	0000                	.insn	2, 0x
 164:	0200                	.insn	2, 0x0200
 166:	5f41                	.insn	2, 0x5f41
 168:	0066                	.insn	2, 0x0066
 16a:	0326                	.insn	2, 0x0326
 16c:	000000c3          	.insn	4, 0x00c3
 170:	0058                	.insn	2, 0x0058
 172:	0000                	.insn	2, 0x
 174:	7202                	.insn	2, 0x7202
 176:	2700                	.insn	2, 0x2700
 178:	00006b0b          	.insn	4, 0x6b0b
 17c:	6300                	.insn	2, 0x6300
 17e:	0000                	.insn	2, 0x
 180:	1300                	.insn	2, 0x1300
 182:	000c                	.insn	2, 0x000c
 184:	0000                	.insn	2, 0x
 186:	0195                	.insn	2, 0x0195
 188:	0000                	.insn	2, 0x
 18a:	1006                	.insn	2, 0x1006
 18c:	0000                	.insn	2, 0x
 18e:	2a00                	.insn	2, 0x2a00
 190:	00ca                	.insn	2, 0x00ca
 192:	0000                	.insn	2, 0x
 194:	1400                	.insn	2, 0x1400
 196:	01a5                	.insn	2, 0x01a5
 198:	0000                	.insn	2, 0x
 19a:	5c06                	.insn	2, 0x5c06
 19c:	0001                	.insn	2, 0x0001
 19e:	2b00                	.insn	2, 0x2b00
 1a0:	005d                	.insn	2, 0x005d
 1a2:	0000                	.insn	2, 0x
 1a4:	1500                	.insn	2, 0x1500
 1a6:	03c0                	.insn	2, 0x03c0
 1a8:	0800                	.insn	2, 0x0800
 1aa:	0000                	.insn	2, 0x
 1ac:	0000                	.insn	2, 0x
 1ae:	001c                	.insn	2, 0x001c
 1b0:	0000                	.insn	2, 0x
 1b2:	0000                	.insn	2, 0x
 1b4:	0000                	.insn	2, 0x
 1b6:	5c05                	.insn	2, 0x5c05
 1b8:	0001                	.insn	2, 0x0001
 1ba:	2b00                	.insn	2, 0x2b00
 1bc:	005d                	.insn	2, 0x005d
 1be:	0000                	.insn	2, 0x
 1c0:	0086                	.insn	2, 0x0086
 1c2:	0000                	.insn	2, 0x
 1c4:	0000                	.insn	2, 0x
 1c6:	0801                	.insn	2, 0x0801
 1c8:	2f05                	.insn	2, 0x2f05
 1ca:	0000                	.insn	2, 0x
 1cc:	0000                	.insn	2, 0x
 1ce:	00000203          	lb	x4,0(x0) # 0 <_Min_Stack_Size-0x800000>
 1d2:	0005                	.insn	2, 0x0005
 1d4:	0801                	.insn	2, 0x0801
 1d6:	0000014b          	.insn	4, 0x014b
 1da:	780a                	.insn	2, 0x780a
 1dc:	0000                	.insn	2, 0x
 1de:	1d00                	.insn	2, 0x1d00
 1e0:	00b4                	.insn	2, 0x00b4
 1e2:	0000                	.insn	2, 0x
 1e4:	0000                	.insn	2, 0x
 1e6:	0000                	.insn	2, 0x
 1e8:	03ec                	.insn	2, 0x03ec
 1ea:	0800                	.insn	2, 0x0800
 1ec:	0000                	.insn	2, 0x
 1ee:	0000                	.insn	2, 0x
 1f0:	0088                	.insn	2, 0x0088
 1f2:	0000                	.insn	2, 0x
 1f4:	0000                	.insn	2, 0x
 1f6:	0000                	.insn	2, 0x
 1f8:	01ad                	.insn	2, 0x01ad
 1fa:	0000                	.insn	2, 0x
 1fc:	0801                	.insn	2, 0x0801
 1fe:	da04                	.insn	2, 0xda04
 200:	0002                	.insn	2, 0x0002
 202:	0100                	.insn	2, 0x0100
 204:	0510                	.insn	2, 0x0510
 206:	00000007          	.insn	4, 0x0007
 20a:	1001                	.insn	2, 0x1001
 20c:	00013307          	.insn	4, 0x00013307
 210:	0100                	.insn	2, 0x0100
 212:	0508                	.insn	2, 0x0508
 214:	0034                	.insn	2, 0x0034
 216:	0000                	.insn	2, 0x
 218:	0101                	.insn	2, 0x0101
 21a:	6c06                	.insn	2, 0x6c06
 21c:	0000                	.insn	2, 0x
 21e:	0400                	.insn	2, 0x0400
 220:	0000014b          	.insn	4, 0x014b
 224:	0148                	.insn	2, 0x0148
 226:	5d0d                	.insn	2, 0x5d0d
 228:	0000                	.insn	2, 0x
 22a:	0b00                	.insn	2, 0x0b00
 22c:	0504                	.insn	2, 0x0504
 22e:	6e69                	.insn	2, 0x6e69
 230:	0074                	.insn	2, 0x0074
 232:	0101                	.insn	2, 0x0101
 234:	6a08                	.insn	2, 0x6a08
 236:	0000                	.insn	2, 0x
 238:	0400                	.insn	2, 0x0400
 23a:	014a                	.insn	2, 0x014a
 23c:	0000                	.insn	2, 0x
 23e:	7716014b          	.insn	4, 0x7716014b
 242:	0000                	.insn	2, 0x
 244:	0100                	.insn	2, 0x0100
 246:	0704                	.insn	2, 0x0704
 248:	005d                	.insn	2, 0x005d
 24a:	0000                	.insn	2, 0x
 24c:	0801                	.insn	2, 0x0801
 24e:	00005807          	.insn	4, 0x5807
 252:	0c00                	.insn	2, 0x0c00
 254:	0000                	.insn	2, 0x
 256:	0000                	.insn	2, 0x
 258:	2e0f4803          	lbu	x16,736(x30)
 25c:	0000                	.insn	2, 0x
 25e:	0d00                	.insn	2, 0x0d00
 260:	0308                	.insn	2, 0x0308
 262:	03ca                	.insn	2, 0x03ca
 264:	000000c3          	.insn	4, 0x00c3
 268:	5205                	.insn	2, 0x5205
 26a:	0001                	.insn	2, 0x0001
 26c:	d100                	.insn	2, 0xd100
 26e:	c310                	.insn	2, 0xc310
 270:	0000                	.insn	2, 0x
 272:	3400                	.insn	2, 0x3400
 274:	0e00                	.insn	2, 0x0e00
 276:	7865                	.insn	2, 0x7865
 278:	0070                	.insn	2, 0x0070
 27a:	770ed203          	lhu	x4,1904(x29)
 27e:	0000                	.insn	2, 0x
 280:	0b00                	.insn	2, 0x0b00
 282:	0534                	.insn	2, 0x0534
 284:	0042                	.insn	2, 0x0042
 286:	0000                	.insn	2, 0x
 288:	00770ed3          	.insn	4, 0x00770ed3
 28c:	0000                	.insn	2, 0x
 28e:	3f01                	.insn	2, 0x3f01
 290:	0100                	.insn	2, 0x0100
 292:	0708                	.insn	2, 0x0708
 294:	00000053          	.insn	4, 0x0053
 298:	0000470f          	.insn	4, 0x470f
 29c:	0800                	.insn	2, 0x0800
 29e:	f007c703          	lbu	x14,-256(x15)
 2a2:	0000                	.insn	2, 0x
 2a4:	1000                	.insn	2, 0x1000
 2a6:	6c66                	.insn	2, 0x6c66
 2a8:	0074                	.insn	2, 0x0074
 2aa:	850ac903          	lbu	x18,-1968(x21)
 2ae:	0000                	.insn	2, 0x
 2b0:	1100                	.insn	2, 0x1100
 2b2:	00000157          	.insn	4, 0x0157
 2b6:	9105d503          	lhu	x10,-1776(x11)
 2ba:	0000                	.insn	2, 0x
 2bc:	0000                	.insn	2, 0x
 2be:	1212                	.insn	2, 0x1212
 2c0:	0002                	.insn	2, 0x0002
 2c2:	0100                	.insn	2, 0x0100
 2c4:	0124                	.insn	2, 0x0124
 2c6:	0085                	.insn	2, 0x0085
 2c8:	0000                	.insn	2, 0x
 2ca:	03ec                	.insn	2, 0x03ec
 2cc:	0800                	.insn	2, 0x0800
 2ce:	0000                	.insn	2, 0x
 2d0:	0000                	.insn	2, 0x
 2d2:	0088                	.insn	2, 0x0088
 2d4:	0000                	.insn	2, 0x
 2d6:	0000                	.insn	2, 0x
 2d8:	0000                	.insn	2, 0x
 2da:	9c01                	.insn	2, 0x9c01
 2dc:	01f6                	.insn	2, 0x01f6
 2de:	0000                	.insn	2, 0x
 2e0:	01006913          	ori	x18,x0,16
 2e4:	1524                	.insn	2, 0x1524
 2e6:	0051                	.insn	2, 0x0051
 2e8:	0000                	.insn	2, 0x
 2ea:	00b6                	.insn	2, 0x00b6
 2ec:	0000                	.insn	2, 0x
 2ee:	4114                	.insn	2, 0x4114
 2f0:	635f 0100 0326      	.insn	6, 0x03260100635f
 2f6:	01f6                	.insn	2, 0x01f6
 2f8:	0000                	.insn	2, 0x
 2fa:	735f4103          	lbu	x2,1845(x30)
 2fe:	2600                	.insn	2, 0x2600
 300:	0001f603          	.insn	4, 0x0001f603
 304:	ca00                	.insn	2, 0xca00
 306:	0000                	.insn	2, 0x
 308:	0300                	.insn	2, 0x0300
 30a:	5f41                	.insn	2, 0x5f41
 30c:	0065                	.insn	2, 0x0065
 30e:	0326                	.insn	2, 0x0326
 310:	01f6                	.insn	2, 0x01f6
 312:	0000                	.insn	2, 0x
 314:	00e1                	.insn	2, 0x00e1
 316:	0000                	.insn	2, 0x
 318:	665f4103          	lbu	x2,1637(x30)
 31c:	2600                	.insn	2, 0x2600
 31e:	0000c303          	lbu	x6,0(x1)
 322:	f300                	.insn	2, 0xf300
 324:	0000                	.insn	2, 0x
 326:	0300                	.insn	2, 0x0300
 328:	0061                	.insn	2, 0x0061
 32a:	00850a27          	.insn	4, 0x00850a27
 32e:	0000                	.insn	2, 0x
 330:	0104                	.insn	2, 0x0104
 332:	0000                	.insn	2, 0x
 334:	1f06                	.insn	2, 0x1f06
 336:	0000                	.insn	2, 0x
 338:	e500                	.insn	2, 0xe500
 33a:	0001                	.insn	2, 0x0001
 33c:	1500                	.insn	2, 0x1500
 33e:	01ae                	.insn	2, 0x01ae
 340:	0000                	.insn	2, 0x
 342:	2901                	.insn	2, 0x2901
 344:	002d0703          	lb	x14,2(x26) # 8005a48 <__exp_data+0x24e0>
 348:	0000                	.insn	2, 0x
 34a:	d408                	.insn	2, 0xd408
 34c:	0001                	.insn	2, 0x0001
 34e:	6b00                	.insn	2, 0x6b00
 350:	0000                	.insn	2, 0x
 352:	1600                	.insn	2, 0x1600
 354:	0001                	.insn	2, 0x0001
 356:	0600                	.insn	2, 0x0600
 358:	0039                	.insn	2, 0x0039
 35a:	0000                	.insn	2, 0x
 35c:	01ad                	.insn	2, 0x01ad
 35e:	0000                	.insn	2, 0x
 360:	0208                	.insn	2, 0x0208
 362:	0002                	.insn	2, 0x0002
 364:	5d00                	.insn	2, 0x5d00
 366:	0000                	.insn	2, 0x
 368:	2d00                	.insn	2, 0x2d00
 36a:	0001                	.insn	2, 0x0001
 36c:	1600                	.insn	2, 0x1600
 36e:	041c                	.insn	2, 0x041c
 370:	0800                	.insn	2, 0x0800
 372:	0000                	.insn	2, 0x
 374:	0000                	.insn	2, 0x
 376:	01fd                	.insn	2, 0x01fd
 378:	0000                	.insn	2, 0x
 37a:	0900                	.insn	2, 0x0900
 37c:	bb02                	.insn	2, 0xbb02
 37e:	0001                	.insn	2, 0x0001
 380:	2900                	.insn	2, 0x2900
 382:	005d                	.insn	2, 0x005d
 384:	0000                	.insn	2, 0x
 386:	0209                	.insn	2, 0x0209
 388:	0000016f          	jal	x2,388 <_Min_Stack_Size-0x7ffc78>
 38c:	f629                	.insn	2, 0xf629
 38e:	0001                	.insn	2, 0x0001
 390:	0200                	.insn	2, 0x0200
 392:	0199                	.insn	2, 0x0199
 394:	0000                	.insn	2, 0x
 396:	f629                	.insn	2, 0xf629
 398:	0001                	.insn	2, 0x0001
 39a:	0200                	.insn	2, 0x0200
 39c:	01e4                	.insn	2, 0x01e4
 39e:	0000                	.insn	2, 0x
 3a0:	f629                	.insn	2, 0xf629
 3a2:	0001                	.insn	2, 0x0001
 3a4:	0200                	.insn	2, 0x0200
 3a6:	0184                	.insn	2, 0x0184
 3a8:	0000                	.insn	2, 0x
 3aa:	c329                	.insn	2, 0xc329
 3ac:	0000                	.insn	2, 0x
 3ae:	0000                	.insn	2, 0x
 3b0:	0000                	.insn	2, 0x
 3b2:	0700                	.insn	2, 0x0700
 3b4:	00000043          	.insn	4, 0x0043
 3b8:	1e02                	.insn	2, 0x1e02
 3ba:	0002                	.insn	2, 0x0002
 3bc:	2a00                	.insn	2, 0x2a00
 3be:	00ca                	.insn	2, 0x00ca
 3c0:	0000                	.insn	2, 0x
 3c2:	0000                	.insn	2, 0x
 3c4:	0801                	.insn	2, 0x0801
 3c6:	2f05                	.insn	2, 0x2f05
 3c8:	0000                	.insn	2, 0x
 3ca:	1700                	.insn	2, 0x1700
 3cc:	01f9                	.insn	2, 0x01f9
 3ce:	0000                	.insn	2, 0x
 3d0:	01f9                	.insn	2, 0x01f9
 3d2:	0000                	.insn	2, 0x
 3d4:	3500                	.insn	2, 0x3500
 3d6:	0000                	.insn	2, 0x
 3d8:	0500                	.insn	2, 0x0500
 3da:	0100                	.insn	2, 0x0100
 3dc:	a508                	.insn	2, 0xa508
 3de:	0002                	.insn	2, 0x0002
 3e0:	0100                	.insn	2, 0x0100
 3e2:	03b1                	.insn	2, 0x03b1
 3e4:	0000                	.insn	2, 0x
 3e6:	0474                	.insn	2, 0x0474
 3e8:	0800                	.insn	2, 0x0800
 3ea:	0000                	.insn	2, 0x
 3ec:	0000                	.insn	2, 0x
 3ee:	3124                	.insn	2, 0x3124
 3f0:	0002                	.insn	2, 0x0002
 3f2:	5d00                	.insn	2, 0x5d00
 3f4:	0002                	.insn	2, 0x0002
 3f6:	b800                	.insn	2, 0xb800
 3f8:	0002                	.insn	2, 0x0002
 3fa:	0100                	.insn	2, 0x0100
 3fc:	0280                	.insn	2, 0x0280
 3fe:	02c4                	.insn	2, 0x02c4
 400:	0000                	.insn	2, 0x
 402:	00047437          	lui	x8,0x47
 406:	0008                	.insn	2, 0x0008
 408:	0000                	.insn	2, 0x
 40a:	2400                	.insn	2, 0x2400
 40c:	015e0003          	lb	x0,21(x28)
 410:	0000                	.insn	2, 0x
 412:	0005                	.insn	2, 0x0005
 414:	0801                	.insn	2, 0x0801
 416:	02cd                	.insn	2, 0x02cd
 418:	0000                	.insn	2, 0x
 41a:	7805                	.insn	2, 0x7805
 41c:	0000                	.insn	2, 0x
 41e:	1d00                	.insn	2, 0x1d00
 420:	010a                	.insn	2, 0x010a
 422:	0000                	.insn	2, 0x
 424:	0000                	.insn	2, 0x
 426:	0000                	.insn	2, 0x
 428:	0498                	.insn	2, 0x0498
 42a:	0800                	.insn	2, 0x0800
 42c:	0000                	.insn	2, 0x
 42e:	0000                	.insn	2, 0x
 430:	0070                	.insn	2, 0x0070
 432:	0000                	.insn	2, 0x
 434:	0000                	.insn	2, 0x
 436:	0000                	.insn	2, 0x
 438:	0000042f          	.insn	4, 0x042f
 43c:	0801                	.insn	2, 0x0801
 43e:	3405                	.insn	2, 0x3405
 440:	0000                	.insn	2, 0x
 442:	0100                	.insn	2, 0x0100
 444:	0708                	.insn	2, 0x0708
 446:	0058                	.insn	2, 0x0058
 448:	0000                	.insn	2, 0x
 44a:	0406                	.insn	2, 0x0406
 44c:	6905                	.insn	2, 0x6905
 44e:	746e                	.insn	2, 0x746e
 450:	0100                	.insn	2, 0x0100
 452:	0508                	.insn	2, 0x0508
 454:	0000002f          	.insn	4, 0x002f
 458:	1001                	.insn	2, 0x1001
 45a:	d504                	.insn	2, 0xd504
 45c:	0002                	.insn	2, 0x0002
 45e:	0100                	.insn	2, 0x0100
 460:	0801                	.insn	2, 0x0801
 462:	00000073          	ecall
 466:	0801                	.insn	2, 0x0801
 468:	da04                	.insn	2, 0xda04
 46a:	0002                	.insn	2, 0x0002
 46c:	0100                	.insn	2, 0x0100
 46e:	0704                	.insn	2, 0x0704
 470:	005d                	.insn	2, 0x005d
 472:	0000                	.insn	2, 0x
 474:	0101                	.insn	2, 0x0101
 476:	6c06                	.insn	2, 0x6c06
 478:	0000                	.insn	2, 0x
 47a:	0100                	.insn	2, 0x0100
 47c:	0502                	.insn	2, 0x0502
 47e:	0330                	.insn	2, 0x0330
 480:	0000                	.insn	2, 0x
 482:	0101                	.insn	2, 0x0101
 484:	6a08                	.insn	2, 0x6a08
 486:	0000                	.insn	2, 0x
 488:	0100                	.insn	2, 0x0100
 48a:	0702                	.insn	2, 0x0702
 48c:	02ff 0000 0801 5307 	.insn	10, 0x53070801000002ff
 494:	0000 
 496:	0200                	.insn	2, 0x0200
 498:	0320                	.insn	2, 0x0320
 49a:	0000                	.insn	2, 0x
 49c:	0074167b          	.insn	4, 0x0074167b
 4a0:	0000                	.insn	2, 0x
 4a2:	00008903          	lb	x18,0(x1)
 4a6:	0200                	.insn	2, 0x0200
 4a8:	0329                	.insn	2, 0x0329
 4aa:	0000                	.insn	2, 0x
 4ac:	0f84                	.insn	2, 0x0f84
 4ae:	002e                	.insn	2, 0x002e
 4b0:	0000                	.insn	2, 0x
 4b2:	2802                	.insn	2, 0x2802
 4b4:	85000003          	lb	x0,-1968(x0) # fffffffffffff850 <_estack+0xffffffffdbfff850>
 4b8:	3516                	.insn	2, 0x3516
 4ba:	0000                	.insn	2, 0x
 4bc:	0100                	.insn	2, 0x0100
 4be:	0510                	.insn	2, 0x0510
 4c0:	00000007          	.insn	4, 0x0007
 4c4:	1001                	.insn	2, 0x1001
 4c6:	00013307          	.insn	4, 0x00013307
 4ca:	0100                	.insn	2, 0x0100
 4cc:	0404                	.insn	2, 0x0404
 4ce:	031a                	.insn	2, 0x031a
 4d0:	0000                	.insn	2, 0x
 4d2:	0801                	.insn	2, 0x0801
 4d4:	00031203          	lh	x4,0(x6)
 4d8:	0100                	.insn	2, 0x0100
 4da:	0310                	.insn	2, 0x0310
 4dc:	02e1                	.insn	2, 0x02e1
 4de:	0000                	.insn	2, 0x
 4e0:	2001                	.insn	2, 0x2001
 4e2:	0002cd03          	lbu	x26,0(x5) # 3cf50000 <_estack+0x18f50000>
 4e6:	0700                	.insn	2, 0x0700
 4e8:	0094                	.insn	2, 0x0094
 4ea:	0000                	.insn	2, 0x
 4ec:	00e9                	.insn	2, 0x00e9
 4ee:	0000                	.insn	2, 0x
 4f0:	3508                	.insn	2, 0x3508
 4f2:	0000                	.insn	2, 0x
 4f4:	ff00                	.insn	2, 0xff00
 4f6:	0300                	.insn	2, 0x0300
 4f8:	00d9                	.insn	2, 0x00d9
 4fa:	0000                	.insn	2, 0x
 4fc:	f509                	.insn	2, 0xf509
 4fe:	0002                	.insn	2, 0x0002
 500:	0200                	.insn	2, 0x0200
 502:	0202                	.insn	2, 0x0202
 504:	e916                	.insn	2, 0xe916
 506:	0000                	.insn	2, 0x
 508:	0a00                	.insn	2, 0x0a00
 50a:	01f9                	.insn	2, 0x01f9
 50c:	0000                	.insn	2, 0x
 50e:	ae01                	.insn	2, 0xae01
 510:	0102                	.insn	2, 0x0102
 512:	003c                	.insn	2, 0x003c
 514:	0000                	.insn	2, 0x
 516:	0498                	.insn	2, 0x0498
 518:	0800                	.insn	2, 0x0800
 51a:	0000                	.insn	2, 0x
 51c:	0000                	.insn	2, 0x
 51e:	0070                	.insn	2, 0x0070
 520:	0000                	.insn	2, 0x
 522:	0000                	.insn	2, 0x
 524:	0000                	.insn	2, 0x
 526:	9c01                	.insn	2, 0x9c01
 528:	0100780b          	.insn	4, 0x0100780b
 52c:	02ae                	.insn	2, 0x02ae
 52e:	a412                	.insn	2, 0xa412
 530:	0000                	.insn	2, 0x
 532:	3f00                	.insn	2, 0x3f00
 534:	0001                	.insn	2, 0x0001
 536:	0400                	.insn	2, 0x0400
 538:	6572                	.insn	2, 0x6572
 53a:	0074                	.insn	2, 0x0074
 53c:	02b0                	.insn	2, 0x02b0
 53e:	9909                	.insn	2, 0x9909
 540:	0000                	.insn	2, 0x
 542:	6700                	.insn	2, 0x6700
 544:	0001                	.insn	2, 0x0001
 546:	0c00                	.insn	2, 0x0c00
 548:	005c                	.insn	2, 0x005c
 54a:	0000                	.insn	2, 0x
 54c:	f00d                	.insn	2, 0xf00d
 54e:	0002                	.insn	2, 0x0002
 550:	0100                	.insn	2, 0x0100
 552:	02b2                	.insn	2, 0x02b2
 554:	0000a403          	lw	x8,0(x1)
 558:	8600                	.insn	2, 0x8600
 55a:	0001                	.insn	2, 0x0001
 55c:	0400                	.insn	2, 0x0400
 55e:	5f5f 0061 02b2      	.insn	6, 0x02b200615f5f
 564:	0000a403          	lw	x8,0(x1)
 568:	ae00                	.insn	2, 0xae00
 56a:	0001                	.insn	2, 0x0001
 56c:	0000                	.insn	2, 0x
 56e:	0000                	.insn	2, 0x
 570:	00e6                	.insn	2, 0x00e6
 572:	0000                	.insn	2, 0x
 574:	0005                	.insn	2, 0x0005
 576:	0801                	.insn	2, 0x0801
 578:	0389                	.insn	2, 0x0389
 57a:	0000                	.insn	2, 0x
 57c:	00007803          	.insn	4, 0x7803
 580:	1d00                	.insn	2, 0x1d00
 582:	010a                	.insn	2, 0x010a
 584:	0000                	.insn	2, 0x
 586:	0000                	.insn	2, 0x
 588:	0000                	.insn	2, 0x
 58a:	0548                	.insn	2, 0x0548
 58c:	0000                	.insn	2, 0x
 58e:	0801                	.insn	2, 0x0801
 590:	3405                	.insn	2, 0x3405
 592:	0000                	.insn	2, 0x
 594:	0100                	.insn	2, 0x0100
 596:	0708                	.insn	2, 0x0708
 598:	0058                	.insn	2, 0x0058
 59a:	0000                	.insn	2, 0x
 59c:	0404                	.insn	2, 0x0404
 59e:	6905                	.insn	2, 0x6905
 5a0:	746e                	.insn	2, 0x746e
 5a2:	0100                	.insn	2, 0x0100
 5a4:	0508                	.insn	2, 0x0508
 5a6:	0000002f          	.insn	4, 0x002f
 5aa:	1001                	.insn	2, 0x1001
 5ac:	d504                	.insn	2, 0xd504
 5ae:	0002                	.insn	2, 0x0002
 5b0:	0100                	.insn	2, 0x0100
 5b2:	0801                	.insn	2, 0x0801
 5b4:	00000073          	ecall
 5b8:	0801                	.insn	2, 0x0801
 5ba:	da04                	.insn	2, 0xda04
 5bc:	0002                	.insn	2, 0x0002
 5be:	0100                	.insn	2, 0x0100
 5c0:	0704                	.insn	2, 0x0704
 5c2:	005d                	.insn	2, 0x005d
 5c4:	0000                	.insn	2, 0x
 5c6:	0101                	.insn	2, 0x0101
 5c8:	6c06                	.insn	2, 0x6c06
 5ca:	0000                	.insn	2, 0x
 5cc:	0100                	.insn	2, 0x0100
 5ce:	0502                	.insn	2, 0x0502
 5d0:	0330                	.insn	2, 0x0330
 5d2:	0000                	.insn	2, 0x
 5d4:	0101                	.insn	2, 0x0101
 5d6:	6a08                	.insn	2, 0x6a08
 5d8:	0000                	.insn	2, 0x
 5da:	0100                	.insn	2, 0x0100
 5dc:	0702                	.insn	2, 0x0702
 5de:	02ff 0000 0801 5307 	.insn	10, 0x53070801000002ff
 5e6:	0000 
 5e8:	0500                	.insn	2, 0x0500
 5ea:	0320                	.insn	2, 0x0320
 5ec:	0000                	.insn	2, 0x
 5ee:	7b01                	.insn	2, 0x7b01
 5f0:	6416                	.insn	2, 0x6416
 5f2:	0000                	.insn	2, 0x
 5f4:	0200                	.insn	2, 0x0200
 5f6:	0079                	.insn	2, 0x0079
 5f8:	0000                	.insn	2, 0x
 5fa:	1001                	.insn	2, 0x1001
 5fc:	0705                	.insn	2, 0x0705
 5fe:	0000                	.insn	2, 0x
 600:	0100                	.insn	2, 0x0100
 602:	0710                	.insn	2, 0x0710
 604:	00000133          	add	x2,x0,x0
 608:	0401                	.insn	2, 0x0401
 60a:	1a04                	.insn	2, 0x1a04
 60c:	01000003          	lb	x0,16(x0) # 10 <_Min_Stack_Size-0x7ffff0>
 610:	0308                	.insn	2, 0x0308
 612:	0312                	.insn	2, 0x0312
 614:	0000                	.insn	2, 0x
 616:	1001                	.insn	2, 0x1001
 618:	0002e103          	lwu	x2,0(x5)
 61c:	0100                	.insn	2, 0x0100
 61e:	0320                	.insn	2, 0x0320
 620:	02cd                	.insn	2, 0x02cd
 622:	0000                	.insn	2, 0x
 624:	8506                	.insn	2, 0x8506
 626:	0000                	.insn	2, 0x
 628:	c400                	.insn	2, 0xc400
 62a:	0000                	.insn	2, 0x
 62c:	0700                	.insn	2, 0x0700
 62e:	0025                	.insn	2, 0x0025
 630:	0000                	.insn	2, 0x
 632:	00ff b402 0000 0800 	.insn	10, 0x02f508000000b40200ff
 63a:	02f5 
 63c:	0000                	.insn	2, 0x
 63e:	0201                	.insn	2, 0x0201
 640:	1602                	.insn	2, 0x1602
 642:	00c4                	.insn	2, 0x00c4
 644:	0000                	.insn	2, 0x
 646:	c909                	.insn	2, 0xc909
 648:	0000                	.insn	2, 0x
 64a:	0200                	.insn	2, 0x0200
 64c:	029e                	.insn	2, 0x029e
 64e:	7803090f          	.insn	4, 0x7803090f
 652:	00080023          	sb	x0,0(x16) # ffffffffb4242000 <_estack+0xffffffff90242000>
 656:	0000                	.insn	2, 0x
	...

Disassembly of section .debug_abbrev:

0000000000000000 <.debug_abbrev>:
   0:	2401                	.insn	2, 0x2401
   2:	0b00                	.insn	2, 0x0b00
   4:	030b3e0b          	.insn	4, 0x030b3e0b
   8:	000e                	.insn	2, 0x000e
   a:	0200                	.insn	2, 0x0200
   c:	0034                	.insn	2, 0x0034
   e:	213a0803          	lb	x16,531(x20)
  12:	3b01                	.insn	2, 0x3b01
  14:	490b390b          	.insn	4, 0x490b390b
  18:	00170213          	addi	x4,x14,1 # 3feeb001 <_estack+0x1beeb001>
  1c:	0300                	.insn	2, 0x0300
  1e:	0016                	.insn	2, 0x0016
  20:	213a0e03          	lb	x28,531(x20)
  24:	3b02                	.insn	2, 0x3b02
  26:	3905                	.insn	2, 0x3905
  28:	0013490b          	.insn	4, 0x0013490b
  2c:	0400                	.insn	2, 0x0400
  2e:	000d                	.insn	2, 0x000d
  30:	213a0e03          	lb	x28,531(x20)
  34:	390b3b03          	ld	x22,912(x22)
  38:	0d13490b          	.insn	4, 0x0d13490b
  3c:	000b6b0b          	.insn	4, 0x000b6b0b
  40:	0500                	.insn	2, 0x0500
  42:	0034                	.insn	2, 0x0034
  44:	213a0e03          	lb	x28,531(x20)
  48:	3b01                	.insn	2, 0x3b01
  4a:	0321390b          	.insn	4, 0x0321390b
  4e:	1349                	.insn	2, 0x1349
  50:	1702                	.insn	2, 0x1702
  52:	0000                	.insn	2, 0x
  54:	3406                	.insn	2, 0x3406
  56:	0300                	.insn	2, 0x0300
  58:	3a0e                	.insn	2, 0x3a0e
  5a:	0121                	.insn	2, 0x0121
  5c:	21390b3b          	.insn	4, 0x21390b3b
  60:	00134903          	lbu	x18,1(x6)
  64:	0700                	.insn	2, 0x0700
  66:	0111                	.insn	2, 0x0111
  68:	0e25                	.insn	2, 0x0e25
  6a:	1f030b13          	addi	x22,x6,496
  6e:	01111f1b          	slliw	x30,x2,0x11
  72:	0712                	.insn	2, 0x0712
  74:	1710                	.insn	2, 0x1710
  76:	0000                	.insn	2, 0x
  78:	2408                	.insn	2, 0x2408
  7a:	0b00                	.insn	2, 0x0b00
  7c:	030b3e0b          	.insn	4, 0x030b3e0b
  80:	0008                	.insn	2, 0x0008
  82:	0900                	.insn	2, 0x0900
  84:	0016                	.insn	2, 0x0016
  86:	0b3a0e03          	lb	x28,179(x20)
  8a:	0b390b3b          	.insn	4, 0x0b390b3b
  8e:	1349                	.insn	2, 0x1349
  90:	0000                	.insn	2, 0x
  92:	130a                	.insn	2, 0x130a
  94:	0b01                	.insn	2, 0x0b01
  96:	3b0b3a0b          	.insn	4, 0x3b0b3a0b
  9a:	010b390b          	.insn	4, 0x010b390b
  9e:	0b000013          	addi	x0,x0,176
  a2:	000d                	.insn	2, 0x000d
  a4:	0b3a0803          	lb	x16,179(x20)
  a8:	0b390b3b          	.insn	4, 0x0b390b3b
  ac:	1349                	.insn	2, 0x1349
  ae:	0b0d                	.insn	2, 0x0b0d
  b0:	00000b6b          	.insn	4, 0x0b6b
  b4:	170c                	.insn	2, 0x170c
  b6:	0301                	.insn	2, 0x0301
  b8:	0b0e                	.insn	2, 0x0b0e
  ba:	3b0b3a0b          	.insn	4, 0x3b0b3a0b
  be:	010b390b          	.insn	4, 0x010b390b
  c2:	0d000013          	addi	x0,x0,208
  c6:	000d                	.insn	2, 0x000d
  c8:	0b3a0803          	lb	x16,179(x20)
  cc:	0b390b3b          	.insn	4, 0x0b390b3b
  d0:	1349                	.insn	2, 0x1349
  d2:	0000                	.insn	2, 0x
  d4:	0d0e                	.insn	2, 0x0d0e
  d6:	0300                	.insn	2, 0x0300
  d8:	3a0e                	.insn	2, 0x3a0e
  da:	390b3b0b          	.insn	4, 0x390b3b0b
  de:	0013490b          	.insn	4, 0x0013490b
  e2:	0f00                	.insn	2, 0x0f00
  e4:	012e                	.insn	2, 0x012e
  e6:	0e03193f 0b3b0b3a 	.insn	8, 0x0b3b0b3a0e03193f
  ee:	0b39                	.insn	2, 0x0b39
  f0:	13491927          	.insn	4, 0x13491927
  f4:	0111                	.insn	2, 0x0111
  f6:	0712                	.insn	2, 0x0712
  f8:	1840                	.insn	2, 0x1840
  fa:	197a                	.insn	2, 0x197a
  fc:	1301                	.insn	2, 0x1301
  fe:	0000                	.insn	2, 0x
 100:	0510                	.insn	2, 0x0510
 102:	0300                	.insn	2, 0x0300
 104:	3a08                	.insn	2, 0x3a08
 106:	390b3b0b          	.insn	4, 0x390b3b0b
 10a:	0213490b          	.insn	4, 0x0213490b
 10e:	11000017          	auipc	x0,0x11000
 112:	0034                	.insn	2, 0x0034
 114:	0b3a0e03          	lb	x28,179(x20)
 118:	0b390b3b          	.insn	4, 0x0b390b3b
 11c:	1349                	.insn	2, 0x1349
 11e:	0b1c                	.insn	2, 0x0b1c
 120:	0000                	.insn	2, 0x
 122:	3412                	.insn	2, 0x3412
 124:	0300                	.insn	2, 0x0300
 126:	3a08                	.insn	2, 0x3a08
 128:	390b3b0b          	.insn	4, 0x390b3b0b
 12c:	0013490b          	.insn	4, 0x0013490b
 130:	1300                	.insn	2, 0x1300
 132:	1755010b          	.insn	4, 0x1755010b
 136:	1301                	.insn	2, 0x1301
 138:	0000                	.insn	2, 0x
 13a:	0b14                	.insn	2, 0x0b14
 13c:	0101                	.insn	2, 0x0101
 13e:	15000013          	addi	x0,x0,336
 142:	0111010b          	.insn	4, 0x0111010b
 146:	0712                	.insn	2, 0x0712
 148:	0000                	.insn	2, 0x
 14a:	0100                	.insn	2, 0x0100
 14c:	0024                	.insn	2, 0x0024
 14e:	0b3e0b0b          	.insn	4, 0x0b3e0b0b
 152:	00000e03          	lb	x28,0(x0) # 0 <_Min_Stack_Size-0x800000>
 156:	3402                	.insn	2, 0x3402
 158:	0300                	.insn	2, 0x0300
 15a:	3a0e                	.insn	2, 0x3a0e
 15c:	0121                	.insn	2, 0x0121
 15e:	21390b3b          	.insn	4, 0x21390b3b
 162:	00134903          	lbu	x18,1(x6)
 166:	0300                	.insn	2, 0x0300
 168:	0034                	.insn	2, 0x0034
 16a:	213a0803          	lb	x16,531(x20)
 16e:	3b01                	.insn	2, 0x3b01
 170:	490b390b          	.insn	4, 0x490b390b
 174:	00170213          	addi	x4,x14,1
 178:	0400                	.insn	2, 0x0400
 17a:	0016                	.insn	2, 0x0016
 17c:	213a0e03          	lb	x28,531(x20)
 180:	3b02                	.insn	2, 0x3b02
 182:	3905                	.insn	2, 0x3905
 184:	0013490b          	.insn	4, 0x0013490b
 188:	0500                	.insn	2, 0x0500
 18a:	000d                	.insn	2, 0x000d
 18c:	213a0e03          	lb	x28,531(x20)
 190:	390b3b03          	ld	x22,912(x22)
 194:	0d13490b          	.insn	4, 0x0d13490b
 198:	000b6b0b          	.insn	4, 0x000b6b0b
 19c:	0600                	.insn	2, 0x0600
 19e:	1755010b          	.insn	4, 0x1755010b
 1a2:	1301                	.insn	2, 0x1301
 1a4:	0000                	.insn	2, 0x
 1a6:	55010b07          	.insn	4, 0x55010b07
 1aa:	08000017          	auipc	x0,0x8000
 1ae:	0034                	.insn	2, 0x0034
 1b0:	213a0e03          	lb	x28,531(x20)
 1b4:	3b01                	.insn	2, 0x3b01
 1b6:	2921                	.insn	2, 0x2921
 1b8:	2139                	.insn	2, 0x2139
 1ba:	02134903          	lbu	x18,33(x6)
 1be:	09000017          	auipc	x0,0x9000
 1c2:	0000010b          	.insn	4, 0x010b
 1c6:	110a                	.insn	2, 0x110a
 1c8:	2501                	.insn	2, 0x2501
 1ca:	130e                	.insn	2, 0x130e
 1cc:	1b1f030b          	.insn	4, 0x1b1f030b
 1d0:	111f 1201 1007      	.insn	6, 0x10071201111f
 1d6:	0b000017          	auipc	x0,0xb000
 1da:	0024                	.insn	2, 0x0024
 1dc:	0b3e0b0b          	.insn	4, 0x0b3e0b0b
 1e0:	00000803          	lb	x16,0(x0) # 0 <_Min_Stack_Size-0x800000>
 1e4:	160c                	.insn	2, 0x160c
 1e6:	0300                	.insn	2, 0x0300
 1e8:	3a0e                	.insn	2, 0x3a0e
 1ea:	390b3b0b          	.insn	4, 0x390b3b0b
 1ee:	0013490b          	.insn	4, 0x0013490b
 1f2:	0d00                	.insn	2, 0x0d00
 1f4:	0b0b0113          	addi	x2,x22,176
 1f8:	0b3a                	.insn	2, 0x0b3a
 1fa:	0b390b3b          	.insn	4, 0x0b390b3b
 1fe:	1301                	.insn	2, 0x1301
 200:	0000                	.insn	2, 0x
 202:	0d0e                	.insn	2, 0x0d0e
 204:	0300                	.insn	2, 0x0300
 206:	3a08                	.insn	2, 0x3a08
 208:	390b3b0b          	.insn	4, 0x390b3b0b
 20c:	0d13490b          	.insn	4, 0x0d13490b
 210:	000b6b0b          	.insn	4, 0x000b6b0b
 214:	0f00                	.insn	2, 0x0f00
 216:	0e030117          	auipc	x2,0xe030
 21a:	0b3a0b0b          	.insn	4, 0x0b3a0b0b
 21e:	0b390b3b          	.insn	4, 0x0b390b3b
 222:	1301                	.insn	2, 0x1301
 224:	0000                	.insn	2, 0x
 226:	0d10                	.insn	2, 0x0d10
 228:	0300                	.insn	2, 0x0300
 22a:	3a08                	.insn	2, 0x3a08
 22c:	390b3b0b          	.insn	4, 0x390b3b0b
 230:	0013490b          	.insn	4, 0x0013490b
 234:	1100                	.insn	2, 0x1100
 236:	000d                	.insn	2, 0x000d
 238:	0b3a0e03          	lb	x28,179(x20)
 23c:	0b390b3b          	.insn	4, 0x0b390b3b
 240:	1349                	.insn	2, 0x1349
 242:	0000                	.insn	2, 0x
 244:	2e12                	.insn	2, 0x2e12
 246:	3f01                	.insn	2, 0x3f01
 248:	0319                	.insn	2, 0x0319
 24a:	3a0e                	.insn	2, 0x3a0e
 24c:	390b3b0b          	.insn	4, 0x390b3b0b
 250:	4919270b          	.insn	4, 0x4919270b
 254:	12011113          	.insn	4, 0x12011113
 258:	7a184007          	.insn	4, 0x7a184007
 25c:	0119                	.insn	2, 0x0119
 25e:	13000013          	addi	x0,x0,304
 262:	0005                	.insn	2, 0x0005
 264:	0b3a0803          	lb	x16,179(x20)
 268:	0b390b3b          	.insn	4, 0x0b390b3b
 26c:	1349                	.insn	2, 0x1349
 26e:	1702                	.insn	2, 0x1702
 270:	0000                	.insn	2, 0x
 272:	3414                	.insn	2, 0x3414
 274:	0300                	.insn	2, 0x0300
 276:	3a08                	.insn	2, 0x3a08
 278:	390b3b0b          	.insn	4, 0x390b3b0b
 27c:	0013490b          	.insn	4, 0x0013490b
 280:	1500                	.insn	2, 0x1500
 282:	000a                	.insn	2, 0x000a
 284:	0b3a0e03          	lb	x28,179(x20)
 288:	0b390b3b          	.insn	4, 0x0b390b3b
 28c:	0000                	.insn	2, 0x
 28e:	4816                	.insn	2, 0x4816
 290:	7d00                	.insn	2, 0x7d00
 292:	7f01                	.insn	2, 0x7f01
 294:	17000013          	addi	x0,x0,368
 298:	002e                	.insn	2, 0x002e
 29a:	193c193f 0e030e6e 	.insn	8, 0x0e030e6e193c193f
 2a2:	0000                	.insn	2, 0x
 2a4:	0100                	.insn	2, 0x0100
 2a6:	0111                	.insn	2, 0x0111
 2a8:	1710                	.insn	2, 0x1710
 2aa:	0111                	.insn	2, 0x0111
 2ac:	0f12                	.insn	2, 0x0f12
 2ae:	0e1b0e03          	lb	x28,225(x22)
 2b2:	0e25                	.insn	2, 0x0e25
 2b4:	00000513          	addi	x10,x0,0
 2b8:	2e02                	.insn	2, 0x2e02
 2ba:	0300                	.insn	2, 0x0300
 2bc:	3f0e                	.insn	2, 0x3f0e
 2be:	4919                	.insn	2, 0x4919
 2c0:	1115                	.insn	2, 0x1115
 2c2:	1201                	.insn	2, 0x1201
 2c4:	0300000f          	fence	rw,unknown
 2c8:	0000003b          	addw	x0,x0,x0
 2cc:	0100                	.insn	2, 0x0100
 2ce:	0024                	.insn	2, 0x0024
 2d0:	0b3e0b0b          	.insn	4, 0x0b3e0b0b
 2d4:	00000e03          	lb	x28,0(x0) # 0 <_Min_Stack_Size-0x800000>
 2d8:	1602                	.insn	2, 0x1602
 2da:	0300                	.insn	2, 0x0300
 2dc:	3a0e                	.insn	2, 0x3a0e
 2de:	0221                	.insn	2, 0x0221
 2e0:	0b390b3b          	.insn	4, 0x0b390b3b
 2e4:	1349                	.insn	2, 0x1349
 2e6:	0000                	.insn	2, 0x
 2e8:	49002603          	lw	x12,1168(x0) # 490 <_Min_Stack_Size-0x7ffb70>
 2ec:	04000013          	addi	x0,x0,64
 2f0:	0034                	.insn	2, 0x0034
 2f2:	213a0803          	lb	x16,531(x20)
 2f6:	3b01                	.insn	2, 0x3b01
 2f8:	3905                	.insn	2, 0x3905
 2fa:	0213490b          	.insn	4, 0x0213490b
 2fe:	05000017          	auipc	x0,0x5000
 302:	0111                	.insn	2, 0x0111
 304:	0e25                	.insn	2, 0x0e25
 306:	1f030b13          	addi	x22,x6,496
 30a:	01111f1b          	slliw	x30,x2,0x11
 30e:	0712                	.insn	2, 0x0712
 310:	1710                	.insn	2, 0x1710
 312:	0000                	.insn	2, 0x
 314:	2406                	.insn	2, 0x2406
 316:	0b00                	.insn	2, 0x0b00
 318:	030b3e0b          	.insn	4, 0x030b3e0b
 31c:	0008                	.insn	2, 0x0008
 31e:	0700                	.insn	2, 0x0700
 320:	0101                	.insn	2, 0x0101
 322:	1349                	.insn	2, 0x1349
 324:	1301                	.insn	2, 0x1301
 326:	0000                	.insn	2, 0x
 328:	2108                	.insn	2, 0x2108
 32a:	4900                	.insn	2, 0x4900
 32c:	000b2f13          	slti	x30,x22,0
 330:	0900                	.insn	2, 0x0900
 332:	0034                	.insn	2, 0x0034
 334:	0b3a0e03          	lb	x28,179(x20)
 338:	0b39053b          	.insn	4, 0x0b39053b
 33c:	1349                	.insn	2, 0x1349
 33e:	193c193f 2e0a0000 	.insn	8, 0x2e0a0000193c193f
 346:	3f01                	.insn	2, 0x3f01
 348:	0319                	.insn	2, 0x0319
 34a:	3a0e                	.insn	2, 0x3a0e
 34c:	39053b0b          	.insn	4, 0x39053b0b
 350:	4919270b          	.insn	4, 0x4919270b
 354:	12011113          	.insn	4, 0x12011113
 358:	7a184007          	.insn	4, 0x7a184007
 35c:	0019                	.insn	2, 0x0019
 35e:	0b00                	.insn	2, 0x0b00
 360:	0005                	.insn	2, 0x0005
 362:	0b3a0803          	lb	x16,179(x20)
 366:	0b39053b          	.insn	4, 0x0b39053b
 36a:	1349                	.insn	2, 0x1349
 36c:	1702                	.insn	2, 0x1702
 36e:	0000                	.insn	2, 0x
 370:	0b0c                	.insn	2, 0x0b0c
 372:	5501                	.insn	2, 0x5501
 374:	0d000017          	auipc	x0,0xd000
 378:	0034                	.insn	2, 0x0034
 37a:	0b3a0e03          	lb	x28,179(x20)
 37e:	0b39053b          	.insn	4, 0x0b39053b
 382:	1349                	.insn	2, 0x1349
 384:	1702                	.insn	2, 0x1702
 386:	0000                	.insn	2, 0x
 388:	0100                	.insn	2, 0x0100
 38a:	0024                	.insn	2, 0x0024
 38c:	0b3e0b0b          	.insn	4, 0x0b3e0b0b
 390:	00000e03          	lb	x28,0(x0) # 0 <_Min_Stack_Size-0x800000>
 394:	2602                	.insn	2, 0x2602
 396:	4900                	.insn	2, 0x4900
 398:	03000013          	addi	x0,x0,48
 39c:	0111                	.insn	2, 0x0111
 39e:	0e25                	.insn	2, 0x0e25
 3a0:	1f030b13          	addi	x22,x6,496
 3a4:	17101f1b          	.insn	4, 0x17101f1b
 3a8:	0000                	.insn	2, 0x
 3aa:	2404                	.insn	2, 0x2404
 3ac:	0b00                	.insn	2, 0x0b00
 3ae:	030b3e0b          	.insn	4, 0x030b3e0b
 3b2:	0008                	.insn	2, 0x0008
 3b4:	0500                	.insn	2, 0x0500
 3b6:	0016                	.insn	2, 0x0016
 3b8:	0b3a0e03          	lb	x28,179(x20)
 3bc:	0b390b3b          	.insn	4, 0x0b390b3b
 3c0:	1349                	.insn	2, 0x1349
 3c2:	0000                	.insn	2, 0x
 3c4:	0106                	.insn	2, 0x0106
 3c6:	4901                	.insn	2, 0x4901
 3c8:	00130113          	addi	x2,x6,1
 3cc:	0700                	.insn	2, 0x0700
 3ce:	0021                	.insn	2, 0x0021
 3d0:	1349                	.insn	2, 0x1349
 3d2:	00000b2f          	.insn	4, 0x0b2f
 3d6:	3408                	.insn	2, 0x3408
 3d8:	0300                	.insn	2, 0x0300
 3da:	3a0e                	.insn	2, 0x3a0e
 3dc:	39053b0b          	.insn	4, 0x39053b0b
 3e0:	3f13490b          	.insn	4, 0x3f13490b
 3e4:	3c19                	.insn	2, 0x3c19
 3e6:	0019                	.insn	2, 0x0019
 3e8:	0900                	.insn	2, 0x0900
 3ea:	0034                	.insn	2, 0x0034
 3ec:	0b3a1347          	.insn	4, 0x0b3a1347
 3f0:	0b39053b          	.insn	4, 0x0b39053b
 3f4:	1802                	.insn	2, 0x1802
 3f6:	0000                	.insn	2, 0x
	...

Disassembly of section .debug_loclists:

0000000000000000 <.debug_loclists>:
   0:	00a6                	.insn	2, 0x00a6
   2:	0000                	.insn	2, 0x
   4:	0005                	.insn	2, 0x0005
   6:	0008                	.insn	2, 0x0008
   8:	0000                	.insn	2, 0x
   a:	0000                	.insn	2, 0x
   c:	0004                	.insn	2, 0x0004
   e:	0118                	.insn	2, 0x0118
  10:	045a                	.insn	2, 0x045a
  12:	6818                	.insn	2, 0x6818
  14:	a306                	.insn	2, 0xa306
  16:	2e0aa503          	lw	x10,736(x21)
  1a:	009f 0004 0238      	.insn	6, 0x02380004009f
  20:	9f30                	.insn	2, 0x9f30
  22:	3c04                	.insn	2, 0x3c04
  24:	0268                	.insn	2, 0x0268
  26:	9f30                	.insn	2, 0x9f30
  28:	0400                	.insn	2, 0x0400
  2a:	3018                	.insn	2, 0x3018
  2c:	7a06                	.insn	2, 0x7a06
  2e:	0800                	.insn	2, 0x0800
  30:	049f1aff 7a063834 	.insn	12, 0x1aff08007a063834049f1aff
  38:	1aff0800 
  3c:	049f 5c3c 7a06      	.insn	6, 0x7a065c3c049f
  42:	0800                	.insn	2, 0x0800
  44:	049f1aff 7a066460 	.insn	12, 0x1aff08007a066460049f1aff
  4c:	1aff0800 
  50:	009f 1404 0150      	.insn	6, 0x01501404009f
  56:	005e                	.insn	2, 0x005e
  58:	1404                	.insn	2, 0x1404
  5a:	0128                	.insn	2, 0x0128
  5c:	045f 6834 5f01      	.insn	6, 0x5f016834045f
  62:	0400                	.insn	2, 0x0400
  64:	3024                	.insn	2, 0x3024
  66:	7a0c                	.insn	2, 0x7a0c
  68:	0800                	.insn	2, 0x0800
  6a:	ff231aff 07ffffff 	.insn	12, 0x5854049f07ffffffff231aff
  72:	5854049f 
  76:	5f01                	.insn	2, 0x5f01
  78:	5804                	.insn	2, 0x5804
  7a:	0460                	.insn	2, 0x0460
  7c:	007f 9f1f 6004 0168 	.insn	10, 0x005f016860049f1f007f
  84:	005f 
  86:	3c04                	.insn	2, 0x3c04
  88:	0248                	.insn	2, 0x0248
  8a:	9f30                	.insn	2, 0x9f30
  8c:	4804                	.insn	2, 0x4804
  8e:	1950                	.insn	2, 0x1950
  90:	007f 007e ff0a 1aff 	.insn	10, 0xf30a1affff0a007e007f
  98:	f30a 
  9a:	ff0c1c03          	lh	x24,-16(x24)
  9e:	ffff                	.insn	2, 0xffff
  a0:	30241aff 1aff082e 	.insn	12, 0x0085009f1aff082e30241aff
  a8:	0085009f 
  ac:	0000                	.insn	2, 0x
  ae:	0005                	.insn	2, 0x0005
  b0:	0008                	.insn	2, 0x0008
  b2:	0000                	.insn	2, 0x
  b4:	0000                	.insn	2, 0x
  b6:	0004                	.insn	2, 0x0004
  b8:	012c                	.insn	2, 0x012c
  ba:	045a                	.insn	2, 0x045a
  bc:	702c                	.insn	2, 0x702c
  be:	a304                	.insn	2, 0xa304
  c0:	5a01                	.insn	2, 0x5a01
  c2:	049f 8870 0101      	.insn	6, 0x01018870049f
  c8:	005a                	.insn	2, 0x005a
  ca:	1c04                	.insn	2, 0x1c04
  cc:	064c                	.insn	2, 0x064c
  ce:	0079                	.insn	2, 0x0079
  d0:	ff08                	.insn	2, 0xff08
  d2:	9f1a                	.insn	2, 0x9f1a
  d4:	8004                	.insn	2, 0x8004
  d6:	8801                	.insn	2, 0x8801
  d8:	0601                	.insn	2, 0x0601
  da:	0079                	.insn	2, 0x0079
  dc:	ff08                	.insn	2, 0xff08
  de:	9f1a                	.insn	2, 0x9f1a
  e0:	0400                	.insn	2, 0x0400
  e2:	4c30                	.insn	2, 0x4c30
  e4:	0a0d                	.insn	2, 0x0a0d
  e6:	043e                	.insn	2, 0x043e
  e8:	007a                	.insn	2, 0x007a
  ea:	081c                	.insn	2, 0x081c
  ec:	2420                	.insn	2, 0x2420
  ee:	2008                	.insn	2, 0x2008
  f0:	9f26                	.insn	2, 0x9f26
  f2:	0400                	.insn	2, 0x0400
  f4:	4c30                	.insn	2, 0x4c30
  f6:	780c                	.insn	2, 0x780c
  f8:	7a00                	.insn	2, 0x7a00
  fa:	0c75                	.insn	2, 0x0c75
  fc:	ffff                	.insn	2, 0xffff
  fe:	ffff                	.insn	2, 0xffff
 100:	241a                	.insn	2, 0x241a
 102:	009f 6004 0868      	.insn	6, 0x08686004009f
 108:	007f 007a a921 9f2e 	.insn	10, 0x68049f2ea921007a007f
 110:	6804 
 112:	0170                	.insn	2, 0x0170
 114:	005a                	.insn	2, 0x005a
 116:	1804                	.insn	2, 0x1804
 118:	045e012f          	.insn	4, 0x045e012f
 11c:	0180                	.insn	2, 0x0180
 11e:	0184                	.insn	2, 0x0184
 120:	5e01                	.insn	2, 0x5e01
 122:	8404                	.insn	2, 0x8404
 124:	8801                	.insn	2, 0x8801
 126:	0401                	.insn	2, 0x0401
 128:	007a                	.insn	2, 0x007a
 12a:	9f1f 0400 4c30      	.insn	6, 0x4c3004009f1f
 130:	5a01                	.insn	2, 0x5a01
 132:	9000                	.insn	2, 0x9000
 134:	0000                	.insn	2, 0x
 136:	0500                	.insn	2, 0x0500
 138:	0800                	.insn	2, 0x0800
 13a:	0000                	.insn	2, 0x
 13c:	0000                	.insn	2, 0x
 13e:	0400                	.insn	2, 0x0400
 140:	2800                	.insn	2, 0x2800
 142:	5a01                	.insn	2, 0x5a01
 144:	2804                	.insn	2, 0x2804
 146:	0440                	.insn	2, 0x0440
 148:	9f5a01a3          	sb	x21,-1565(x20)
 14c:	4004                	.insn	2, 0x4004
 14e:	014c                	.insn	2, 0x014c
 150:	045a                	.insn	2, 0x045a
 152:	644c                	.insn	2, 0x644c
 154:	a304                	.insn	2, 0xa304
 156:	5a01                	.insn	2, 0x5a01
 158:	049f 6864 5a01      	.insn	6, 0x5a016864049f
 15e:	6804                	.insn	2, 0x6804
 160:	0470                	.insn	2, 0x0470
 162:	9f5a01a3          	sb	x21,-1565(x20)
 166:	0400                	.insn	2, 0x0400
 168:	4034                	.insn	2, 0x4034
 16a:	7f007d0b          	.insn	4, 0x7f007d0b
 16e:	9400                	.insn	2, 0x9400
 170:	0801                	.insn	2, 0x0801
 172:	9f1c1aff 0b645804 	.insn	12, 0x007f007d0b6458049f1c1aff
 17a:	007f007d 
 17e:	0194                	.insn	2, 0x0194
 180:	ff08                	.insn	2, 0xff08
 182:	1c1a                	.insn	2, 0x1c1a
 184:	009f 0004 0128      	.insn	6, 0x01280004009f
 18a:	045a                	.insn	2, 0x045a
 18c:	4028                	.insn	2, 0x4028
 18e:	a304                	.insn	2, 0xa304
 190:	5a01                	.insn	2, 0x5a01
 192:	049f 4c40 5a01      	.insn	6, 0x5a014c40049f
 198:	4c04                	.insn	2, 0x4c04
 19a:	0464                	.insn	2, 0x0464
 19c:	9f5a01a3          	sb	x21,-1565(x20)
 1a0:	6404                	.insn	2, 0x6404
 1a2:	0168                	.insn	2, 0x0168
 1a4:	045a                	.insn	2, 0x045a
 1a6:	7068                	.insn	2, 0x7068
 1a8:	a304                	.insn	2, 0xa304
 1aa:	5a01                	.insn	2, 0x5a01
 1ac:	009f 0004 0310      	.insn	6, 0x03100004009f
 1b2:	3808                	.insn	2, 0x3808
 1b4:	049f 2810 5f01      	.insn	6, 0x5f012810049f
 1ba:	4004                	.insn	2, 0x4004
 1bc:	0154                	.insn	2, 0x0154
 1be:	045f 7064 0803      	.insn	6, 0x08037064045f
 1c4:	9f38                	.insn	2, 0x9f38
	...

Disassembly of section .debug_aranges:

0000000000000000 <.debug_aranges>:
   0:	002c                	.insn	2, 0x002c
   2:	0000                	.insn	2, 0x
   4:	0002                	.insn	2, 0x0002
   6:	0000                	.insn	2, 0x
   8:	0000                	.insn	2, 0x
   a:	0008                	.insn	2, 0x0008
   c:	0000                	.insn	2, 0x
   e:	0000                	.insn	2, 0x
  10:	0384                	.insn	2, 0x0384
  12:	0800                	.insn	2, 0x0800
  14:	0000                	.insn	2, 0x
  16:	0000                	.insn	2, 0x
  18:	0068                	.insn	2, 0x0068
	...
  2e:	0000                	.insn	2, 0x
  30:	002c                	.insn	2, 0x002c
  32:	0000                	.insn	2, 0x
  34:	0002                	.insn	2, 0x0002
  36:	01ce                	.insn	2, 0x01ce
  38:	0000                	.insn	2, 0x
  3a:	0008                	.insn	2, 0x0008
  3c:	0000                	.insn	2, 0x
  3e:	0000                	.insn	2, 0x
  40:	03ec                	.insn	2, 0x03ec
  42:	0800                	.insn	2, 0x0800
  44:	0000                	.insn	2, 0x
  46:	0000                	.insn	2, 0x
  48:	0088                	.insn	2, 0x0088
	...
  5e:	0000                	.insn	2, 0x
  60:	002c                	.insn	2, 0x002c
  62:	0000                	.insn	2, 0x
  64:	0002                	.insn	2, 0x0002
  66:	03d5                	.insn	2, 0x03d5
  68:	0000                	.insn	2, 0x
  6a:	0008                	.insn	2, 0x0008
  6c:	0000                	.insn	2, 0x
  6e:	0000                	.insn	2, 0x
  70:	0474                	.insn	2, 0x0474
  72:	0800                	.insn	2, 0x0800
  74:	0000                	.insn	2, 0x
  76:	0000                	.insn	2, 0x
  78:	0024                	.insn	2, 0x0024
	...
  8e:	0000                	.insn	2, 0x
  90:	002c                	.insn	2, 0x002c
  92:	0000                	.insn	2, 0x
  94:	0002                	.insn	2, 0x0002
  96:	040e                	.insn	2, 0x040e
  98:	0000                	.insn	2, 0x
  9a:	0008                	.insn	2, 0x0008
  9c:	0000                	.insn	2, 0x
  9e:	0000                	.insn	2, 0x
  a0:	0498                	.insn	2, 0x0498
  a2:	0800                	.insn	2, 0x0800
  a4:	0000                	.insn	2, 0x
  a6:	0000                	.insn	2, 0x
  a8:	0070                	.insn	2, 0x0070
	...
  be:	0000                	.insn	2, 0x
  c0:	001c                	.insn	2, 0x001c
  c2:	0000                	.insn	2, 0x
  c4:	0002                	.insn	2, 0x0002
  c6:	0570                	.insn	2, 0x0570
  c8:	0000                	.insn	2, 0x
  ca:	0008                	.insn	2, 0x0008
	...

Disassembly of section .debug_rnglists:

0000000000000000 <.debug_rnglists>:
   0:	0000000f          	fence	unknown,unknown
   4:	0005                	.insn	2, 0x0005
   6:	0008                	.insn	2, 0x0008
   8:	0000                	.insn	2, 0x
   a:	0000                	.insn	2, 0x
   c:	0004                	.insn	2, 0x0004
   e:	040c                	.insn	2, 0x040c
  10:	1810                	.insn	2, 0x1810
  12:	3900                	.insn	2, 0x3900
  14:	0000                	.insn	2, 0x
  16:	0500                	.insn	2, 0x0500
  18:	0800                	.insn	2, 0x0800
  1a:	0000                	.insn	2, 0x
  1c:	0000                	.insn	2, 0x
  1e:	0400                	.insn	2, 0x0400
  20:	0000                	.insn	2, 0x
  22:	1004                	.insn	2, 0x1004
  24:	043c                	.insn	2, 0x043c
  26:	4440                	.insn	2, 0x4440
  28:	7004                	.insn	2, 0x7004
  2a:	0188                	.insn	2, 0x0188
  2c:	0400                	.insn	2, 0x0400
  2e:	3c14                	.insn	2, 0x3c14
  30:	4004                	.insn	2, 0x4004
  32:	0444                	.insn	2, 0x0444
  34:	0180                	.insn	2, 0x0180
  36:	0188                	.insn	2, 0x0188
  38:	0400                	.insn	2, 0x0400
  3a:	3020                	.insn	2, 0x3020
  3c:	3804                	.insn	2, 0x3804
  3e:	043c                	.insn	2, 0x043c
  40:	4440                	.insn	2, 0x4440
  42:	0400                	.insn	2, 0x0400
  44:	403c                	.insn	2, 0x403c
  46:	4404                	.insn	2, 0x4404
  48:	044c                	.insn	2, 0x044c
  4a:	4c4c                	.insn	2, 0x4c4c
  4c:	5404                	.insn	2, 0x5404
  4e:	0060                	.insn	2, 0x0060
  50:	0018                	.insn	2, 0x0018
  52:	0000                	.insn	2, 0x
  54:	0005                	.insn	2, 0x0005
  56:	0008                	.insn	2, 0x0008
  58:	0000                	.insn	2, 0x
  5a:	0000                	.insn	2, 0x
  5c:	0004                	.insn	2, 0x0004
  5e:	0428                	.insn	2, 0x0428
  60:	3828                	.insn	2, 0x3828
  62:	4804                	.insn	2, 0x4804
  64:	044c                	.insn	2, 0x044c
  66:	5c4c                	.insn	2, 0x5c4c
  68:	6404                	.insn	2, 0x6404
  6a:	0070                	.insn	2, 0x0070

Disassembly of section .debug_line:

0000000000000000 <.debug_line>:
   0:	01a9                	.insn	2, 0x01a9
   2:	0000                	.insn	2, 0x
   4:	0005                	.insn	2, 0x0005
   6:	0008                	.insn	2, 0x0008
   8:	0038                	.insn	2, 0x0038
   a:	0000                	.insn	2, 0x
   c:	0101                	.insn	2, 0x0101
   e:	fb01                	.insn	2, 0xfb01
  10:	0d0e                	.insn	2, 0x0d0e
  12:	0100                	.insn	2, 0x0100
  14:	0101                	.insn	2, 0x0101
  16:	0001                	.insn	2, 0x0001
  18:	0000                	.insn	2, 0x
  1a:	0001                	.insn	2, 0x0001
  1c:	0100                	.insn	2, 0x0100
  1e:	0101                	.insn	2, 0x0101
  20:	021f 0000 0000      	.insn	6, 0x021f
  26:	00000083          	lb	x1,0(x0) # 0 <_Min_Stack_Size-0x800000>
  2a:	0102                	.insn	2, 0x0102
  2c:	021f 040f 0079      	.insn	6, 0x0079040f021f
  32:	0000                	.insn	2, 0x
  34:	7901                	.insn	2, 0x7901
  36:	0000                	.insn	2, 0x
  38:	0100                	.insn	2, 0x0100
  3a:	00a1                	.insn	2, 0x00a1
  3c:	0000                	.insn	2, 0x
  3e:	ab01                	.insn	2, 0xab01
  40:	0000                	.insn	2, 0x
  42:	0100                	.insn	2, 0x0100
  44:	0105                	.insn	2, 0x0105
  46:	0900                	.insn	2, 0x0900
  48:	8402                	.insn	2, 0x8402
  4a:	00080003          	lb	x0,0(x16)
  4e:	0000                	.insn	2, 0x
  50:	0300                	.insn	2, 0x0300
  52:	03050123          	sb	x16,34(x10)
  56:	00090103          	lb	x2,0(x18)
  5a:	0100                	.insn	2, 0x0100
  5c:	00090003          	lb	x0,0(x18)
  60:	0100                	.insn	2, 0x0100
  62:	0d05                	.insn	2, 0x0d05
  64:	00090003          	lb	x0,0(x18)
  68:	0100                	.insn	2, 0x0100
  6a:	0305                	.insn	2, 0x0305
  6c:	00090103          	lb	x2,0(x18)
  70:	0100                	.insn	2, 0x0100
  72:	00090003          	lb	x0,0(x18)
  76:	0100                	.insn	2, 0x0100
  78:	00090003          	lb	x0,0(x18)
  7c:	0100                	.insn	2, 0x0100
  7e:	00090003          	lb	x0,0(x18)
  82:	0100                	.insn	2, 0x0100
  84:	00090103          	lb	x2,0(x18)
  88:	0100                	.insn	2, 0x0100
  8a:	00090203          	lb	x4,0(x18)
  8e:	0100                	.insn	2, 0x0100
  90:	00090103          	lb	x2,0(x18)
  94:	0100                	.insn	2, 0x0100
  96:	00090003          	lb	x0,0(x18)
  9a:	0100                	.insn	2, 0x0100
  9c:	00090003          	lb	x0,0(x18)
  a0:	0100                	.insn	2, 0x0100
  a2:	00090003          	lb	x0,0(x18)
  a6:	0100                	.insn	2, 0x0100
  a8:	0306                	.insn	2, 0x0306
  aa:	0901                	.insn	2, 0x0901
  ac:	000c                	.insn	2, 0x000c
  ae:	0301                	.insn	2, 0x0301
  b0:	097f 0004 0601 0003 	.insn	10, 0x0409000306010004097f
  b8:	0409 
  ba:	0100                	.insn	2, 0x0100
  bc:	00090003          	lb	x0,0(x18)
  c0:	0100                	.insn	2, 0x0100
  c2:	04090003          	lb	x0,64(x18)
  c6:	0100                	.insn	2, 0x0100
  c8:	00090103          	lb	x2,0(x18)
  cc:	0100                	.insn	2, 0x0100
  ce:	00090003          	lb	x0,0(x18)
  d2:	0100                	.insn	2, 0x0100
  d4:	0200                	.insn	2, 0x0200
  d6:	0a04                	.insn	2, 0x0a04
  d8:	04090003          	lb	x0,64(x18)
  dc:	0100                	.insn	2, 0x0100
  de:	0200                	.insn	2, 0x0200
  e0:	0a04                	.insn	2, 0x0a04
  e2:	00090003          	lb	x0,0(x18)
  e6:	0100                	.insn	2, 0x0100
  e8:	0200                	.insn	2, 0x0200
  ea:	0e04                	.insn	2, 0x0e04
  ec:	08090003          	lb	x0,128(x18)
  f0:	0100                	.insn	2, 0x0100
  f2:	0200                	.insn	2, 0x0200
  f4:	0e04                	.insn	2, 0x0e04
  f6:	00090003          	lb	x0,0(x18)
  fa:	0100                	.insn	2, 0x0100
  fc:	0200                	.insn	2, 0x0200
  fe:	0e04                	.insn	2, 0x0e04
 100:	00090003          	lb	x0,0(x18)
 104:	0100                	.insn	2, 0x0100
 106:	0200                	.insn	2, 0x0200
 108:	0e04                	.insn	2, 0x0e04
 10a:	00090003          	lb	x0,0(x18)
 10e:	0100                	.insn	2, 0x0100
 110:	0200                	.insn	2, 0x0200
 112:	0e04                	.insn	2, 0x0e04
 114:	00090003          	lb	x0,0(x18)
 118:	0100                	.insn	2, 0x0100
 11a:	0a05                	.insn	2, 0x0a05
 11c:	0200                	.insn	2, 0x0200
 11e:	0e04                	.insn	2, 0x0e04
 120:	0306                	.insn	2, 0x0306
 122:	00080903          	lb	x18,0(x16)
 126:	0501                	.insn	2, 0x0501
 128:	7d030603          	lb	x12,2000(x6)
 12c:	0c09                	.insn	2, 0x0c09
 12e:	0100                	.insn	2, 0x0100
 130:	00090103          	lb	x2,0(x18)
 134:	0100                	.insn	2, 0x0100
 136:	00090003          	lb	x0,0(x18)
 13a:	0100                	.insn	2, 0x0100
 13c:	00090003          	lb	x0,0(x18)
 140:	0100                	.insn	2, 0x0100
 142:	00090203          	lb	x4,0(x18)
 146:	0100                	.insn	2, 0x0100
 148:	0105                	.insn	2, 0x0105
 14a:	0306                	.insn	2, 0x0306
 14c:	0901                	.insn	2, 0x0901
 14e:	0000                	.insn	2, 0x
 150:	0501                	.insn	2, 0x0501
 152:	7c030603          	lb	x12,1984(x6)
 156:	0409                	.insn	2, 0x0409
 158:	0100                	.insn	2, 0x0100
 15a:	00090003          	lb	x0,0(x18)
 15e:	0100                	.insn	2, 0x0100
 160:	0c090003          	lb	x0,192(x18)
 164:	0100                	.insn	2, 0x0100
 166:	00090003          	lb	x0,0(x18)
 16a:	0100                	.insn	2, 0x0100
 16c:	00090003          	lb	x0,0(x18)
 170:	0100                	.insn	2, 0x0100
 172:	00090003          	lb	x0,0(x18)
 176:	0100                	.insn	2, 0x0100
 178:	0c090003          	lb	x0,192(x18)
 17c:	0100                	.insn	2, 0x0100
 17e:	00090003          	lb	x0,0(x18)
 182:	0100                	.insn	2, 0x0100
 184:	00090003          	lb	x0,0(x18)
 188:	0100                	.insn	2, 0x0100
 18a:	0200                	.insn	2, 0x0200
 18c:	2504                	.insn	2, 0x2504
 18e:	04090003          	lb	x0,64(x18)
 192:	0100                	.insn	2, 0x0100
 194:	0a05                	.insn	2, 0x0a05
 196:	0200                	.insn	2, 0x0200
 198:	2504                	.insn	2, 0x2504
 19a:	0306                	.insn	2, 0x0306
 19c:	00000903          	lb	x18,0(x0) # 0 <_Min_Stack_Size-0x800000>
 1a0:	0301                	.insn	2, 0x0301
 1a2:	0900                	.insn	2, 0x0900
 1a4:	0008                	.insn	2, 0x0008
 1a6:	0901                	.insn	2, 0x0901
 1a8:	0008                	.insn	2, 0x0008
 1aa:	0100                	.insn	2, 0x0100
 1ac:	0001                	.insn	2, 0x0001
 1ae:	0002                	.insn	2, 0x0002
 1b0:	0500                	.insn	2, 0x0500
 1b2:	0800                	.insn	2, 0x0800
 1b4:	3800                	.insn	2, 0x3800
 1b6:	0000                	.insn	2, 0x
 1b8:	0100                	.insn	2, 0x0100
 1ba:	0101                	.insn	2, 0x0101
 1bc:	000d0efb          	.insn	4, 0x000d0efb
 1c0:	0101                	.insn	2, 0x0101
 1c2:	0101                	.insn	2, 0x0101
 1c4:	0000                	.insn	2, 0x
 1c6:	0100                	.insn	2, 0x0100
 1c8:	0000                	.insn	2, 0x
 1ca:	0101                	.insn	2, 0x0101
 1cc:	1f01                	.insn	2, 0x1f01
 1ce:	0002                	.insn	2, 0x0002
 1d0:	0000                	.insn	2, 0x
 1d2:	8300                	.insn	2, 0x8300
 1d4:	0000                	.insn	2, 0x
 1d6:	0200                	.insn	2, 0x0200
 1d8:	1f01                	.insn	2, 0x1f01
 1da:	0f02                	.insn	2, 0x0f02
 1dc:	d204                	.insn	2, 0xd204
 1de:	0000                	.insn	2, 0x
 1e0:	0100                	.insn	2, 0x0100
 1e2:	00d2                	.insn	2, 0x00d2
 1e4:	0000                	.insn	2, 0x
 1e6:	a101                	.insn	2, 0xa101
 1e8:	0000                	.insn	2, 0x
 1ea:	0100                	.insn	2, 0x0100
 1ec:	000000ab          	.insn	4, 0x00ab
 1f0:	0501                	.insn	2, 0x0501
 1f2:	0001                	.insn	2, 0x0001
 1f4:	0209                	.insn	2, 0x0209
 1f6:	03ec                	.insn	2, 0x03ec
 1f8:	0800                	.insn	2, 0x0800
 1fa:	0000                	.insn	2, 0x
 1fc:	0000                	.insn	2, 0x
 1fe:	05012403          	lw	x8,80(x2) # e030266 <__exp_data+0x602ccfe>
 202:	09010303          	lb	x6,144(x2)
 206:	0000                	.insn	2, 0x
 208:	0301                	.insn	2, 0x0301
 20a:	0900                	.insn	2, 0x0900
 20c:	0000                	.insn	2, 0x
 20e:	0301                	.insn	2, 0x0301
 210:	0900                	.insn	2, 0x0900
 212:	0000                	.insn	2, 0x
 214:	0301                	.insn	2, 0x0301
 216:	0900                	.insn	2, 0x0900
 218:	0000                	.insn	2, 0x
 21a:	0301                	.insn	2, 0x0301
 21c:	0901                	.insn	2, 0x0901
 21e:	0000                	.insn	2, 0x
 220:	0301                	.insn	2, 0x0301
 222:	0902                	.insn	2, 0x0902
 224:	0000                	.insn	2, 0x
 226:	0301                	.insn	2, 0x0301
 228:	0900                	.insn	2, 0x0900
 22a:	0000                	.insn	2, 0x
 22c:	0501                	.insn	2, 0x0501
 22e:	0601                	.insn	2, 0x0601
 230:	00097c03          	.insn	4, 0x00097c03
 234:	0100                	.insn	2, 0x0100
 236:	0305                	.insn	2, 0x0305
 238:	10090403          	lb	x8,256(x18)
 23c:	0100                	.insn	2, 0x0100
 23e:	0200                	.insn	2, 0x0200
 240:	0104                	.insn	2, 0x0104
 242:	0306                	.insn	2, 0x0306
 244:	0900                	.insn	2, 0x0900
 246:	0004                	.insn	2, 0x0004
 248:	0001                	.insn	2, 0x0001
 24a:	0402                	.insn	2, 0x0402
 24c:	0301                	.insn	2, 0x0301
 24e:	0900                	.insn	2, 0x0900
 250:	0004                	.insn	2, 0x0004
 252:	0001                	.insn	2, 0x0001
 254:	0402                	.insn	2, 0x0402
 256:	0309                	.insn	2, 0x0309
 258:	0900                	.insn	2, 0x0900
 25a:	0008                	.insn	2, 0x0008
 25c:	0001                	.insn	2, 0x0001
 25e:	0402                	.insn	2, 0x0402
 260:	0309                	.insn	2, 0x0309
 262:	0900                	.insn	2, 0x0900
 264:	0000                	.insn	2, 0x
 266:	0001                	.insn	2, 0x0001
 268:	0402                	.insn	2, 0x0402
 26a:	0309                	.insn	2, 0x0309
 26c:	0900                	.insn	2, 0x0900
 26e:	0000                	.insn	2, 0x
 270:	0001                	.insn	2, 0x0001
 272:	0402                	.insn	2, 0x0402
 274:	0309                	.insn	2, 0x0309
 276:	0900                	.insn	2, 0x0900
 278:	0000                	.insn	2, 0x
 27a:	0001                	.insn	2, 0x0001
 27c:	0402                	.insn	2, 0x0402
 27e:	0309                	.insn	2, 0x0309
 280:	0900                	.insn	2, 0x0900
 282:	0000                	.insn	2, 0x
 284:	0001                	.insn	2, 0x0001
 286:	0402                	.insn	2, 0x0402
 288:	0309                	.insn	2, 0x0309
 28a:	0900                	.insn	2, 0x0900
 28c:	0000                	.insn	2, 0x
 28e:	0001                	.insn	2, 0x0001
 290:	0402                	.insn	2, 0x0402
 292:	0309                	.insn	2, 0x0309
 294:	0900                	.insn	2, 0x0900
 296:	0000                	.insn	2, 0x
 298:	0001                	.insn	2, 0x0001
 29a:	0402                	.insn	2, 0x0402
 29c:	0309                	.insn	2, 0x0309
 29e:	0900                	.insn	2, 0x0900
 2a0:	0000                	.insn	2, 0x
 2a2:	0001                	.insn	2, 0x0001
 2a4:	0402                	.insn	2, 0x0402
 2a6:	0309                	.insn	2, 0x0309
 2a8:	0900                	.insn	2, 0x0900
 2aa:	0010                	.insn	2, 0x0010
 2ac:	0001                	.insn	2, 0x0001
 2ae:	0402                	.insn	2, 0x0402
 2b0:	0309                	.insn	2, 0x0309
 2b2:	0900                	.insn	2, 0x0900
 2b4:	0000                	.insn	2, 0x
 2b6:	0001                	.insn	2, 0x0001
 2b8:	0402                	.insn	2, 0x0402
 2ba:	0309                	.insn	2, 0x0309
 2bc:	0900                	.insn	2, 0x0900
 2be:	0000                	.insn	2, 0x
 2c0:	0001                	.insn	2, 0x0001
 2c2:	0402                	.insn	2, 0x0402
 2c4:	0309                	.insn	2, 0x0309
 2c6:	0900                	.insn	2, 0x0900
 2c8:	0000                	.insn	2, 0x
 2ca:	0001                	.insn	2, 0x0001
 2cc:	0402                	.insn	2, 0x0402
 2ce:	0309                	.insn	2, 0x0309
 2d0:	0900                	.insn	2, 0x0900
 2d2:	0000                	.insn	2, 0x
 2d4:	0001                	.insn	2, 0x0001
 2d6:	0402                	.insn	2, 0x0402
 2d8:	0309                	.insn	2, 0x0309
 2da:	0900                	.insn	2, 0x0900
 2dc:	0000                	.insn	2, 0x
 2de:	0001                	.insn	2, 0x0001
 2e0:	0402                	.insn	2, 0x0402
 2e2:	0309                	.insn	2, 0x0309
 2e4:	0900                	.insn	2, 0x0900
 2e6:	0000                	.insn	2, 0x
 2e8:	0001                	.insn	2, 0x0001
 2ea:	0402                	.insn	2, 0x0402
 2ec:	0309                	.insn	2, 0x0309
 2ee:	0900                	.insn	2, 0x0900
 2f0:	0000                	.insn	2, 0x
 2f2:	0001                	.insn	2, 0x0001
 2f4:	0402                	.insn	2, 0x0402
 2f6:	0309                	.insn	2, 0x0309
 2f8:	0900                	.insn	2, 0x0900
 2fa:	0000                	.insn	2, 0x
 2fc:	0001                	.insn	2, 0x0001
 2fe:	0402                	.insn	2, 0x0402
 300:	0609                	.insn	2, 0x0609
 302:	0c090103          	lb	x2,192(x18)
 306:	0100                	.insn	2, 0x0100
 308:	0200                	.insn	2, 0x0200
 30a:	0904                	.insn	2, 0x0904
 30c:	04097f03          	.insn	4, 0x04097f03
 310:	0100                	.insn	2, 0x0100
 312:	0200                	.insn	2, 0x0200
 314:	0904                	.insn	2, 0x0904
 316:	04090103          	lb	x2,64(x18)
 31a:	0100                	.insn	2, 0x0100
 31c:	0200                	.insn	2, 0x0200
 31e:	7904                	.insn	2, 0x7904
 320:	0306                	.insn	2, 0x0306
 322:	097f 0008 0001 0402 	.insn	10, 0x0379040200010008097f
 32a:	0379 
 32c:	0901                	.insn	2, 0x0901
 32e:	0000                	.insn	2, 0x
 330:	0001                	.insn	2, 0x0001
 332:	0402                	.insn	2, 0x0402
 334:	0379                	.insn	2, 0x0379
 336:	0900                	.insn	2, 0x0900
 338:	0000                	.insn	2, 0x
 33a:	0001                	.insn	2, 0x0001
 33c:	0402                	.insn	2, 0x0402
 33e:	0379                	.insn	2, 0x0379
 340:	0900                	.insn	2, 0x0900
 342:	0000                	.insn	2, 0x
 344:	0001                	.insn	2, 0x0001
 346:	0402                	.insn	2, 0x0402
 348:	0379                	.insn	2, 0x0379
 34a:	0900                	.insn	2, 0x0900
 34c:	0000                	.insn	2, 0x
 34e:	0001                	.insn	2, 0x0001
 350:	0402                	.insn	2, 0x0402
 352:	0379                	.insn	2, 0x0379
 354:	0900                	.insn	2, 0x0900
 356:	0000                	.insn	2, 0x
 358:	0501                	.insn	2, 0x0501
 35a:	0001                	.insn	2, 0x0001
 35c:	0402                	.insn	2, 0x0402
 35e:	0679                	.insn	2, 0x0679
 360:	00090303          	lb	x6,0(x18)
 364:	0100                	.insn	2, 0x0100
 366:	0305                	.insn	2, 0x0305
 368:	0200                	.insn	2, 0x0200
 36a:	7904                	.insn	2, 0x7904
 36c:	08097d03          	.insn	4, 0x08097d03
 370:	0100                	.insn	2, 0x0100
 372:	0200                	.insn	2, 0x0200
 374:	7904                	.insn	2, 0x7904
 376:	0306                	.insn	2, 0x0306
 378:	0900                	.insn	2, 0x0900
 37a:	000c                	.insn	2, 0x000c
 37c:	0001                	.insn	2, 0x0001
 37e:	0402                	.insn	2, 0x0402
 380:	0379                	.insn	2, 0x0379
 382:	0900                	.insn	2, 0x0900
 384:	0000                	.insn	2, 0x
 386:	0001                	.insn	2, 0x0001
 388:	0402                	.insn	2, 0x0402
 38a:	0379                	.insn	2, 0x0379
 38c:	0902                	.insn	2, 0x0902
 38e:	0000                	.insn	2, 0x
 390:	0501                	.insn	2, 0x0501
 392:	0001                	.insn	2, 0x0001
 394:	0402                	.insn	2, 0x0402
 396:	0679                	.insn	2, 0x0679
 398:	00090103          	lb	x2,0(x18)
 39c:	0100                	.insn	2, 0x0100
 39e:	0305                	.insn	2, 0x0305
 3a0:	0200                	.insn	2, 0x0200
 3a2:	0304                	.insn	2, 0x0304
 3a4:	0306                	.insn	2, 0x0306
 3a6:	097c                	.insn	2, 0x097c
 3a8:	0020                	.insn	2, 0x0020
 3aa:	0901                	.insn	2, 0x0901
 3ac:	0008                	.insn	2, 0x0008
 3ae:	0100                	.insn	2, 0x0100
 3b0:	7a01                	.insn	2, 0x7a01
 3b2:	0000                	.insn	2, 0x
 3b4:	0500                	.insn	2, 0x0500
 3b6:	0800                	.insn	2, 0x0800
 3b8:	2e00                	.insn	2, 0x2e00
 3ba:	0000                	.insn	2, 0x
 3bc:	0100                	.insn	2, 0x0100
 3be:	0101                	.insn	2, 0x0101
 3c0:	000d0efb          	.insn	4, 0x000d0efb
 3c4:	0101                	.insn	2, 0x0101
 3c6:	0101                	.insn	2, 0x0101
 3c8:	0000                	.insn	2, 0x
 3ca:	0100                	.insn	2, 0x0100
 3cc:	0000                	.insn	2, 0x
 3ce:	0101                	.insn	2, 0x0101
 3d0:	1f01                	.insn	2, 0x1f01
 3d2:	0002                	.insn	2, 0x0002
 3d4:	0000                	.insn	2, 0x
 3d6:	de00                	.insn	2, 0xde00
 3d8:	0000                	.insn	2, 0x
 3da:	0200                	.insn	2, 0x0200
 3dc:	1f01                	.insn	2, 0x1f01
 3de:	0f02                	.insn	2, 0x0f02
 3e0:	0102                	.insn	2, 0x0102
 3e2:	0001                	.insn	2, 0x0001
 3e4:	0100                	.insn	2, 0x0100
 3e6:	0101                	.insn	2, 0x0101
 3e8:	0000                	.insn	2, 0x
 3ea:	0001                	.insn	2, 0x0001
 3ec:	0209                	.insn	2, 0x0209
 3ee:	0474                	.insn	2, 0x0474
 3f0:	0800                	.insn	2, 0x0800
 3f2:	0000                	.insn	2, 0x
 3f4:	0000                	.insn	2, 0x
 3f6:	03012403          	lw	x8,48(x2)
 3fa:	0901                	.insn	2, 0x0901
 3fc:	0004                	.insn	2, 0x0004
 3fe:	0301                	.insn	2, 0x0301
 400:	0902                	.insn	2, 0x0902
 402:	0004                	.insn	2, 0x0004
 404:	0301                	.insn	2, 0x0301
 406:	0901                	.insn	2, 0x0901
 408:	0004                	.insn	2, 0x0004
 40a:	0301                	.insn	2, 0x0301
 40c:	0901                	.insn	2, 0x0901
 40e:	0004                	.insn	2, 0x0004
 410:	0301                	.insn	2, 0x0301
 412:	0902                	.insn	2, 0x0902
 414:	0004                	.insn	2, 0x0004
 416:	0301                	.insn	2, 0x0301
 418:	0901                	.insn	2, 0x0901
 41a:	0004                	.insn	2, 0x0004
 41c:	0301                	.insn	2, 0x0301
 41e:	0901                	.insn	2, 0x0901
 420:	0004                	.insn	2, 0x0004
 422:	0301                	.insn	2, 0x0301
 424:	0901                	.insn	2, 0x0901
 426:	0004                	.insn	2, 0x0004
 428:	0901                	.insn	2, 0x0901
 42a:	0004                	.insn	2, 0x0004
 42c:	0100                	.insn	2, 0x0100
 42e:	1501                	.insn	2, 0x1501
 430:	0001                	.insn	2, 0x0001
 432:	0500                	.insn	2, 0x0500
 434:	0800                	.insn	2, 0x0800
 436:	3300                	.insn	2, 0x3300
 438:	0000                	.insn	2, 0x
 43a:	0100                	.insn	2, 0x0100
 43c:	0101                	.insn	2, 0x0101
 43e:	000d0efb          	.insn	4, 0x000d0efb
 442:	0101                	.insn	2, 0x0101
 444:	0101                	.insn	2, 0x0101
 446:	0000                	.insn	2, 0x
 448:	0100                	.insn	2, 0x0100
 44a:	0000                	.insn	2, 0x
 44c:	0101                	.insn	2, 0x0101
 44e:	1f01                	.insn	2, 0x1f01
 450:	0002                	.insn	2, 0x0002
 452:	0000                	.insn	2, 0x
 454:	2a00                	.insn	2, 0x2a00
 456:	0001                	.insn	2, 0x0001
 458:	0200                	.insn	2, 0x0200
 45a:	1f01                	.insn	2, 0x1f01
 45c:	0f02                	.insn	2, 0x0f02
 45e:	00012003          	lw	x0,0(x2)
 462:	0100                	.insn	2, 0x0100
 464:	0120                	.insn	2, 0x0120
 466:	0000                	.insn	2, 0x
 468:	4001                	.insn	2, 0x4001
 46a:	0001                	.insn	2, 0x0001
 46c:	0100                	.insn	2, 0x0100
 46e:	0105                	.insn	2, 0x0105
 470:	0900                	.insn	2, 0x0900
 472:	9802                	.insn	2, 0x9802
 474:	0004                	.insn	2, 0x0004
 476:	0008                	.insn	2, 0x0008
 478:	0000                	.insn	2, 0x
 47a:	0300                	.insn	2, 0x0300
 47c:	05ae                	.insn	2, 0x05ae
 47e:	0501                	.insn	2, 0x0501
 480:	09010303          	lb	x6,144(x2)
 484:	0000                	.insn	2, 0x
 486:	0301                	.insn	2, 0x0301
 488:	0902                	.insn	2, 0x0902
 48a:	0000                	.insn	2, 0x
 48c:	0301                	.insn	2, 0x0301
 48e:	0900                	.insn	2, 0x0900
 490:	0000                	.insn	2, 0x
 492:	0301                	.insn	2, 0x0301
 494:	0900                	.insn	2, 0x0900
 496:	0000                	.insn	2, 0x
 498:	0301                	.insn	2, 0x0301
 49a:	0900                	.insn	2, 0x0900
 49c:	0000                	.insn	2, 0x
 49e:	0301                	.insn	2, 0x0301
 4a0:	0900                	.insn	2, 0x0900
 4a2:	0000                	.insn	2, 0x
 4a4:	0301                	.insn	2, 0x0301
 4a6:	0900                	.insn	2, 0x0900
 4a8:	0000                	.insn	2, 0x
 4aa:	0301                	.insn	2, 0x0301
 4ac:	0900                	.insn	2, 0x0900
 4ae:	0000                	.insn	2, 0x
 4b0:	0001                	.insn	2, 0x0001
 4b2:	0402                	.insn	2, 0x0402
 4b4:	0614                	.insn	2, 0x0614
 4b6:	10090003          	lb	x0,256(x18)
 4ba:	0100                	.insn	2, 0x0100
 4bc:	0200                	.insn	2, 0x0200
 4be:	1204                	.insn	2, 0x1204
 4c0:	0306                	.insn	2, 0x0306
 4c2:	0900                	.insn	2, 0x0900
 4c4:	0004                	.insn	2, 0x0004
 4c6:	0001                	.insn	2, 0x0001
 4c8:	0402                	.insn	2, 0x0402
 4ca:	0312                	.insn	2, 0x0312
 4cc:	0900                	.insn	2, 0x0900
 4ce:	0004                	.insn	2, 0x0004
 4d0:	0001                	.insn	2, 0x0001
 4d2:	0402                	.insn	2, 0x0402
 4d4:	0312                	.insn	2, 0x0312
 4d6:	0900                	.insn	2, 0x0900
 4d8:	0000                	.insn	2, 0x
 4da:	0001                	.insn	2, 0x0001
 4dc:	0402                	.insn	2, 0x0402
 4de:	0315                	.insn	2, 0x0315
 4e0:	0900                	.insn	2, 0x0900
 4e2:	0010                	.insn	2, 0x0010
 4e4:	0001                	.insn	2, 0x0001
 4e6:	0402                	.insn	2, 0x0402
 4e8:	0315                	.insn	2, 0x0315
 4ea:	0900                	.insn	2, 0x0900
 4ec:	0000                	.insn	2, 0x
 4ee:	0001                	.insn	2, 0x0001
 4f0:	0402                	.insn	2, 0x0402
 4f2:	0315                	.insn	2, 0x0315
 4f4:	0902                	.insn	2, 0x0902
 4f6:	0000                	.insn	2, 0x
 4f8:	0001                	.insn	2, 0x0001
 4fa:	0402                	.insn	2, 0x0402
 4fc:	0615                	.insn	2, 0x0615
 4fe:	00097e03          	.insn	4, 0x00097e03
 502:	0100                	.insn	2, 0x0100
 504:	0105                	.insn	2, 0x0105
 506:	0200                	.insn	2, 0x0200
 508:	1504                	.insn	2, 0x1504
 50a:	10090303          	lb	x6,256(x18)
 50e:	0100                	.insn	2, 0x0100
 510:	0305                	.insn	2, 0x0305
 512:	10097d03          	.insn	4, 0x10097d03
 516:	0100                	.insn	2, 0x0100
 518:	0306                	.insn	2, 0x0306
 51a:	0900                	.insn	2, 0x0900
 51c:	0004                	.insn	2, 0x0004
 51e:	0301                	.insn	2, 0x0301
 520:	0900                	.insn	2, 0x0900
 522:	0000                	.insn	2, 0x
 524:	0301                	.insn	2, 0x0301
 526:	0902                	.insn	2, 0x0902
 528:	0000                	.insn	2, 0x
 52a:	0601                	.insn	2, 0x0601
 52c:	00097e03          	.insn	4, 0x00097e03
 530:	0100                	.insn	2, 0x0100
 532:	0105                	.insn	2, 0x0105
 534:	10090303          	lb	x6,256(x18)
 538:	0100                	.insn	2, 0x0100
 53a:	0305                	.insn	2, 0x0305
 53c:	08097d03          	.insn	4, 0x08097d03
 540:	0100                	.insn	2, 0x0100
 542:	0c09                	.insn	2, 0x0c09
 544:	0000                	.insn	2, 0x
 546:	0101                	.insn	2, 0x0101
 548:	0000003b          	addw	x0,x0,x0
 54c:	0005                	.insn	2, 0x0005
 54e:	0008                	.insn	2, 0x0008
 550:	00000033          	add	x0,x0,x0
 554:	0101                	.insn	2, 0x0101
 556:	fb01                	.insn	2, 0xfb01
 558:	0d0e                	.insn	2, 0x0d0e
 55a:	0100                	.insn	2, 0x0100
 55c:	0101                	.insn	2, 0x0101
 55e:	0001                	.insn	2, 0x0001
 560:	0000                	.insn	2, 0x
 562:	0001                	.insn	2, 0x0001
 564:	0100                	.insn	2, 0x0100
 566:	0101                	.insn	2, 0x0101
 568:	021f 0000 0000      	.insn	6, 0x021f
 56e:	012a                	.insn	2, 0x012a
 570:	0000                	.insn	2, 0x
 572:	0102                	.insn	2, 0x0102
 574:	021f 030f 0120      	.insn	6, 0x0120030f021f
 57a:	0000                	.insn	2, 0x
 57c:	4001                	.insn	2, 0x4001
 57e:	0001                	.insn	2, 0x0001
 580:	0100                	.insn	2, 0x0100
 582:	0120                	.insn	2, 0x0120
 584:	0000                	.insn	2, 0x
 586:	Address 0x586 is out of bounds.


Disassembly of section .debug_str:

0000000000000000 <.debug_str>:
   0:	4644                	.insn	2, 0x4644
   2:	7974                	.insn	2, 0x7974
   4:	6570                	.insn	2, 0x6570
   6:	5f00                	.insn	2, 0x5f00
   8:	695f 746e 3231      	.insn	6, 0x3231746e695f
   e:	0038                	.insn	2, 0x0038
  10:	465f 5f50 4e55      	.insn	6, 0x4e555f50465f
  16:	4150                	.insn	2, 0x4150
  18:	525f4b43          	.insn	4, 0x525f4b43
  1c:	5741                	.insn	2, 0x5741
  1e:	315f 665f 6f6c      	.insn	6, 0x6f6c665f315f
  24:	5f00                	.insn	2, 0x5f00
  26:	665f 7869 6664      	.insn	6, 0x66647869665f
  2c:	6c006973          	.insn	4, 0x6c006973
  30:	20676e6f          	jal	x28,76236 <_Min_Stack_Size-0x789dca>
  34:	6f6c                	.insn	2, 0x6f6c
  36:	676e                	.insn	2, 0x676e
  38:	6920                	.insn	2, 0x6920
  3a:	746e                	.insn	2, 0x746e
  3c:	5f00                	.insn	2, 0x5f00
  3e:	7266                	.insn	2, 0x7266
  40:	006d                	.insn	2, 0x006d
  42:	6e676973          	.insn	4, 0x6e676973
  46:	5f00                	.insn	2, 0x5f00
  48:	5046                	.insn	2, 0x5046
  4a:	555f 494e 4e4f      	.insn	6, 0x4e4f494e555f
  50:	445f 6c00 6e6f      	.insn	6, 0x6e6f6c00445f
  56:	6f6c2067          	.insn	4, 0x6f6c2067
  5a:	676e                	.insn	2, 0x676e
  5c:	7520                	.insn	2, 0x7520
  5e:	736e                	.insn	2, 0x736e
  60:	6769                	.insn	2, 0x6769
  62:	656e                	.insn	2, 0x656e
  64:	2064                	.insn	2, 0x2064
  66:	6e69                	.insn	2, 0x6e69
  68:	0074                	.insn	2, 0x0074
  6a:	6e75                	.insn	2, 0x6e75
  6c:	6e676973          	.insn	4, 0x6e676973
  70:	6465                	.insn	2, 0x6465
  72:	6320                	.insn	2, 0x6320
  74:	6168                	.insn	2, 0x6168
  76:	0072                	.insn	2, 0x0072
  78:	20554e47          	.insn	4, 0x20554e47
  7c:	20373143          	.insn	4, 0x20373143
  80:	3231                	.insn	2, 0x3231
  82:	322e                	.insn	2, 0x322e
  84:	302e                	.insn	2, 0x302e
  86:	2d20                	.insn	2, 0x2d20
  88:	636d                	.insn	2, 0x636d
  8a:	6f6d                	.insn	2, 0x6f6d
  8c:	6564                	.insn	2, 0x6564
  8e:	3d6c                	.insn	2, 0x3d6c
  90:	656d                	.insn	2, 0x656d
  92:	6c64                	.insn	2, 0x6c64
  94:	2d20776f          	jal	x14,7366 <_Min_Stack_Size-0x7f8c9a>
  98:	636d                	.insn	2, 0x636d
  9a:	6f6d                	.insn	2, 0x6f6d
  9c:	6564                	.insn	2, 0x6564
  9e:	3d6c                	.insn	2, 0x3d6c
  a0:	656d                	.insn	2, 0x656d
  a2:	6c64                	.insn	2, 0x6c64
  a4:	2d20776f          	jal	x14,7376 <_Min_Stack_Size-0x7f8c8a>
  a8:	746d                	.insn	2, 0x746d
  aa:	6e75                	.insn	2, 0x6e75
  ac:	3d65                	.insn	2, 0x3d65
  ae:	6f72                	.insn	2, 0x6f72
  b0:	74656b63          	bltu	x10,x6,806 <_Min_Stack_Size-0x7ff7fa>
  b4:	2d20                	.insn	2, 0x2d20
  b6:	616d                	.insn	2, 0x616d
  b8:	6962                	.insn	2, 0x6962
  ba:	6c3d                	.insn	2, 0x6c3d
  bc:	3670                	.insn	2, 0x3670
  be:	2034                	.insn	2, 0x2034
  c0:	6d2d                	.insn	2, 0x6d2d
  c2:	7369                	.insn	2, 0x7369
  c4:	2d61                	.insn	2, 0x2d61
  c6:	63657073          	.insn	4, 0x63657073
  ca:	323d                	.insn	2, 0x323d
  cc:	3130                	.insn	2, 0x3130
  ce:	3139                	.insn	2, 0x3139
  d0:	3132                	.insn	2, 0x3132
  d2:	6d2d2033          	.insn	4, 0x6d2d2033
  d6:	7261                	.insn	2, 0x7261
  d8:	723d6863          	bltu	x26,x3,808 <_Min_Stack_Size-0x7ff7f8>
  dc:	3676                	.insn	2, 0x3676
  de:	6934                	.insn	2, 0x6934
  e0:	616d                	.insn	2, 0x616d
  e2:	2d20                	.insn	2, 0x2d20
  e4:	4f2d2067          	.insn	4, 0x4f2d2067
  e8:	2032                	.insn	2, 0x2032
  ea:	4f2d                	.insn	2, 0x4f2d
  ec:	2032                	.insn	2, 0x2032
  ee:	4f2d                	.insn	2, 0x4f2d
  f0:	2032                	.insn	2, 0x2032
  f2:	662d                	.insn	2, 0x662d
  f4:	7562                	.insn	2, 0x7562
  f6:	6c69                	.insn	2, 0x6c69
  f8:	6964                	.insn	2, 0x6964
  fa:	676e                	.insn	2, 0x676e
  fc:	6c2d                	.insn	2, 0x6c2d
  fe:	6269                	.insn	2, 0x6269
 100:	20636367          	.insn	4, 0x20636367
 104:	662d                	.insn	2, 0x662d
 106:	6f6e                	.insn	2, 0x6f6e
 108:	732d                	.insn	2, 0x732d
 10a:	6174                	.insn	2, 0x6174
 10c:	702d6b63          	bltu	x26,x2,822 <_Min_Stack_Size-0x7ff7de>
 110:	6f72                	.insn	2, 0x6f72
 112:	6574                	.insn	2, 0x6574
 114:	726f7463          	bgeu	x30,x6,83c <_Min_Stack_Size-0x7ff7c4>
 118:	2d20                	.insn	2, 0x2d20
 11a:	5066                	.insn	2, 0x5066
 11c:	4349                	.insn	2, 0x4349
 11e:	2d20                	.insn	2, 0x2d20
 120:	7666                	.insn	2, 0x7666
 122:	7369                	.insn	2, 0x7369
 124:	6269                	.insn	2, 0x6269
 126:	6c69                	.insn	2, 0x6c69
 128:	7469                	.insn	2, 0x7469
 12a:	3d79                	.insn	2, 0x3d79
 12c:	6968                	.insn	2, 0x6968
 12e:	6464                	.insn	2, 0x6464
 130:	6e65                	.insn	2, 0x6e65
 132:	5f00                	.insn	2, 0x5f00
 134:	695f 746e 3231      	.insn	6, 0x3231746e695f
 13a:	2038                	.insn	2, 0x2038
 13c:	6e75                	.insn	2, 0x6e75
 13e:	6e676973          	.insn	4, 0x6e676973
 142:	6465                	.insn	2, 0x6465
 144:	5f00                	.insn	2, 0x5f00
 146:	6566                	.insn	2, 0x6566
 148:	0078                	.insn	2, 0x0078
 14a:	5355                	.insn	2, 0x5355
 14c:	7449                	.insn	2, 0x7449
 14e:	7079                	.insn	2, 0x7079
 150:	0065                	.insn	2, 0x0065
 152:	7266                	.insn	2, 0x7266
 154:	6361                	.insn	2, 0x6361
 156:	6200                	.insn	2, 0x6200
 158:	7469                	.insn	2, 0x7469
 15a:	465f0073          	.insn	4, 0x465f0073
 15e:	5f50                	.insn	2, 0x5f50
 160:	4f54                	.insn	2, 0x4f54
 162:	495f 544e 695f      	.insn	6, 0x695f544e495f
 168:	656e                	.insn	2, 0x656e
 16a:	6178                	.insn	2, 0x6178
 16c:	5f007463          	bgeu	x0,x16,754 <_Min_Stack_Size-0x7ff8ac>
 170:	5046                	.insn	2, 0x5046
 172:	505f 4341 5f4b      	.insn	6, 0x5f4b4341505f
 178:	494d4553          	.insn	4, 0x494d4553
 17c:	4152                	.insn	2, 0x4152
 17e:	5f545f57          	.insn	4, 0x5f545f57
 182:	465f0063          	beq	x30,x5,5e2 <_Min_Stack_Size-0x7ffa1e>
 186:	5f50                	.insn	2, 0x5f50
 188:	4150                	.insn	2, 0x4150
 18a:	535f4b43          	.insn	4, 0x535f4b43
 18e:	4d45                	.insn	2, 0x4d45
 190:	5249                	.insn	2, 0x5249
 192:	5741                	.insn	2, 0x5741
 194:	545f 665f 5f00      	.insn	6, 0x5f00665f545f
 19a:	5046                	.insn	2, 0x5046
 19c:	505f 4341 5f4b      	.insn	6, 0x5f4b4341505f
 1a2:	494d4553          	.insn	4, 0x494d4553
 1a6:	4152                	.insn	2, 0x4152
 1a8:	5f545f57          	.insn	4, 0x5f545f57
 1ac:	61700073          	.insn	4, 0x61700073
 1b0:	735f6b63          	bltu	x30,x21,8e6 <_Min_Stack_Size-0x7ff71a>
 1b4:	6d65                	.insn	2, 0x6d65
 1b6:	7269                	.insn	2, 0x7269
 1b8:	7761                	.insn	2, 0x7761
 1ba:	5f00                	.insn	2, 0x5f00
 1bc:	5046                	.insn	2, 0x5046
 1be:	505f 4341 5f4b      	.insn	6, 0x5f4b4341505f
 1c4:	494d4553          	.insn	4, 0x494d4553
 1c8:	4152                	.insn	2, 0x4152
 1ca:	73695f57          	.insn	4, 0x73695f57
 1ce:	745f 6e69 0079      	.insn	6, 0x00796e69745f
 1d4:	465f 5f50 5246      	.insn	6, 0x52465f50465f
 1da:	495f4d4f          	.insn	4, 0x495f4d4f
 1de:	544e                	.insn	2, 0x544e
 1e0:	755f 0072 465f      	.insn	6, 0x465f0072755f
 1e6:	5f50                	.insn	2, 0x5f50
 1e8:	4150                	.insn	2, 0x4150
 1ea:	535f4b43          	.insn	4, 0x535f4b43
 1ee:	4d45                	.insn	2, 0x4d45
 1f0:	5249                	.insn	2, 0x5249
 1f2:	5741                	.insn	2, 0x5741
 1f4:	545f 655f 5f00      	.insn	6, 0x5f00655f545f
 1fa:	635f 7a6c 6964      	.insn	6, 0x69647a6c635f
 200:	0032                	.insn	2, 0x0032
 202:	465f 5f50 5246      	.insn	6, 0x52465f50465f
 208:	495f4d4f          	.insn	4, 0x495f4d4f
 20c:	544e                	.insn	2, 0x544e
 20e:	6c5f 007a 5f5f      	.insn	6, 0x5f5f007a6c5f
 214:	6c66                	.insn	2, 0x6c66
 216:	7374616f          	jal	x2,4714c <_Min_Stack_Size-0x7b8eb4>
 21a:	6469                	.insn	2, 0x6469
 21c:	0066                	.insn	2, 0x0066
 21e:	465f 5f50 4150      	.insn	6, 0x41505f50465f
 224:	525f4b43          	.insn	4, 0x525f4b43
 228:	5741                	.insn	2, 0x5741
 22a:	315f 665f 6f6c      	.insn	6, 0x6f6c665f315f
 230:	2e00                	.insn	2, 0x2e00
 232:	2f2e                	.insn	2, 0x2f2e
 234:	2e2e                	.insn	2, 0x2e2e
 236:	2f2e2e2f          	.insn	4, 0x2f2e2e2f
 23a:	2f2e                	.insn	2, 0x2f2e
 23c:	2f636367          	.insn	4, 0x2f636367
 240:	696c                	.insn	2, 0x696c
 242:	6762                	.insn	2, 0x6762
 244:	632f6363          	bltu	x30,x18,86a <_Min_Stack_Size-0x7ff796>
 248:	69666e6f          	jal	x28,668de <_Min_Stack_Size-0x799722>
 24c:	69722f67          	.insn	4, 0x69722f67
 250:	2f766373          	.insn	4, 0x2f766373
 254:	756d                	.insn	2, 0x756d
 256:	646c                	.insn	2, 0x646c
 258:	3369                	.insn	2, 0x3369
 25a:	532e                	.insn	2, 0x532e
 25c:	2f00                	.insn	2, 0x2f00
 25e:	6f72                	.insn	2, 0x6f72
 260:	652f746f          	jal	x8,f78b2 <_Min_Stack_Size-0x70874e>
 264:	626d                	.insn	2, 0x626d
 266:	6465                	.insn	2, 0x6465
 268:	6564                	.insn	2, 0x6564
 26a:	2f64                	.insn	2, 0x2f64
 26c:	6972                	.insn	2, 0x6972
 26e:	2d766373          	.insn	4, 0x2d766373
 272:	2d756e67          	.insn	4, 0x2d756e67
 276:	6f74                	.insn	2, 0x6f74
 278:	68636c6f          	jal	x24,368fe <_Min_Stack_Size-0x7c9702>
 27c:	6961                	.insn	2, 0x6961
 27e:	2f6e                	.insn	2, 0x2f6e
 280:	7562                	.insn	2, 0x7562
 282:	6c69                	.insn	2, 0x6c69
 284:	2d64                	.insn	2, 0x2d64
 286:	2d636367          	.insn	4, 0x2d636367
 28a:	756d                	.insn	2, 0x756d
 28c:	732d6c73          	.insn	4, 0x732d6c73
 290:	6174                	.insn	2, 0x6174
 292:	2f326567          	.insn	4, 0x2f326567
 296:	6972                	.insn	2, 0x6972
 298:	36766373          	.insn	4, 0x36766373
 29c:	2d34                	.insn	2, 0x2d34
 29e:	6e75                	.insn	2, 0x6e75
 2a0:	776f6e6b          	.insn	4, 0x776f6e6b
 2a4:	2d6e                	.insn	2, 0x2d6e
 2a6:	696c                	.insn	2, 0x696c
 2a8:	756e                	.insn	2, 0x756e
 2aa:	2d78                	.insn	2, 0x2d78
 2ac:	756d                	.insn	2, 0x756d
 2ae:	6c2f6c73          	.insn	4, 0x6c2f6c73
 2b2:	6269                	.insn	2, 0x6269
 2b4:	00636367          	.insn	4, 0x00636367
 2b8:	20554e47          	.insn	4, 0x20554e47
 2bc:	5341                	.insn	2, 0x5341
 2be:	3220                	.insn	2, 0x3220
 2c0:	342e                	.insn	2, 0x342e
 2c2:	0031                	.insn	2, 0x0031
 2c4:	5f5f 756d 646c      	.insn	6, 0x646c756d5f5f
 2ca:	3369                	.insn	2, 0x3369
 2cc:	6300                	.insn	2, 0x6300
 2ce:	6c706d6f          	jal	x26,7194 <_Min_Stack_Size-0x7f8e6c>
 2d2:	7865                	.insn	2, 0x7865
 2d4:	6c20                	.insn	2, 0x6c20
 2d6:	20676e6f          	jal	x28,764dc <_Min_Stack_Size-0x789b24>
 2da:	6f64                	.insn	2, 0x6f64
 2dc:	6275                	.insn	2, 0x6275
 2de:	656c                	.insn	2, 0x656c
 2e0:	6300                	.insn	2, 0x6300
 2e2:	6c706d6f          	jal	x26,71a8 <_Min_Stack_Size-0x7f8e58>
 2e6:	7865                	.insn	2, 0x7865
 2e8:	6420                	.insn	2, 0x6420
 2ea:	6c62756f          	jal	x10,279b0 <_Min_Stack_Size-0x7d8650>
 2ee:	0065                	.insn	2, 0x0065
 2f0:	5f5f 7278 5f00      	.insn	6, 0x5f0072785f5f
 2f6:	635f 7a6c 745f      	.insn	6, 0x745f7a6c635f
 2fc:	6261                	.insn	2, 0x6261
 2fe:	7300                	.insn	2, 0x7300
 300:	6f68                	.insn	2, 0x6f68
 302:	7472                	.insn	2, 0x7472
 304:	7520                	.insn	2, 0x7520
 306:	736e                	.insn	2, 0x736e
 308:	6769                	.insn	2, 0x6769
 30a:	656e                	.insn	2, 0x656e
 30c:	2064                	.insn	2, 0x2064
 30e:	6e69                	.insn	2, 0x6e69
 310:	0074                	.insn	2, 0x0074
 312:	706d6f63          	bltu	x26,x6,a30 <_Min_Stack_Size-0x7ff5d0>
 316:	656c                	.insn	2, 0x656c
 318:	2078                	.insn	2, 0x2078
 31a:	6c66                	.insn	2, 0x6c66
 31c:	0074616f          	jal	x2,46b22 <_Min_Stack_Size-0x7b94de>
 320:	5155                	.insn	2, 0x5155
 322:	7449                	.insn	2, 0x7449
 324:	7079                	.insn	2, 0x7079
 326:	0065                	.insn	2, 0x0065
 328:	4455                	.insn	2, 0x4455
 32a:	7449                	.insn	2, 0x7449
 32c:	7079                	.insn	2, 0x7079
 32e:	0065                	.insn	2, 0x0065
 330:	726f6873          	.insn	4, 0x726f6873
 334:	2074                	.insn	2, 0x2074
 336:	6e69                	.insn	2, 0x6e69
 338:	0074                	.insn	2, 0x0074

Disassembly of section .debug_line_str:

0000000000000000 <.debug_line_str>:
   0:	6f6f722f          	.insn	4, 0x6f6f722f
   4:	2f74                	.insn	2, 0x2f74
   6:	6d65                	.insn	2, 0x6d65
   8:	6562                	.insn	2, 0x6562
   a:	6464                	.insn	2, 0x6464
   c:	6465                	.insn	2, 0x6465
   e:	7369722f          	.insn	4, 0x7369722f
  12:	672d7663          	bgeu	x26,x18,67e <_Min_Stack_Size-0x7ff982>
  16:	756e                	.insn	2, 0x756e
  18:	742d                	.insn	2, 0x742d
  1a:	636c6f6f          	jal	x30,c6650 <_Min_Stack_Size-0x7399b0>
  1e:	6168                	.insn	2, 0x6168
  20:	6e69                	.insn	2, 0x6e69
  22:	6975622f          	.insn	4, 0x6975622f
  26:	646c                	.insn	2, 0x646c
  28:	672d                	.insn	2, 0x672d
  2a:	6d2d6363          	bltu	x26,x18,6f0 <_Min_Stack_Size-0x7ff910>
  2e:	7375                	.insn	2, 0x7375
  30:	2d6c                	.insn	2, 0x2d6c
  32:	67617473          	.insn	4, 0x67617473
  36:	3265                	.insn	2, 0x3265
  38:	7369722f          	.insn	4, 0x7369722f
  3c:	34367663          	bgeu	x12,x3,388 <_Min_Stack_Size-0x7ffc78>
  40:	752d                	.insn	2, 0x752d
  42:	6b6e                	.insn	2, 0x6b6e
  44:	6f6e                	.insn	2, 0x6f6e
  46:	6c2d6e77          	.insn	4, 0x6c2d6e77
  4a:	6e69                	.insn	2, 0x6e69
  4c:	7875                	.insn	2, 0x7875
  4e:	6d2d                	.insn	2, 0x6d2d
  50:	7375                	.insn	2, 0x7375
  52:	2f6c                	.insn	2, 0x2f6c
  54:	696c                	.insn	2, 0x696c
  56:	6762                	.insn	2, 0x6762
  58:	2e006363          	bltu	x0,x0,33e <_Min_Stack_Size-0x7ffcc2>
  5c:	2f2e                	.insn	2, 0x2f2e
  5e:	2e2e                	.insn	2, 0x2e2e
  60:	2f2e2e2f          	.insn	4, 0x2f2e2e2f
  64:	2f2e                	.insn	2, 0x2f2e
  66:	2f636367          	.insn	4, 0x2f636367
  6a:	696c                	.insn	2, 0x696c
  6c:	6762                	.insn	2, 0x6762
  6e:	732f6363          	bltu	x30,x18,794 <_Min_Stack_Size-0x7ff86c>
  72:	2d74666f          	jal	x12,46b48 <_Min_Stack_Size-0x7b94b8>
  76:	7066                	.insn	2, 0x7066
  78:	7869662f          	.insn	4, 0x7869662f
  7c:	6664                	.insn	2, 0x6664
  7e:	632e6973          	.insn	4, 0x632e6973
  82:	2e00                	.insn	2, 0x2e00
  84:	2f2e                	.insn	2, 0x2f2e
  86:	2e2e                	.insn	2, 0x2e2e
  88:	2f2e2e2f          	.insn	4, 0x2f2e2e2f
  8c:	2f2e                	.insn	2, 0x2f2e
  8e:	2f636367          	.insn	4, 0x2f636367
  92:	696c                	.insn	2, 0x696c
  94:	6762                	.insn	2, 0x6762
  96:	732f6363          	bltu	x30,x18,7bc <_Min_Stack_Size-0x7ff844>
  9a:	2d74666f          	jal	x12,46b70 <_Min_Stack_Size-0x7b9490>
  9e:	7066                	.insn	2, 0x7066
  a0:	7300                	.insn	2, 0x7300
  a2:	2d74666f          	jal	x12,46b78 <_Min_Stack_Size-0x7b9488>
  a6:	7066                	.insn	2, 0x7066
  a8:	682e                	.insn	2, 0x682e
  aa:	6400                	.insn	2, 0x6400
  ac:	6c62756f          	jal	x10,27772 <_Min_Stack_Size-0x7d888e>
  b0:	2e65                	.insn	2, 0x2e65
  b2:	0068                	.insn	2, 0x0068
  b4:	2e2e                	.insn	2, 0x2e2e
  b6:	2f2e2e2f          	.insn	4, 0x2f2e2e2f
  ba:	2e2e                	.insn	2, 0x2e2e
  bc:	672f2e2f          	amoand.w.aqrl	x28,x18,(x30)
  c0:	6c2f6363          	bltu	x30,x2,786 <_Min_Stack_Size-0x7ff87a>
  c4:	6269                	.insn	2, 0x6269
  c6:	2f636367          	.insn	4, 0x2f636367
  ca:	74666f73          	.insn	4, 0x74666f73
  ce:	662d                	.insn	2, 0x662d
  d0:	2f70                	.insn	2, 0x2f70
  d2:	6c66                	.insn	2, 0x6c66
  d4:	7374616f          	jal	x2,4700a <_Min_Stack_Size-0x7b8ff6>
  d8:	6469                	.insn	2, 0x6469
  da:	2e66                	.insn	2, 0x2e66
  dc:	2e2e0063          	beq	x28,x2,3bc <_Min_Stack_Size-0x7ffc44>
  e0:	2f2e2e2f          	.insn	4, 0x2f2e2e2f
  e4:	2e2e                	.insn	2, 0x2e2e
  e6:	672f2e2f          	amoand.w.aqrl	x28,x18,(x30)
  ea:	6c2f6363          	bltu	x30,x2,7b0 <_Min_Stack_Size-0x7ff850>
  ee:	6269                	.insn	2, 0x6269
  f0:	2f636367          	.insn	4, 0x2f636367
  f4:	666e6f63          	bltu	x28,x6,772 <_Min_Stack_Size-0x7ff88e>
  f8:	6769                	.insn	2, 0x6769
  fa:	7369722f          	.insn	4, 0x7369722f
  fe:	6d007663          	bgeu	x0,x16,7ca <_Min_Stack_Size-0x7ff836>
 102:	6c75                	.insn	2, 0x6c75
 104:	6964                	.insn	2, 0x6964
 106:	00532e33          	slt	x28,x6,x5
 10a:	2e2e                	.insn	2, 0x2e2e
 10c:	2f2e2e2f          	.insn	4, 0x2f2e2e2f
 110:	2e2e                	.insn	2, 0x2e2e
 112:	672f2e2f          	amoand.w.aqrl	x28,x18,(x30)
 116:	6c2f6363          	bltu	x30,x2,7dc <_Min_Stack_Size-0x7ff824>
 11a:	6269                	.insn	2, 0x6269
 11c:	2f636367          	.insn	4, 0x2f636367
 120:	696c                	.insn	2, 0x696c
 122:	6762                	.insn	2, 0x6762
 124:	2e326363          	bltu	x4,x3,40a <_Min_Stack_Size-0x7ffbf6>
 128:	2e2e0063          	beq	x28,x2,408 <_Min_Stack_Size-0x7ffbf8>
 12c:	2f2e2e2f          	.insn	4, 0x2f2e2e2f
 130:	2e2e                	.insn	2, 0x2e2e
 132:	672f2e2f          	amoand.w.aqrl	x28,x18,(x30)
 136:	6c2f6363          	bltu	x30,x2,7fc <_Min_Stack_Size-0x7ff804>
 13a:	6269                	.insn	2, 0x6269
 13c:	00636367          	.insn	4, 0x00636367
 140:	696c                	.insn	2, 0x696c
 142:	6762                	.insn	2, 0x6762
 144:	2e326363          	bltu	x4,x3,42a <_Min_Stack_Size-0x7ffbd6>
 148:	0068                	.insn	2, 0x0068

Disassembly of section .debug_frame:

0000000000000000 <.debug_frame>:
   0:	000c                	.insn	2, 0x000c
   2:	0000                	.insn	2, 0x
   4:	ffff                	.insn	2, 0xffff
   6:	ffff                	.insn	2, 0xffff
   8:	7c010003          	lb	x0,1984(x2)
   c:	0d01                	.insn	2, 0x0d01
   e:	0002                	.insn	2, 0x0002
  10:	0014                	.insn	2, 0x0014
  12:	0000                	.insn	2, 0x
  14:	0000                	.insn	2, 0x
  16:	0000                	.insn	2, 0x
  18:	0384                	.insn	2, 0x0384
  1a:	0800                	.insn	2, 0x0800
  1c:	0000                	.insn	2, 0x
  1e:	0000                	.insn	2, 0x
  20:	0068                	.insn	2, 0x0068
  22:	0000                	.insn	2, 0x
  24:	0000                	.insn	2, 0x
  26:	0000                	.insn	2, 0x
  28:	000c                	.insn	2, 0x000c
  2a:	0000                	.insn	2, 0x
  2c:	ffff                	.insn	2, 0xffff
  2e:	ffff                	.insn	2, 0xffff
  30:	7c010003          	lb	x0,1984(x2)
  34:	0d01                	.insn	2, 0x0d01
  36:	0002                	.insn	2, 0x0002
  38:	002c                	.insn	2, 0x002c
  3a:	0000                	.insn	2, 0x
  3c:	0028                	.insn	2, 0x0028
  3e:	0000                	.insn	2, 0x
  40:	03ec                	.insn	2, 0x03ec
  42:	0800                	.insn	2, 0x0800
  44:	0000                	.insn	2, 0x
  46:	0000                	.insn	2, 0x
  48:	0088                	.insn	2, 0x0088
  4a:	0000                	.insn	2, 0x
  4c:	0000                	.insn	2, 0x
  4e:	0000                	.insn	2, 0x
  50:	0e44                	.insn	2, 0x0e44
  52:	4c20                	.insn	2, 0x4c20
  54:	0281                	.insn	2, 0x0281
  56:	0488                	.insn	2, 0x0488
  58:	0689                	.insn	2, 0x0689
  5a:	4002                	.insn	2, 0x4002
  5c:	c10a                	.insn	2, 0xc10a
  5e:	c844                	.insn	2, 0xc844
  60:	c950                	.insn	2, 0xc950
  62:	0e48                	.insn	2, 0x0e48
  64:	4400                	.insn	2, 0x4400
  66:	000c000b          	.insn	4, 0x000c000b
  6a:	0000                	.insn	2, 0x
  6c:	ffff                	.insn	2, 0xffff
  6e:	ffff                	.insn	2, 0xffff
  70:	7c010003          	lb	x0,1984(x2)
  74:	0d01                	.insn	2, 0x0d01
  76:	0002                	.insn	2, 0x0002
  78:	0014                	.insn	2, 0x0014
  7a:	0000                	.insn	2, 0x
  7c:	0068                	.insn	2, 0x0068
  7e:	0000                	.insn	2, 0x
  80:	0498                	.insn	2, 0x0498
  82:	0800                	.insn	2, 0x0800
  84:	0000                	.insn	2, 0x
  86:	0000                	.insn	2, 0x
  88:	0070                	.insn	2, 0x0070
  8a:	0000                	.insn	2, 0x
  8c:	0000                	.insn	2, 0x
	...
